EXPORTS 
	?$TSS0@?1???$get_static_exception_object@Ubad_alloc_@exception_detail@boost@@@exception_detail@boost@@YA?AVexception_ptr@2@XZ@4HA 	 DATA
	?$TSS0@?1???$get_static_exception_object@Ubad_exception_@exception_detail@boost@@@exception_detail@boost@@YA?AVexception_ptr@2@XZ@4HA 	 DATA
	??_R0?AU?$DefaultMessageCreator@U?$Path_@V?$allocator@X@std@@@nav_msgs@@@ros@@@8 	 DATA
	??_R0?AU?$DefaultMessageCreator@U?$PointStamped_@V?$allocator@X@std@@@geometry_msgs@@@ros@@@8 	 DATA
	??_R0?AU?$Path_@V?$allocator@X@std@@@nav_msgs@@@8 	 DATA
	??_R0?AU?$PointStamped_@V?$allocator@X@std@@@geometry_msgs@@@8 	 DATA
	??_R0?AU?$checked_array_deleter@E@boost@@@8 	 DATA
	??_R0?AU?$error_info_injector@Vbad_function_call@boost@@@exception_detail@boost@@@8 	 DATA
	??_R0?AU?$error_info_injector@Vthread_resource_error@boost@@@exception_detail@boost@@@8 	 DATA
	??_R0?AUbad_alloc_@exception_detail@boost@@@8 	 DATA
	??_R0?AUbad_exception_@exception_detail@boost@@@8 	 DATA
	??_R0?AV?$AbstractMetaObject@VBaseGlobalPlanner@nav_core@@@impl@class_loader@@@8 	 DATA
	??_R0?AV?$MetaObject@VWaypointGlobalPlanner@waypoint_global_planner@@VBaseGlobalPlanner@nav_core@@@impl@class_loader@@@8 	 DATA
	??_R0?AV?$SubscriptionCallbackHelperT@AEBV?$shared_ptr@$$CBU?$Path_@V?$allocator@X@std@@@nav_msgs@@@boost@@X@ros@@@8 	 DATA
	??_R0?AV?$SubscriptionCallbackHelperT@AEBV?$shared_ptr@$$CBU?$PointStamped_@V?$allocator@X@std@@@geometry_msgs@@@boost@@X@ros@@@8 	 DATA
	??_R0?AV?$bind_t@VSerializedMessage@ros@@P6A?AV12@AEBU?$MarkerArray_@V?$allocator@X@std@@@visualization_msgs@@@ZV?$list1@V?$reference_wrapper@$$CBU?$MarkerArray_@V?$allocator@X@std@@@visualization_msgs@@@boost@@@_bi@boost@@@_bi@boost@@@8 	 DATA
	??_R0?AV?$bind_t@VSerializedMessage@ros@@P6A?AV12@AEBU?$Path_@V?$allocator@X@std@@@nav_msgs@@@ZV?$list1@V?$reference_wrapper@$$CBU?$Path_@V?$allocator@X@std@@@nav_msgs@@@boost@@@_bi@boost@@@_bi@boost@@@8 	 DATA
	??_R0?AV?$bind_t@VSerializedMessage@ros@@P6A?AV12@AEBU?$PoseStamped_@V?$allocator@X@std@@@geometry_msgs@@@ZV?$list1@V?$reference_wrapper@$$CBU?$PoseStamped_@V?$allocator@X@std@@@geometry_msgs@@@boost@@@_bi@boost@@@_bi@boost@@@8 	 DATA
	??_R0?AV?$bind_t@XV?$mf1@XVWaypointGlobalPlanner@waypoint_global_planner@@AEBV?$shared_ptr@$$CBU?$Path_@V?$allocator@X@std@@@nav_msgs@@@boost@@@_mfi@boost@@V?$list2@V?$value@PEAVWaypointGlobalPlanner@waypoint_global_planner@@@_bi@boost@@U?$arg@$00@3@@_bi@3@@_bi@boost@@@8 	 DATA
	??_R0?AV?$bind_t@XV?$mf1@XVWaypointGlobalPlanner@waypoint_global_planner@@AEBV?$shared_ptr@$$CBU?$PointStamped_@V?$allocator@X@std@@@geometry_msgs@@@boost@@@_mfi@boost@@V?$list2@V?$value@PEAVWaypointGlobalPlanner@waypoint_global_planner@@@_bi@boost@@U?$arg@$00@3@@_bi@3@@_bi@boost@@@8 	 DATA
	??_R0?AV?$clone_impl@U?$error_info_injector@Vbad_function_call@boost@@@exception_detail@boost@@@exception_detail@boost@@@8 	 DATA
	??_R0?AV?$clone_impl@U?$error_info_injector@Vthread_resource_error@boost@@@exception_detail@boost@@@exception_detail@boost@@@8 	 DATA
	??_R0?AV?$clone_impl@Ubad_alloc_@exception_detail@boost@@@exception_detail@boost@@@8 	 DATA
	??_R0?AV?$clone_impl@Ubad_exception_@exception_detail@boost@@@exception_detail@boost@@@8 	 DATA
	??_R0?AV?$function@$$A6AXAEBV?$shared_ptr@$$CBU?$Path_@V?$allocator@X@std@@@nav_msgs@@@boost@@@Z@boost@@@8 	 DATA
	??_R0?AV?$function@$$A6AXAEBV?$shared_ptr@$$CBU?$PointStamped_@V?$allocator@X@std@@@geometry_msgs@@@boost@@@Z@boost@@@8 	 DATA
	??_R0?AV?$sp_counted_impl_p@V?$clone_impl@Ubad_alloc_@exception_detail@boost@@@exception_detail@boost@@@detail@boost@@@8 	 DATA
	??_R0?AV?$sp_counted_impl_p@V?$clone_impl@Ubad_exception_@exception_detail@boost@@@exception_detail@boost@@@detail@boost@@@8 	 DATA
	??_R0?AV?$sp_counted_impl_pd@PEAEU?$checked_array_deleter@E@boost@@@detail@boost@@@8 	 DATA
	??_R0?AV?$sp_counted_impl_pd@PEAU?$Path_@V?$allocator@X@std@@@nav_msgs@@V?$sp_ms_deleter@U?$Path_@V?$allocator@X@std@@@nav_msgs@@@detail@boost@@@detail@boost@@@8 	 DATA
	??_R0?AV?$sp_counted_impl_pd@PEAU?$PointStamped_@V?$allocator@X@std@@@geometry_msgs@@V?$sp_ms_deleter@U?$PointStamped_@V?$allocator@X@std@@@geometry_msgs@@@detail@boost@@@detail@boost@@@8 	 DATA
	??_R0?AV?$sp_counted_impl_pd@PEAV?$SubscriptionCallbackHelperT@AEBV?$shared_ptr@$$CBU?$Path_@V?$allocator@X@std@@@nav_msgs@@@boost@@X@ros@@V?$sp_ms_deleter@V?$SubscriptionCallbackHelperT@AEBV?$shared_ptr@$$CBU?$Path_@V?$allocator@X@std@@@nav_msgs@@@boost@@X@ros@@@detail@boost@@@detail@boost@@@8 	 DATA
	??_R0?AV?$sp_counted_impl_pd@PEAV?$SubscriptionCallbackHelperT@AEBV?$shared_ptr@$$CBU?$PointStamped_@V?$allocator@X@std@@@geometry_msgs@@@boost@@X@ros@@V?$sp_ms_deleter@V?$SubscriptionCallbackHelperT@AEBV?$shared_ptr@$$CBU?$PointStamped_@V?$allocator@X@std@@@geometry_msgs@@@boost@@X@ros@@@detail@boost@@@detail@boost@@@8 	 DATA
	??_R0?AV?$sp_ms_deleter@U?$Path_@V?$allocator@X@std@@@nav_msgs@@@detail@boost@@@8 	 DATA
	??_R0?AV?$sp_ms_deleter@U?$PointStamped_@V?$allocator@X@std@@@geometry_msgs@@@detail@boost@@@8 	 DATA
	??_R0?AV?$sp_ms_deleter@V?$SubscriptionCallbackHelperT@AEBV?$shared_ptr@$$CBU?$Path_@V?$allocator@X@std@@@nav_msgs@@@boost@@X@ros@@@detail@boost@@@8 	 DATA
	??_R0?AV?$sp_ms_deleter@V?$SubscriptionCallbackHelperT@AEBV?$shared_ptr@$$CBU?$PointStamped_@V?$allocator@X@std@@@geometry_msgs@@@boost@@X@ros@@@detail@boost@@@8 	 DATA
	??_R0?AVAbstractMetaObjectBase@impl@class_loader@@@8 	 DATA
	??_R0?AVBaseGlobalPlanner@nav_core@@@8 	 DATA
	??_R0?AVSubscriptionCallbackHelper@ros@@@8 	 DATA
	??_R0?AVWaypointGlobalPlanner@waypoint_global_planner@@@8 	 DATA
	??_R0?AVbad_alloc@std@@@8 	 DATA
	??_R0?AVbad_array_new_length@std@@@8 	 DATA
	??_R0?AVbad_exception@std@@@8 	 DATA
	??_R0?AVbad_function_call@boost@@@8 	 DATA
	??_R0?AVclone_base@exception_detail@boost@@@8 	 DATA
	??_R0?AVexception@boost@@@8 	 DATA
	??_R0?AVexception@std@@@8 	 DATA
	??_R0?AVruntime_error@std@@@8 	 DATA
	??_R0?AVsp_counted_base@detail@boost@@@8 	 DATA
	??_R0?AVsystem_error@system@boost@@@8 	 DATA
	??_R0?AVthread_exception@boost@@@8 	 DATA
	??_R0?AVthread_resource_error@boost@@@8 	 DATA
	?__rosconsole_define_location__loc@?6??deserialize@?$SubscriptionCallbackHelperT@AEBV?$shared_ptr@$$CBU?$Path_@V?$allocator@X@std@@@nav_msgs@@@boost@@X@ros@@UEAA?AV?$shared_ptr@$$CBX@boost@@AEBUSubscriptionCallbackHelperDeserializeParams@3@@Z@4ULogLocation@console@3@A 	 DATA
	?__rosconsole_define_location__loc@?6??deserialize@?$SubscriptionCallbackHelperT@AEBV?$shared_ptr@$$CBU?$PointStamped_@V?$allocator@X@std@@@geometry_msgs@@@boost@@X@ros@@UEAA?AV?$shared_ptr@$$CBX@boost@@AEBUSubscriptionCallbackHelperDeserializeParams@3@@Z@4ULogLocation@console@3@A 	 DATA
	?e@?$exception_ptr_static_exception_object@Ubad_alloc_@exception_detail@boost@@@exception_detail@boost@@2Vexception_ptr@3@B 	 DATA
	?e@?$exception_ptr_static_exception_object@Ubad_exception_@exception_detail@boost@@@exception_detail@boost@@2Vexception_ptr@3@B 	 DATA
	?ep@?1???$get_static_exception_object@Ubad_alloc_@exception_detail@boost@@@exception_detail@boost@@YA?AVexception_ptr@2@XZ@4V32@A 	 DATA
	?ep@?1???$get_static_exception_object@Ubad_exception_@exception_detail@boost@@@exception_detail@boost@@YA?AVexception_ptr@2@XZ@4V32@A 	 DATA
	??$?0$$CBU?$Path_@V?$allocator@X@std@@@nav_msgs@@@?$shared_ptr@U?$Path_@V?$allocator@X@std@@@nav_msgs@@@boost@@QEAA@$$QEAV?$shared_ptr@$$CBU?$Path_@V?$allocator@X@std@@@nav_msgs@@@1@PEAU?$Path_@V?$allocator@X@std@@@nav_msgs@@@Z
	??$?0$$CBU?$Path_@V?$allocator@X@std@@@nav_msgs@@@?$shared_ptr@U?$Path_@V?$allocator@X@std@@@nav_msgs@@@boost@@QEAA@AEBV?$shared_ptr@$$CBU?$Path_@V?$allocator@X@std@@@nav_msgs@@@1@PEAU?$Path_@V?$allocator@X@std@@@nav_msgs@@@Z
	??$?0$$CBU?$PointStamped_@V?$allocator@X@std@@@geometry_msgs@@@?$shared_ptr@U?$PointStamped_@V?$allocator@X@std@@@geometry_msgs@@@boost@@QEAA@$$QEAV?$shared_ptr@$$CBU?$PointStamped_@V?$allocator@X@std@@@geometry_msgs@@@1@PEAU?$PointStamped_@V?$allocator@X@std@@@geometry_msgs@@@Z
	??$?0$$CBU?$PointStamped_@V?$allocator@X@std@@@geometry_msgs@@@?$shared_ptr@U?$PointStamped_@V?$allocator@X@std@@@geometry_msgs@@@boost@@QEAA@AEBV?$shared_ptr@$$CBU?$PointStamped_@V?$allocator@X@std@@@geometry_msgs@@@1@PEAU?$PointStamped_@V?$allocator@X@std@@@geometry_msgs@@@Z
	??$?0$$CBX@?$shared_ptr@$$CBU?$Path_@V?$allocator@X@std@@@nav_msgs@@@boost@@QEAA@$$QEAV?$shared_ptr@$$CBX@1@PEBU?$Path_@V?$allocator@X@std@@@nav_msgs@@@Z
	??$?0$$CBX@?$shared_ptr@$$CBU?$PointStamped_@V?$allocator@X@std@@@geometry_msgs@@@boost@@QEAA@$$QEAV?$shared_ptr@$$CBX@1@PEBU?$PointStamped_@V?$allocator@X@std@@@geometry_msgs@@@Z
	??$?0$$CBX@?$shared_ptr@X@boost@@QEAA@AEBV?$shared_ptr@$$CBX@1@PEAX@Z
	??$?0$$V@?$_Compressed_pair@V?$allocator@D@std@@V?$_String_val@U?$_Simple_types@D@std@@@2@$00@std@@QEAA@U_Zero_then_variadic_args_t@1@@Z
	??$?0$$V@?$_Compressed_pair@V?$allocator@U?$ColorRGBA_@V?$allocator@X@std@@@std_msgs@@@std@@V?$_Vector_val@U?$_Simple_types@U?$ColorRGBA_@V?$allocator@X@std@@@std_msgs@@@std@@@2@$00@std@@QEAA@U_Zero_then_variadic_args_t@1@@Z
	??$?0$$V@?$_Compressed_pair@V?$allocator@U?$Marker_@V?$allocator@X@std@@@visualization_msgs@@@std@@V?$_Vector_val@U?$_Simple_types@U?$Marker_@V?$allocator@X@std@@@visualization_msgs@@@std@@@2@$00@std@@QEAA@U_Zero_then_variadic_args_t@1@@Z
	??$?0$$V@?$_Compressed_pair@V?$allocator@U?$Point_@V?$allocator@X@std@@@geometry_msgs@@@std@@V?$_Vector_val@U?$_Simple_types@U?$Point_@V?$allocator@X@std@@@geometry_msgs@@@std@@@2@$00@std@@QEAA@U_Zero_then_variadic_args_t@1@@Z
	??$?0$$V@?$_Compressed_pair@V?$allocator@U?$PoseStamped_@V?$allocator@X@std@@@geometry_msgs@@@std@@V?$_Vector_val@U?$_Simple_types@U?$PoseStamped_@V?$allocator@X@std@@@geometry_msgs@@@std@@@2@$00@std@@QEAA@U_Zero_then_variadic_args_t@1@@Z
	??$?0$$V@?$_Compressed_pair@V?$allocator@U?$_Tree_node@U?$pair@$$CBV?$basic_string@DU?$char_traits@D@std@@V?$allocator@D@2@@std@@V12@@std@@PEAX@std@@@std@@V?$_Tree_val@U?$_Tree_simple_types@U?$pair@$$CBV?$basic_string@DU?$char_traits@D@std@@V?$allocator@D@2@@std@@V12@@std@@@std@@@2@$00@std@@QEAA@U_Zero_then_variadic_args_t@1@@Z
	??$?0AEBQEAU?$_Tree_node@U?$pair@$$CBV?$basic_string@DU?$char_traits@D@std@@V?$allocator@D@2@@std@@PEAVAbstractMetaObjectBase@impl@class_loader@@@std@@PEAX@std@@_N$0A@@?$pair@PEAU?$_Tree_node@U?$pair@$$CBV?$basic_string@DU?$char_traits@D@std@@V?$allocator@D@2@@std@@PEAVAbstractMetaObjectBase@impl@class_loader@@@std@@PEAX@std@@_N@std@@QEAA@AEBQEAU?$_Tree_node@U?$pair@$$CBV?$basic_string@DU?$char_traits@D@std@@V?$allocator@D@2@@std@@PEAVAbstractMetaObjectBase@impl@class_loader@@@std@@PEAX@1@$$QEA_N@Z
	??$?0AEBU?$PoseStamped_@V?$allocator@X@std@@@geometry_msgs@@@?$_Alloc_temporary2@V?$allocator@U?$PoseStamped_@V?$allocator@X@std@@@geometry_msgs@@@std@@@std@@QEAA@AEAV?$allocator@U?$PoseStamped_@V?$allocator@X@std@@@geometry_msgs@@@1@AEBU?$PoseStamped_@V?$allocator@X@std@@@geometry_msgs@@@Z
	??$?0AEBU?$less@V?$basic_string@DU?$char_traits@D@std@@V?$allocator@D@2@@std@@@std@@U_Zero_then_variadic_args_t@1@@?$_Compressed_pair@U?$less@V?$basic_string@DU?$char_traits@D@std@@V?$allocator@D@2@@std@@@std@@V?$_Compressed_pair@V?$allocator@U?$_Tree_node@U?$pair@$$CBV?$basic_string@DU?$char_traits@D@std@@V?$allocator@D@2@@std@@V12@@std@@PEAX@std@@@std@@V?$_Tree_val@U?$_Tree_simple_types@U?$pair@$$CBV?$basic_string@DU?$char_traits@D@std@@V?$allocator@D@2@@std@@V12@@std@@@std@@@2@$00@2@$00@std@@QEAA@U_One_then_variadic_args_t@1@AEBU?$less@V?$basic_string@DU?$char_traits@D@std@@V?$allocator@D@2@@std@@@1@$$QEAU_Zero_then_variadic_args_t@1@@Z
	??$?0AEBUpiecewise_construct_t@std@@V?$tuple@AEBV?$basic_string@DU?$char_traits@D@std@@V?$allocator@D@2@@std@@@1@V?$tuple@$$V@1@@?$_Tree_temp_node@V?$allocator@U?$_Tree_node@U?$pair@$$CBV?$basic_string@DU?$char_traits@D@std@@V?$allocator@D@2@@std@@PEAVAbstractMetaObjectBase@impl@class_loader@@@std@@PEAX@std@@@std@@@std@@QEAA@AEAV?$allocator@U?$_Tree_node@U?$pair@$$CBV?$basic_string@DU?$char_traits@D@std@@V?$allocator@D@2@@std@@PEAVAbstractMetaObjectBase@impl@class_loader@@@std@@PEAX@std@@@1@PEAU?$_Tree_node@U?$pair@$$CBV?$basic_string@DU?$char_traits@D@std@@V?$allocator@D@2@@std@@PEAVAbstractMetaObjectBase@impl@class_loader@@@std@@PEAX@1@AEBUpiecewise_construct_t@1@$$QEAV?$tuple@AEBV?$basic_string@DU?$char_traits@D@std@@V?$allocator@D@2@@std@@@1@$$QEAV?$tuple@$$V@1@@Z
	??$?0AEBV?$basic_string@DU?$char_traits@D@std@@V?$allocator@D@2@@std@@$$Z$$V@?$pair@$$CBV?$basic_string@DU?$char_traits@D@std@@V?$allocator@D@2@@std@@PEAVAbstractMetaObjectBase@impl@class_loader@@@std@@QEAA@Upiecewise_construct_t@1@V?$tuple@AEBV?$basic_string@DU?$char_traits@D@std@@V?$allocator@D@2@@std@@@1@V?$tuple@$$V@1@@Z
	??$?0AEBV?$basic_string@DU?$char_traits@D@std@@V?$allocator@D@2@@std@@$0A@@?$tuple@AEBV?$basic_string@DU?$char_traits@D@std@@V?$allocator@D@2@@std@@@std@@QEAA@AEBV?$basic_string@DU?$char_traits@D@std@@V?$allocator@D@2@@1@@Z
	??$?0AEBV?$basic_string@DU?$char_traits@D@std@@V?$allocator@D@2@@std@@@?$_Tuple_val@AEBV?$basic_string@DU?$char_traits@D@std@@V?$allocator@D@2@@std@@@std@@QEAA@AEBV?$basic_string@DU?$char_traits@D@std@@V?$allocator@D@2@@1@@Z
	??$?0E@?$shared_array@E@boost@@QEAA@PEAE@Z
	??$?0PEAEU?$checked_array_deleter@E@boost@@@shared_count@detail@boost@@QEAA@PEAEU?$checked_array_deleter@E@2@@Z
	??$?0PEAU?$Path_@V?$allocator@X@std@@@nav_msgs@@V?$sp_ms_deleter@U?$Path_@V?$allocator@X@std@@@nav_msgs@@@detail@boost@@@shared_count@detail@boost@@QEAA@PEAU?$Path_@V?$allocator@X@std@@@nav_msgs@@U?$sp_inplace_tag@V?$sp_ms_deleter@U?$Path_@V?$allocator@X@std@@@nav_msgs@@@detail@boost@@@12@@Z
	??$?0PEAU?$PointStamped_@V?$allocator@X@std@@@geometry_msgs@@V?$sp_ms_deleter@U?$PointStamped_@V?$allocator@X@std@@@geometry_msgs@@@detail@boost@@@shared_count@detail@boost@@QEAA@PEAU?$PointStamped_@V?$allocator@X@std@@@geometry_msgs@@U?$sp_inplace_tag@V?$sp_ms_deleter@U?$PointStamped_@V?$allocator@X@std@@@geometry_msgs@@@detail@boost@@@12@@Z
	??$?0PEAU?$_Tree_node@U?$pair@$$CBV?$basic_string@DU?$char_traits@D@std@@V?$allocator@D@2@@std@@PEAVAbstractMetaObjectBase@impl@class_loader@@@std@@PEAX@std@@_N$0A@@?$pair@PEAU?$_Tree_node@U?$pair@$$CBV?$basic_string@DU?$char_traits@D@std@@V?$allocator@D@2@@std@@PEAVAbstractMetaObjectBase@impl@class_loader@@@std@@PEAX@std@@_N@std@@QEAA@$$QEAPEAU?$_Tree_node@U?$pair@$$CBV?$basic_string@DU?$char_traits@D@std@@V?$allocator@D@2@@std@@PEAVAbstractMetaObjectBase@impl@class_loader@@@std@@PEAX@1@$$QEA_N@Z
	??$?0PEAV?$SubscriptionCallbackHelperT@AEBV?$shared_ptr@$$CBU?$Path_@V?$allocator@X@std@@@nav_msgs@@@boost@@X@ros@@V?$sp_ms_deleter@V?$SubscriptionCallbackHelperT@AEBV?$shared_ptr@$$CBU?$Path_@V?$allocator@X@std@@@nav_msgs@@@boost@@X@ros@@@detail@boost@@@shared_count@detail@boost@@QEAA@PEAV?$SubscriptionCallbackHelperT@AEBV?$shared_ptr@$$CBU?$Path_@V?$allocator@X@std@@@nav_msgs@@@boost@@X@ros@@U?$sp_inplace_tag@V?$sp_ms_deleter@V?$SubscriptionCallbackHelperT@AEBV?$shared_ptr@$$CBU?$Path_@V?$allocator@X@std@@@nav_msgs@@@boost@@X@ros@@@detail@boost@@@12@@Z
	??$?0PEAV?$SubscriptionCallbackHelperT@AEBV?$shared_ptr@$$CBU?$PointStamped_@V?$allocator@X@std@@@geometry_msgs@@@boost@@X@ros@@V?$sp_ms_deleter@V?$SubscriptionCallbackHelperT@AEBV?$shared_ptr@$$CBU?$PointStamped_@V?$allocator@X@std@@@geometry_msgs@@@boost@@X@ros@@@detail@boost@@@shared_count@detail@boost@@QEAA@PEAV?$SubscriptionCallbackHelperT@AEBV?$shared_ptr@$$CBU?$PointStamped_@V?$allocator@X@std@@@geometry_msgs@@@boost@@X@ros@@U?$sp_inplace_tag@V?$sp_ms_deleter@V?$SubscriptionCallbackHelperT@AEBV?$shared_ptr@$$CBU?$PointStamped_@V?$allocator@X@std@@@geometry_msgs@@@boost@@X@ros@@@detail@boost@@@12@@Z
	??$?0U?$DefaultMessageCreator@U?$Path_@V?$allocator@X@std@@@nav_msgs@@@ros@@@?$function0@V?$shared_ptr@U?$Path_@V?$allocator@X@std@@@nav_msgs@@@boost@@@boost@@QEAA@U?$DefaultMessageCreator@U?$Path_@V?$allocator@X@std@@@nav_msgs@@@ros@@H@Z
	??$?0U?$DefaultMessageCreator@U?$Path_@V?$allocator@X@std@@@nav_msgs@@@ros@@@?$function@$$A6A?AV?$shared_ptr@U?$Path_@V?$allocator@X@std@@@nav_msgs@@@boost@@XZ@boost@@QEAA@U?$DefaultMessageCreator@U?$Path_@V?$allocator@X@std@@@nav_msgs@@@ros@@H@Z
	??$?0U?$DefaultMessageCreator@U?$PointStamped_@V?$allocator@X@std@@@geometry_msgs@@@ros@@@?$function0@V?$shared_ptr@U?$PointStamped_@V?$allocator@X@std@@@geometry_msgs@@@boost@@@boost@@QEAA@U?$DefaultMessageCreator@U?$PointStamped_@V?$allocator@X@std@@@geometry_msgs@@@ros@@H@Z
	??$?0U?$DefaultMessageCreator@U?$PointStamped_@V?$allocator@X@std@@@geometry_msgs@@@ros@@@?$function@$$A6A?AV?$shared_ptr@U?$PointStamped_@V?$allocator@X@std@@@geometry_msgs@@@boost@@XZ@boost@@QEAA@U?$DefaultMessageCreator@U?$PointStamped_@V?$allocator@X@std@@@geometry_msgs@@@ros@@H@Z
	??$?0U?$Path_@V?$allocator@X@std@@@nav_msgs@@@?$shared_ptr@$$CBU?$Path_@V?$allocator@X@std@@@nav_msgs@@@boost@@QEAA@$$QEAV?$shared_ptr@U?$Path_@V?$allocator@X@std@@@nav_msgs@@@1@Usp_empty@detail@1@@Z
	??$?0U?$Path_@V?$allocator@X@std@@@nav_msgs@@@?$shared_ptr@$$CBU?$Path_@V?$allocator@X@std@@@nav_msgs@@@boost@@QEAA@AEBV?$shared_ptr@U?$Path_@V?$allocator@X@std@@@nav_msgs@@@1@Usp_empty@detail@1@@Z
	??$?0U?$Path_@V?$allocator@X@std@@@nav_msgs@@@?$shared_ptr@$$CBX@boost@@QEAA@AEBV?$shared_ptr@U?$Path_@V?$allocator@X@std@@@nav_msgs@@@1@Usp_empty@detail@1@@Z
	??$?0U?$Path_@V?$allocator@X@std@@@nav_msgs@@@?$shared_ptr@U?$Path_@V?$allocator@X@std@@@nav_msgs@@@boost@@QEAA@AEBV01@PEAU?$Path_@V?$allocator@X@std@@@nav_msgs@@@Z
	??$?0U?$Path_@V?$allocator@X@std@@@nav_msgs@@U?$sp_inplace_tag@V?$sp_ms_deleter@U?$Path_@V?$allocator@X@std@@@nav_msgs@@@detail@boost@@@detail@boost@@@?$shared_ptr@U?$Path_@V?$allocator@X@std@@@nav_msgs@@@boost@@QEAA@PEAU?$Path_@V?$allocator@X@std@@@nav_msgs@@U?$sp_inplace_tag@V?$sp_ms_deleter@U?$Path_@V?$allocator@X@std@@@nav_msgs@@@detail@boost@@@detail@1@@Z
	??$?0U?$PointStamped_@V?$allocator@X@std@@@geometry_msgs@@@?$shared_ptr@$$CBU?$PointStamped_@V?$allocator@X@std@@@geometry_msgs@@@boost@@QEAA@$$QEAV?$shared_ptr@U?$PointStamped_@V?$allocator@X@std@@@geometry_msgs@@@1@Usp_empty@detail@1@@Z
	??$?0U?$PointStamped_@V?$allocator@X@std@@@geometry_msgs@@@?$shared_ptr@$$CBU?$PointStamped_@V?$allocator@X@std@@@geometry_msgs@@@boost@@QEAA@AEBV?$shared_ptr@U?$PointStamped_@V?$allocator@X@std@@@geometry_msgs@@@1@Usp_empty@detail@1@@Z
	??$?0U?$PointStamped_@V?$allocator@X@std@@@geometry_msgs@@@?$shared_ptr@$$CBX@boost@@QEAA@AEBV?$shared_ptr@U?$PointStamped_@V?$allocator@X@std@@@geometry_msgs@@@1@Usp_empty@detail@1@@Z
	??$?0U?$PointStamped_@V?$allocator@X@std@@@geometry_msgs@@@?$shared_ptr@U?$PointStamped_@V?$allocator@X@std@@@geometry_msgs@@@boost@@QEAA@AEBV01@PEAU?$PointStamped_@V?$allocator@X@std@@@geometry_msgs@@@Z
	??$?0U?$PointStamped_@V?$allocator@X@std@@@geometry_msgs@@U?$sp_inplace_tag@V?$sp_ms_deleter@U?$PointStamped_@V?$allocator@X@std@@@geometry_msgs@@@detail@boost@@@detail@boost@@@?$shared_ptr@U?$PointStamped_@V?$allocator@X@std@@@geometry_msgs@@@boost@@QEAA@PEAU?$PointStamped_@V?$allocator@X@std@@@geometry_msgs@@U?$sp_inplace_tag@V?$sp_ms_deleter@U?$PointStamped_@V?$allocator@X@std@@@geometry_msgs@@@detail@boost@@@detail@1@@Z
	??$?0U_Exact_args_t@std@@$0A@@?$tuple@$$V@std@@QEAA@U_Exact_args_t@1@@Z
	??$?0U_Exact_args_t@std@@AEBV?$basic_string@DU?$char_traits@D@std@@V?$allocator@D@2@@1@$$V$0A@@?$tuple@AEBV?$basic_string@DU?$char_traits@D@std@@V?$allocator@D@2@@std@@@std@@QEAA@U_Exact_args_t@1@AEBV?$basic_string@DU?$char_traits@D@std@@V?$allocator@D@2@@1@@Z
	??$?0V?$SubscriptionCallbackHelperT@AEBV?$shared_ptr@$$CBU?$Path_@V?$allocator@X@std@@@nav_msgs@@@boost@@X@ros@@@?$shared_ptr@V?$SubscriptionCallbackHelperT@AEBV?$shared_ptr@$$CBU?$Path_@V?$allocator@X@std@@@nav_msgs@@@boost@@X@ros@@@boost@@QEAA@AEBV01@PEAV?$SubscriptionCallbackHelperT@AEBV?$shared_ptr@$$CBU?$Path_@V?$allocator@X@std@@@nav_msgs@@@boost@@X@ros@@@Z
	??$?0V?$SubscriptionCallbackHelperT@AEBV?$shared_ptr@$$CBU?$Path_@V?$allocator@X@std@@@nav_msgs@@@boost@@X@ros@@@?$shared_ptr@VSubscriptionCallbackHelper@ros@@@boost@@QEAA@$$QEAV?$shared_ptr@V?$SubscriptionCallbackHelperT@AEBV?$shared_ptr@$$CBU?$Path_@V?$allocator@X@std@@@nav_msgs@@@boost@@X@ros@@@1@Usp_empty@detail@1@@Z
	??$?0V?$SubscriptionCallbackHelperT@AEBV?$shared_ptr@$$CBU?$Path_@V?$allocator@X@std@@@nav_msgs@@@boost@@X@ros@@U?$sp_inplace_tag@V?$sp_ms_deleter@V?$SubscriptionCallbackHelperT@AEBV?$shared_ptr@$$CBU?$Path_@V?$allocator@X@std@@@nav_msgs@@@boost@@X@ros@@@detail@boost@@@detail@boost@@@?$shared_ptr@V?$SubscriptionCallbackHelperT@AEBV?$shared_ptr@$$CBU?$Path_@V?$allocator@X@std@@@nav_msgs@@@boost@@X@ros@@@boost@@QEAA@PEAV?$SubscriptionCallbackHelperT@AEBV?$shared_ptr@$$CBU?$Path_@V?$allocator@X@std@@@nav_msgs@@@boost@@X@ros@@U?$sp_inplace_tag@V?$sp_ms_deleter@V?$SubscriptionCallbackHelperT@AEBV?$shared_ptr@$$CBU?$Path_@V?$allocator@X@std@@@nav_msgs@@@boost@@X@ros@@@detail@boost@@@detail@1@@Z
	??$?0V?$SubscriptionCallbackHelperT@AEBV?$shared_ptr@$$CBU?$PointStamped_@V?$allocator@X@std@@@geometry_msgs@@@boost@@X@ros@@@?$shared_ptr@V?$SubscriptionCallbackHelperT@AEBV?$shared_ptr@$$CBU?$PointStamped_@V?$allocator@X@std@@@geometry_msgs@@@boost@@X@ros@@@boost@@QEAA@AEBV01@PEAV?$SubscriptionCallbackHelperT@AEBV?$shared_ptr@$$CBU?$PointStamped_@V?$allocator@X@std@@@geometry_msgs@@@boost@@X@ros@@@Z
	??$?0V?$SubscriptionCallbackHelperT@AEBV?$shared_ptr@$$CBU?$PointStamped_@V?$allocator@X@std@@@geometry_msgs@@@boost@@X@ros@@@?$shared_ptr@VSubscriptionCallbackHelper@ros@@@boost@@QEAA@$$QEAV?$shared_ptr@V?$SubscriptionCallbackHelperT@AEBV?$shared_ptr@$$CBU?$PointStamped_@V?$allocator@X@std@@@geometry_msgs@@@boost@@X@ros@@@1@Usp_empty@detail@1@@Z
	??$?0V?$SubscriptionCallbackHelperT@AEBV?$shared_ptr@$$CBU?$PointStamped_@V?$allocator@X@std@@@geometry_msgs@@@boost@@X@ros@@U?$sp_inplace_tag@V?$sp_ms_deleter@V?$SubscriptionCallbackHelperT@AEBV?$shared_ptr@$$CBU?$PointStamped_@V?$allocator@X@std@@@geometry_msgs@@@boost@@X@ros@@@detail@boost@@@detail@boost@@@?$shared_ptr@V?$SubscriptionCallbackHelperT@AEBV?$shared_ptr@$$CBU?$PointStamped_@V?$allocator@X@std@@@geometry_msgs@@@boost@@X@ros@@@boost@@QEAA@PEAV?$SubscriptionCallbackHelperT@AEBV?$shared_ptr@$$CBU?$PointStamped_@V?$allocator@X@std@@@geometry_msgs@@@boost@@X@ros@@U?$sp_inplace_tag@V?$sp_ms_deleter@V?$SubscriptionCallbackHelperT@AEBV?$shared_ptr@$$CBU?$PointStamped_@V?$allocator@X@std@@@geometry_msgs@@@boost@@X@ros@@@detail@boost@@@detail@1@@Z
	??$?0V?$allocator@D@std@@$$V@?$_Compressed_pair@V?$allocator@D@std@@V?$_String_val@U?$_Simple_types@D@std@@@2@$00@std@@QEAA@U_One_then_variadic_args_t@1@$$QEAV?$allocator@D@1@@Z
	??$?0V?$allocator@U?$ColorRGBA_@V?$allocator@X@std@@@std_msgs@@@std@@$$V@?$_Compressed_pair@V?$allocator@U?$ColorRGBA_@V?$allocator@X@std@@@std_msgs@@@std@@V?$_Vector_val@U?$_Simple_types@U?$ColorRGBA_@V?$allocator@X@std@@@std_msgs@@@std@@@2@$00@std@@QEAA@U_One_then_variadic_args_t@1@$$QEAV?$allocator@U?$ColorRGBA_@V?$allocator@X@std@@@std_msgs@@@1@@Z
	??$?0V?$allocator@U?$ColorRGBA_@V?$allocator@X@std@@@std_msgs@@@std@@PEAU?$ColorRGBA_@V?$allocator@X@std@@@std_msgs@@PEAU23@PEAU23@@?$_Compressed_pair@V?$allocator@U?$ColorRGBA_@V?$allocator@X@std@@@std_msgs@@@std@@V?$_Vector_val@U?$_Simple_types@U?$ColorRGBA_@V?$allocator@X@std@@@std_msgs@@@std@@@2@$00@std@@QEAA@U_One_then_variadic_args_t@1@$$QEAV?$allocator@U?$ColorRGBA_@V?$allocator@X@std@@@std_msgs@@@1@$$QEAPEAU?$ColorRGBA_@V?$allocator@X@std@@@std_msgs@@22@Z
	??$?0V?$allocator@U?$Point_@V?$allocator@X@std@@@geometry_msgs@@@std@@$$V@?$_Compressed_pair@V?$allocator@U?$Point_@V?$allocator@X@std@@@geometry_msgs@@@std@@V?$_Vector_val@U?$_Simple_types@U?$Point_@V?$allocator@X@std@@@geometry_msgs@@@std@@@2@$00@std@@QEAA@U_One_then_variadic_args_t@1@$$QEAV?$allocator@U?$Point_@V?$allocator@X@std@@@geometry_msgs@@@1@@Z
	??$?0V?$allocator@U?$Point_@V?$allocator@X@std@@@geometry_msgs@@@std@@PEAU?$Point_@V?$allocator@X@std@@@geometry_msgs@@PEAU23@PEAU23@@?$_Compressed_pair@V?$allocator@U?$Point_@V?$allocator@X@std@@@geometry_msgs@@@std@@V?$_Vector_val@U?$_Simple_types@U?$Point_@V?$allocator@X@std@@@geometry_msgs@@@std@@@2@$00@std@@QEAA@U_One_then_variadic_args_t@1@$$QEAV?$allocator@U?$Point_@V?$allocator@X@std@@@geometry_msgs@@@1@$$QEAPEAU?$Point_@V?$allocator@X@std@@@geometry_msgs@@22@Z
	??$?0V?$bind_t@VSerializedMessage@ros@@P6A?AV12@AEBU?$MarkerArray_@V?$allocator@X@std@@@visualization_msgs@@@ZV?$list1@V?$reference_wrapper@$$CBU?$MarkerArray_@V?$allocator@X@std@@@visualization_msgs@@@boost@@@_bi@boost@@@_bi@boost@@@?$function0@VSerializedMessage@ros@@@boost@@QEAA@V?$bind_t@VSerializedMessage@ros@@P6A?AV12@AEBU?$MarkerArray_@V?$allocator@X@std@@@visualization_msgs@@@ZV?$list1@V?$reference_wrapper@$$CBU?$MarkerArray_@V?$allocator@X@std@@@visualization_msgs@@@boost@@@_bi@boost@@@_bi@1@H@Z
	??$?0V?$bind_t@VSerializedMessage@ros@@P6A?AV12@AEBU?$MarkerArray_@V?$allocator@X@std@@@visualization_msgs@@@ZV?$list1@V?$reference_wrapper@$$CBU?$MarkerArray_@V?$allocator@X@std@@@visualization_msgs@@@boost@@@_bi@boost@@@_bi@boost@@@?$function@$$A6A?AVSerializedMessage@ros@@XZ@boost@@QEAA@V?$bind_t@VSerializedMessage@ros@@P6A?AV12@AEBU?$MarkerArray_@V?$allocator@X@std@@@visualization_msgs@@@ZV?$list1@V?$reference_wrapper@$$CBU?$MarkerArray_@V?$allocator@X@std@@@visualization_msgs@@@boost@@@_bi@boost@@@_bi@1@H@Z
	??$?0V?$bind_t@VSerializedMessage@ros@@P6A?AV12@AEBU?$Path_@V?$allocator@X@std@@@nav_msgs@@@ZV?$list1@V?$reference_wrapper@$$CBU?$Path_@V?$allocator@X@std@@@nav_msgs@@@boost@@@_bi@boost@@@_bi@boost@@@?$function0@VSerializedMessage@ros@@@boost@@QEAA@V?$bind_t@VSerializedMessage@ros@@P6A?AV12@AEBU?$Path_@V?$allocator@X@std@@@nav_msgs@@@ZV?$list1@V?$reference_wrapper@$$CBU?$Path_@V?$allocator@X@std@@@nav_msgs@@@boost@@@_bi@boost@@@_bi@1@H@Z
	??$?0V?$bind_t@VSerializedMessage@ros@@P6A?AV12@AEBU?$Path_@V?$allocator@X@std@@@nav_msgs@@@ZV?$list1@V?$reference_wrapper@$$CBU?$Path_@V?$allocator@X@std@@@nav_msgs@@@boost@@@_bi@boost@@@_bi@boost@@@?$function@$$A6A?AVSerializedMessage@ros@@XZ@boost@@QEAA@V?$bind_t@VSerializedMessage@ros@@P6A?AV12@AEBU?$Path_@V?$allocator@X@std@@@nav_msgs@@@ZV?$list1@V?$reference_wrapper@$$CBU?$Path_@V?$allocator@X@std@@@nav_msgs@@@boost@@@_bi@boost@@@_bi@1@H@Z
	??$?0V?$bind_t@VSerializedMessage@ros@@P6A?AV12@AEBU?$PoseStamped_@V?$allocator@X@std@@@geometry_msgs@@@ZV?$list1@V?$reference_wrapper@$$CBU?$PoseStamped_@V?$allocator@X@std@@@geometry_msgs@@@boost@@@_bi@boost@@@_bi@boost@@@?$function0@VSerializedMessage@ros@@@boost@@QEAA@V?$bind_t@VSerializedMessage@ros@@P6A?AV12@AEBU?$PoseStamped_@V?$allocator@X@std@@@geometry_msgs@@@ZV?$list1@V?$reference_wrapper@$$CBU?$PoseStamped_@V?$allocator@X@std@@@geometry_msgs@@@boost@@@_bi@boost@@@_bi@1@H@Z
	??$?0V?$bind_t@VSerializedMessage@ros@@P6A?AV12@AEBU?$PoseStamped_@V?$allocator@X@std@@@geometry_msgs@@@ZV?$list1@V?$reference_wrapper@$$CBU?$PoseStamped_@V?$allocator@X@std@@@geometry_msgs@@@boost@@@_bi@boost@@@_bi@boost@@@?$function@$$A6A?AVSerializedMessage@ros@@XZ@boost@@QEAA@V?$bind_t@VSerializedMessage@ros@@P6A?AV12@AEBU?$PoseStamped_@V?$allocator@X@std@@@geometry_msgs@@@ZV?$list1@V?$reference_wrapper@$$CBU?$PoseStamped_@V?$allocator@X@std@@@geometry_msgs@@@boost@@@_bi@boost@@@_bi@1@H@Z
	??$?0V?$bind_t@XV?$mf1@XVWaypointGlobalPlanner@waypoint_global_planner@@AEBV?$shared_ptr@$$CBU?$Path_@V?$allocator@X@std@@@nav_msgs@@@boost@@@_mfi@boost@@V?$list2@V?$value@PEAVWaypointGlobalPlanner@waypoint_global_planner@@@_bi@boost@@U?$arg@$00@3@@_bi@3@@_bi@boost@@@?$function1@XAEBV?$shared_ptr@$$CBU?$Path_@V?$allocator@X@std@@@nav_msgs@@@boost@@@boost@@QEAA@V?$bind_t@XV?$mf1@XVWaypointGlobalPlanner@waypoint_global_planner@@AEBV?$shared_ptr@$$CBU?$Path_@V?$allocator@X@std@@@nav_msgs@@@boost@@@_mfi@boost@@V?$list2@V?$value@PEAVWaypointGlobalPlanner@waypoint_global_planner@@@_bi@boost@@U?$arg@$00@3@@_bi@3@@_bi@1@H@Z
	??$?0V?$bind_t@XV?$mf1@XVWaypointGlobalPlanner@waypoint_global_planner@@AEBV?$shared_ptr@$$CBU?$Path_@V?$allocator@X@std@@@nav_msgs@@@boost@@@_mfi@boost@@V?$list2@V?$value@PEAVWaypointGlobalPlanner@waypoint_global_planner@@@_bi@boost@@U?$arg@$00@3@@_bi@3@@_bi@boost@@@?$function@$$A6AXAEBV?$shared_ptr@$$CBU?$Path_@V?$allocator@X@std@@@nav_msgs@@@boost@@@Z@boost@@QEAA@V?$bind_t@XV?$mf1@XVWaypointGlobalPlanner@waypoint_global_planner@@AEBV?$shared_ptr@$$CBU?$Path_@V?$allocator@X@std@@@nav_msgs@@@boost@@@_mfi@boost@@V?$list2@V?$value@PEAVWaypointGlobalPlanner@waypoint_global_planner@@@_bi@boost@@U?$arg@$00@3@@_bi@3@@_bi@1@H@Z
	??$?0V?$bind_t@XV?$mf1@XVWaypointGlobalPlanner@waypoint_global_planner@@AEBV?$shared_ptr@$$CBU?$PointStamped_@V?$allocator@X@std@@@geometry_msgs@@@boost@@@_mfi@boost@@V?$list2@V?$value@PEAVWaypointGlobalPlanner@waypoint_global_planner@@@_bi@boost@@U?$arg@$00@3@@_bi@3@@_bi@boost@@@?$function1@XAEBV?$shared_ptr@$$CBU?$PointStamped_@V?$allocator@X@std@@@geometry_msgs@@@boost@@@boost@@QEAA@V?$bind_t@XV?$mf1@XVWaypointGlobalPlanner@waypoint_global_planner@@AEBV?$shared_ptr@$$CBU?$PointStamped_@V?$allocator@X@std@@@geometry_msgs@@@boost@@@_mfi@boost@@V?$list2@V?$value@PEAVWaypointGlobalPlanner@waypoint_global_planner@@@_bi@boost@@U?$arg@$00@3@@_bi@3@@_bi@1@H@Z
	??$?0V?$bind_t@XV?$mf1@XVWaypointGlobalPlanner@waypoint_global_planner@@AEBV?$shared_ptr@$$CBU?$PointStamped_@V?$allocator@X@std@@@geometry_msgs@@@boost@@@_mfi@boost@@V?$list2@V?$value@PEAVWaypointGlobalPlanner@waypoint_global_planner@@@_bi@boost@@U?$arg@$00@3@@_bi@3@@_bi@boost@@@?$function@$$A6AXAEBV?$shared_ptr@$$CBU?$PointStamped_@V?$allocator@X@std@@@geometry_msgs@@@boost@@@Z@boost@@QEAA@V?$bind_t@XV?$mf1@XVWaypointGlobalPlanner@waypoint_global_planner@@AEBV?$shared_ptr@$$CBU?$PointStamped_@V?$allocator@X@std@@@geometry_msgs@@@boost@@@_mfi@boost@@V?$list2@V?$value@PEAVWaypointGlobalPlanner@waypoint_global_planner@@@_bi@boost@@U?$arg@$00@3@@_bi@3@@_bi@1@H@Z
	??$?0V?$clone_impl@Ubad_alloc_@exception_detail@boost@@@exception_detail@boost@@@?$shared_ptr@$$CBVclone_base@exception_detail@boost@@@boost@@QEAA@PEAV?$clone_impl@Ubad_alloc_@exception_detail@boost@@@exception_detail@1@@Z
	??$?0V?$clone_impl@Ubad_alloc_@exception_detail@boost@@@exception_detail@boost@@@shared_count@detail@boost@@QEAA@PEAV?$clone_impl@Ubad_alloc_@exception_detail@boost@@@exception_detail@2@@Z
	??$?0V?$clone_impl@Ubad_exception_@exception_detail@boost@@@exception_detail@boost@@@?$shared_ptr@$$CBVclone_base@exception_detail@boost@@@boost@@QEAA@PEAV?$clone_impl@Ubad_exception_@exception_detail@boost@@@exception_detail@1@@Z
	??$?0V?$clone_impl@Ubad_exception_@exception_detail@boost@@@exception_detail@boost@@@shared_count@detail@boost@@QEAA@PEAV?$clone_impl@Ubad_exception_@exception_detail@boost@@@exception_detail@2@@Z
	??$?0V?$function@$$A6AXAEBV?$shared_ptr@$$CBU?$Path_@V?$allocator@X@std@@@nav_msgs@@@boost@@@Z@boost@@@?$function1@XV?$shared_ptr@$$CBU?$Path_@V?$allocator@X@std@@@nav_msgs@@@boost@@@boost@@QEAA@V?$function@$$A6AXAEBV?$shared_ptr@$$CBU?$Path_@V?$allocator@X@std@@@nav_msgs@@@boost@@@Z@1@H@Z
	??$?0V?$function@$$A6AXAEBV?$shared_ptr@$$CBU?$Path_@V?$allocator@X@std@@@nav_msgs@@@boost@@@Z@boost@@@?$function@$$A6AXV?$shared_ptr@$$CBU?$Path_@V?$allocator@X@std@@@nav_msgs@@@boost@@@Z@boost@@QEAA@V?$function@$$A6AXAEBV?$shared_ptr@$$CBU?$Path_@V?$allocator@X@std@@@nav_msgs@@@boost@@@Z@1@H@Z
	??$?0V?$function@$$A6AXAEBV?$shared_ptr@$$CBU?$PointStamped_@V?$allocator@X@std@@@geometry_msgs@@@boost@@@Z@boost@@@?$function1@XV?$shared_ptr@$$CBU?$PointStamped_@V?$allocator@X@std@@@geometry_msgs@@@boost@@@boost@@QEAA@V?$function@$$A6AXAEBV?$shared_ptr@$$CBU?$PointStamped_@V?$allocator@X@std@@@geometry_msgs@@@boost@@@Z@1@H@Z
	??$?0V?$function@$$A6AXAEBV?$shared_ptr@$$CBU?$PointStamped_@V?$allocator@X@std@@@geometry_msgs@@@boost@@@Z@boost@@@?$function@$$A6AXV?$shared_ptr@$$CBU?$PointStamped_@V?$allocator@X@std@@@geometry_msgs@@@boost@@@Z@boost@@QEAA@V?$function@$$A6AXAEBV?$shared_ptr@$$CBU?$PointStamped_@V?$allocator@X@std@@@geometry_msgs@@@boost@@@Z@1@H@Z
	??$?0V?$tuple@AEBV?$basic_string@DU?$char_traits@D@std@@V?$allocator@D@2@@std@@@std@@V?$tuple@$$V@1@$0A@$$Z$S@?$pair@$$CBV?$basic_string@DU?$char_traits@D@std@@V?$allocator@D@2@@std@@PEAVAbstractMetaObjectBase@impl@class_loader@@@std@@QEAA@AEAV?$tuple@AEBV?$basic_string@DU?$char_traits@D@std@@V?$allocator@D@2@@std@@@1@AEAV?$tuple@$$V@1@U?$integer_sequence@_K$0A@@1@U?$integer_sequence@_K$S@1@@Z
	??$?0X@?$shared_ptr@$$CBX@boost@@QEAA@$$QEAV?$shared_ptr@X@1@Usp_empty@detail@1@@Z
	??$?4V?$SubscriptionCallbackHelperT@AEBV?$shared_ptr@$$CBU?$Path_@V?$allocator@X@std@@@nav_msgs@@@boost@@X@ros@@@?$shared_ptr@VSubscriptionCallbackHelper@ros@@@boost@@QEAAAEAV01@$$QEAV?$shared_ptr@V?$SubscriptionCallbackHelperT@AEBV?$shared_ptr@$$CBU?$Path_@V?$allocator@X@std@@@nav_msgs@@@boost@@X@ros@@@1@@Z
	??$?4V?$SubscriptionCallbackHelperT@AEBV?$shared_ptr@$$CBU?$PointStamped_@V?$allocator@X@std@@@geometry_msgs@@@boost@@X@ros@@@?$shared_ptr@VSubscriptionCallbackHelper@ros@@@boost@@QEAAAEAV01@$$QEAV?$shared_ptr@V?$SubscriptionCallbackHelperT@AEBV?$shared_ptr@$$CBU?$PointStamped_@V?$allocator@X@std@@@geometry_msgs@@@boost@@X@ros@@@1@@Z
	??$?6V?$clone_impl@Ubad_alloc_@exception_detail@boost@@@exception_detail@boost@@Uthrow_file_@2@PEBD@boost@@YAAEBV?$clone_impl@Ubad_alloc_@exception_detail@boost@@@exception_detail@0@AEBV120@$$QEAV?$error_info@Uthrow_file_@boost@@PEBD@0@@Z
	??$?6V?$clone_impl@Ubad_alloc_@exception_detail@boost@@@exception_detail@boost@@Uthrow_function_@2@PEBD@boost@@YAAEBV?$clone_impl@Ubad_alloc_@exception_detail@boost@@@exception_detail@0@AEBV120@$$QEAV?$error_info@Uthrow_function_@boost@@PEBD@0@@Z
	??$?6V?$clone_impl@Ubad_alloc_@exception_detail@boost@@@exception_detail@boost@@Uthrow_line_@2@H@boost@@YAAEBV?$clone_impl@Ubad_alloc_@exception_detail@boost@@@exception_detail@0@AEBV120@$$QEAV?$error_info@Uthrow_line_@boost@@H@0@@Z
	??$?6V?$clone_impl@Ubad_exception_@exception_detail@boost@@@exception_detail@boost@@Uthrow_file_@2@PEBD@boost@@YAAEBV?$clone_impl@Ubad_exception_@exception_detail@boost@@@exception_detail@0@AEBV120@$$QEAV?$error_info@Uthrow_file_@boost@@PEBD@0@@Z
	??$?6V?$clone_impl@Ubad_exception_@exception_detail@boost@@@exception_detail@boost@@Uthrow_function_@2@PEBD@boost@@YAAEBV?$clone_impl@Ubad_exception_@exception_detail@boost@@@exception_detail@0@AEBV120@$$QEAV?$error_info@Uthrow_function_@boost@@PEBD@0@@Z
	??$?6V?$clone_impl@Ubad_exception_@exception_detail@boost@@@exception_detail@boost@@Uthrow_line_@2@H@boost@@YAAEBV?$clone_impl@Ubad_exception_@exception_detail@boost@@@exception_detail@0@AEBV120@$$QEAV?$error_info@Uthrow_line_@boost@@H@0@@Z
	??$?8Vstl_type_index@typeindex@boost@@Vtype_info@@@typeindex@boost@@YA_NAEBV?$type_index_facade@Vstl_type_index@typeindex@boost@@Vtype_info@@@01@0@Z
	??$?8Vstl_type_index@typeindex@boost@@Vtype_info@@@typeindex@boost@@YA_NAEBVtype_info@@AEBV?$type_index_facade@Vstl_type_index@typeindex@boost@@Vtype_info@@@01@@Z
	??$?A$$CBU?$MarkerArray_@V?$allocator@X@std@@@visualization_msgs@@@list0@_bi@boost@@QEBAAEBU?$MarkerArray_@V?$allocator@X@std@@@visualization_msgs@@AEBV?$reference_wrapper@$$CBU?$MarkerArray_@V?$allocator@X@std@@@visualization_msgs@@@2@@Z
	??$?A$$CBU?$Path_@V?$allocator@X@std@@@nav_msgs@@@list0@_bi@boost@@QEBAAEBU?$Path_@V?$allocator@X@std@@@nav_msgs@@AEBV?$reference_wrapper@$$CBU?$Path_@V?$allocator@X@std@@@nav_msgs@@@2@@Z
	??$?A$$CBU?$PoseStamped_@V?$allocator@X@std@@@geometry_msgs@@@list0@_bi@boost@@QEBAAEBU?$PoseStamped_@V?$allocator@X@std@@@geometry_msgs@@AEBV?$reference_wrapper@$$CBU?$PoseStamped_@V?$allocator@X@std@@@geometry_msgs@@@2@@Z
	??$?APEAVWaypointGlobalPlanner@waypoint_global_planner@@@?$rrlist1@AEBV?$shared_ptr@$$CBU?$Path_@V?$allocator@X@std@@@nav_msgs@@@boost@@@_bi@boost@@QEBAAEAPEAVWaypointGlobalPlanner@waypoint_global_planner@@AEAV?$value@PEAVWaypointGlobalPlanner@waypoint_global_planner@@@12@@Z
	??$?APEAVWaypointGlobalPlanner@waypoint_global_planner@@@?$rrlist1@AEBV?$shared_ptr@$$CBU?$PointStamped_@V?$allocator@X@std@@@geometry_msgs@@@boost@@@_bi@boost@@QEBAAEAPEAVWaypointGlobalPlanner@waypoint_global_planner@@AEAV?$value@PEAVWaypointGlobalPlanner@waypoint_global_planner@@@12@@Z
	??$?HDU?$char_traits@D@std@@V?$allocator@D@1@@std@@YA?AV?$basic_string@DU?$char_traits@D@std@@V?$allocator@D@2@@0@QEBDAEBV10@@Z
	??$?MDU?$char_traits@D@std@@V?$allocator@D@1@@std@@YA_NAEBV?$basic_string@DU?$char_traits@D@std@@V?$allocator@D@2@@0@0@Z
	??$?RAEBV?$shared_ptr@$$CBU?$Path_@V?$allocator@X@std@@@nav_msgs@@@boost@@@?$bind_t@XV?$mf1@XVWaypointGlobalPlanner@waypoint_global_planner@@AEBV?$shared_ptr@$$CBU?$Path_@V?$allocator@X@std@@@nav_msgs@@@boost@@@_mfi@boost@@V?$list2@V?$value@PEAVWaypointGlobalPlanner@waypoint_global_planner@@@_bi@boost@@U?$arg@$00@3@@_bi@3@@_bi@boost@@QEAAXAEBV?$shared_ptr@$$CBU?$Path_@V?$allocator@X@std@@@nav_msgs@@@2@@Z
	??$?RAEBV?$shared_ptr@$$CBU?$PointStamped_@V?$allocator@X@std@@@geometry_msgs@@@boost@@@?$bind_t@XV?$mf1@XVWaypointGlobalPlanner@waypoint_global_planner@@AEBV?$shared_ptr@$$CBU?$PointStamped_@V?$allocator@X@std@@@geometry_msgs@@@boost@@@_mfi@boost@@V?$list2@V?$value@PEAVWaypointGlobalPlanner@waypoint_global_planner@@@_bi@boost@@U?$arg@$00@3@@_bi@3@@_bi@boost@@QEAAXAEBV?$shared_ptr@$$CBU?$PointStamped_@V?$allocator@X@std@@@geometry_msgs@@@2@@Z
	??$?RV?$mf1@XVWaypointGlobalPlanner@waypoint_global_planner@@AEBV?$shared_ptr@$$CBU?$Path_@V?$allocator@X@std@@@nav_msgs@@@boost@@@_mfi@boost@@V?$rrlist1@AEBV?$shared_ptr@$$CBU?$Path_@V?$allocator@X@std@@@nav_msgs@@@boost@@@_bi@2@@?$list2@V?$value@PEAVWaypointGlobalPlanner@waypoint_global_planner@@@_bi@boost@@U?$arg@$00@3@@_bi@boost@@QEAAXV?$type@X@12@AEAV?$mf1@XVWaypointGlobalPlanner@waypoint_global_planner@@AEBV?$shared_ptr@$$CBU?$Path_@V?$allocator@X@std@@@nav_msgs@@@boost@@@_mfi@2@AEAV?$rrlist1@AEBV?$shared_ptr@$$CBU?$Path_@V?$allocator@X@std@@@nav_msgs@@@boost@@@12@H@Z
	??$?RV?$mf1@XVWaypointGlobalPlanner@waypoint_global_planner@@AEBV?$shared_ptr@$$CBU?$PointStamped_@V?$allocator@X@std@@@geometry_msgs@@@boost@@@_mfi@boost@@V?$rrlist1@AEBV?$shared_ptr@$$CBU?$PointStamped_@V?$allocator@X@std@@@geometry_msgs@@@boost@@@_bi@2@@?$list2@V?$value@PEAVWaypointGlobalPlanner@waypoint_global_planner@@@_bi@boost@@U?$arg@$00@3@@_bi@boost@@QEAAXV?$type@X@12@AEAV?$mf1@XVWaypointGlobalPlanner@waypoint_global_planner@@AEBV?$shared_ptr@$$CBU?$PointStamped_@V?$allocator@X@std@@@geometry_msgs@@@boost@@@_mfi@2@AEAV?$rrlist1@AEBV?$shared_ptr@$$CBU?$PointStamped_@V?$allocator@X@std@@@geometry_msgs@@@boost@@@12@H@Z
	??$?RVSerializedMessage@ros@@P6A?AV01@AEBU?$MarkerArray_@V?$allocator@X@std@@@visualization_msgs@@@ZVlist0@_bi@boost@@@?$list1@V?$reference_wrapper@$$CBU?$MarkerArray_@V?$allocator@X@std@@@visualization_msgs@@@boost@@@_bi@boost@@QEAA?AVSerializedMessage@ros@@V?$type@VSerializedMessage@ros@@@12@AEAP6A?AV34@AEBU?$MarkerArray_@V?$allocator@X@std@@@visualization_msgs@@@ZAEAVlist0@12@J@Z
	??$?RVSerializedMessage@ros@@P6A?AV01@AEBU?$Path_@V?$allocator@X@std@@@nav_msgs@@@ZVlist0@_bi@boost@@@?$list1@V?$reference_wrapper@$$CBU?$Path_@V?$allocator@X@std@@@nav_msgs@@@boost@@@_bi@boost@@QEAA?AVSerializedMessage@ros@@V?$type@VSerializedMessage@ros@@@12@AEAP6A?AV34@AEBU?$Path_@V?$allocator@X@std@@@nav_msgs@@@ZAEAVlist0@12@J@Z
	??$?RVSerializedMessage@ros@@P6A?AV01@AEBU?$PoseStamped_@V?$allocator@X@std@@@geometry_msgs@@@ZVlist0@_bi@boost@@@?$list1@V?$reference_wrapper@$$CBU?$PoseStamped_@V?$allocator@X@std@@@geometry_msgs@@@boost@@@_bi@boost@@QEAA?AVSerializedMessage@ros@@V?$type@VSerializedMessage@ros@@@12@AEAP6A?AV34@AEBU?$PoseStamped_@V?$allocator@X@std@@@geometry_msgs@@@ZAEAVlist0@12@J@Z
	??$_Adl_verify_range@V?$_Vector_iterator@V?$_Vector_val@U?$_Simple_types@U?$PoseStamped_@V?$allocator@X@std@@@geometry_msgs@@@std@@@std@@@std@@V12@@std@@YAXAEBV?$_Vector_iterator@V?$_Vector_val@U?$_Simple_types@U?$PoseStamped_@V?$allocator@X@std@@@geometry_msgs@@@std@@@std@@@0@0@Z
	??$_Allocate@$0BA@U_Default_allocate_traits@std@@$0A@@std@@YAPEAX_K@Z
	??$_Allocate_at_least_helper@V?$allocator@D@std@@@std@@YAPEADAEAV?$allocator@D@0@AEA_K@Z
	??$_Allocate_at_least_helper@V?$allocator@U?$ColorRGBA_@V?$allocator@X@std@@@std_msgs@@@std@@@std@@YAPEAU?$ColorRGBA_@V?$allocator@X@std@@@std_msgs@@AEAV?$allocator@U?$ColorRGBA_@V?$allocator@X@std@@@std_msgs@@@0@AEA_K@Z
	??$_Allocate_at_least_helper@V?$allocator@U?$Marker_@V?$allocator@X@std@@@visualization_msgs@@@std@@@std@@YAPEAU?$Marker_@V?$allocator@X@std@@@visualization_msgs@@AEAV?$allocator@U?$Marker_@V?$allocator@X@std@@@visualization_msgs@@@0@AEA_K@Z
	??$_Allocate_at_least_helper@V?$allocator@U?$Point_@V?$allocator@X@std@@@geometry_msgs@@@std@@@std@@YAPEAU?$Point_@V?$allocator@X@std@@@geometry_msgs@@AEAV?$allocator@U?$Point_@V?$allocator@X@std@@@geometry_msgs@@@0@AEA_K@Z
	??$_Allocate_at_least_helper@V?$allocator@U?$PoseStamped_@V?$allocator@X@std@@@geometry_msgs@@@std@@@std@@YAPEAU?$PoseStamped_@V?$allocator@X@std@@@geometry_msgs@@AEAV?$allocator@U?$PoseStamped_@V?$allocator@X@std@@@geometry_msgs@@@0@AEA_K@Z
	??$_Allocate_for_capacity@$0A@@?$basic_string@DU?$char_traits@D@std@@V?$allocator@D@2@@std@@CAPEADAEAV?$allocator@D@1@AEA_K@Z
	??$_Allocate_manually_vector_aligned@U_Default_allocate_traits@std@@@std@@YAPEAX_K@Z
	??$_Assign_counted_range@PEAU?$PoseStamped_@V?$allocator@X@std@@@geometry_msgs@@@?$vector@U?$PoseStamped_@V?$allocator@X@std@@@geometry_msgs@@V?$allocator@U?$PoseStamped_@V?$allocator@X@std@@@geometry_msgs@@@std@@@std@@AEAAXPEAU?$PoseStamped_@V?$allocator@X@std@@@geometry_msgs@@_K@Z
	??$_Atomic_address_as@JU?$_Atomic_padded@H@std@@@std@@YAPECJAEAU?$_Atomic_padded@H@0@@Z
	??$_Buyheadnode@V?$allocator@U?$_Tree_node@U?$pair@$$CBV?$basic_string@DU?$char_traits@D@std@@V?$allocator@D@2@@std@@V12@@std@@PEAX@std@@@std@@@?$_Tree_node@U?$pair@$$CBV?$basic_string@DU?$char_traits@D@std@@V?$allocator@D@2@@std@@V12@@std@@PEAX@std@@SAPEAU01@AEAV?$allocator@U?$_Tree_node@U?$pair@$$CBV?$basic_string@DU?$char_traits@D@std@@V?$allocator@D@2@@std@@V12@@std@@PEAX@std@@@1@@Z
	??$_Construct@$00PEBD@?$basic_string@DU?$char_traits@D@std@@V?$allocator@D@2@@std@@AEAAXQEBD_K@Z
	??$_Construct@$01PEBD@?$basic_string@DU?$char_traits@D@std@@V?$allocator@D@2@@std@@AEAAXQEBD_K@Z
	??$_Construct_in_place@PEADAEAPEAD@std@@YAXAEAPEAD0@Z
	??$_Construct_in_place@PEADAEBQEAD@std@@YAXAEAPEADAEBQEAD@Z
	??$_Construct_in_place@PEAU?$_Tree_node@U?$pair@$$CBV?$basic_string@DU?$char_traits@D@std@@V?$allocator@D@2@@std@@PEAVAbstractMetaObjectBase@impl@class_loader@@@std@@PEAX@std@@AEAPEAU12@@std@@YAXAEAPEAU?$_Tree_node@U?$pair@$$CBV?$basic_string@DU?$char_traits@D@std@@V?$allocator@D@2@@std@@PEAVAbstractMetaObjectBase@impl@class_loader@@@std@@PEAX@0@0@Z
	??$_Construct_in_place@PEAU?$_Tree_node@U?$pair@$$CBV?$basic_string@DU?$char_traits@D@std@@V?$allocator@D@2@@std@@V12@@std@@PEAX@std@@AEBQEAU12@@std@@YAXAEAPEAU?$_Tree_node@U?$pair@$$CBV?$basic_string@DU?$char_traits@D@std@@V?$allocator@D@2@@std@@V12@@std@@PEAX@0@AEBQEAU10@@Z
	??$_Construct_in_place@U?$PoseStamped_@V?$allocator@X@std@@@geometry_msgs@@U12@@std@@YAXAEAU?$PoseStamped_@V?$allocator@X@std@@@geometry_msgs@@$$QEAU12@@Z
	??$_Construct_n@AEBQEAU?$ColorRGBA_@V?$allocator@X@std@@@std_msgs@@AEBQEAU12@@?$vector@U?$ColorRGBA_@V?$allocator@X@std@@@std_msgs@@V?$allocator@U?$ColorRGBA_@V?$allocator@X@std@@@std_msgs@@@std@@@std@@AEAAX_KAEBQEAU?$ColorRGBA_@V?$allocator@X@std@@@std_msgs@@1@Z
	??$_Construct_n@AEBQEAU?$Point_@V?$allocator@X@std@@@geometry_msgs@@AEBQEAU12@@?$vector@U?$Point_@V?$allocator@X@std@@@geometry_msgs@@V?$allocator@U?$Point_@V?$allocator@X@std@@@geometry_msgs@@@std@@@std@@AEAAX_KAEBQEAU?$Point_@V?$allocator@X@std@@@geometry_msgs@@1@Z
	??$_Convert_size@_K_K@std@@YA_K_K@Z
	??$_Copy_memmove@PEAU?$ColorRGBA_@V?$allocator@X@std@@@std_msgs@@PEAU12@@std@@YAPEAU?$ColorRGBA_@V?$allocator@X@std@@@std_msgs@@PEAU12@00@Z
	??$_Copy_memmove@PEAU?$Point_@V?$allocator@X@std@@@geometry_msgs@@PEAU12@@std@@YAPEAU?$Point_@V?$allocator@X@std@@@geometry_msgs@@PEAU12@00@Z
	??$_Copy_n_unchecked4@PEAU?$PoseStamped_@V?$allocator@X@std@@@geometry_msgs@@_KPEAU12@@std@@YAPEAU?$PoseStamped_@V?$allocator@X@std@@@geometry_msgs@@PEAU12@_K0@Z
	??$_Deallocate@$0BA@$0A@@std@@YAXPEAX_K@Z
	??$_Destroy_in_place@PEAD@std@@YAXAEAPEAD@Z
	??$_Destroy_in_place@PEAU?$_Tree_node@U?$pair@$$CBV?$basic_string@DU?$char_traits@D@std@@V?$allocator@D@2@@std@@PEAVAbstractMetaObjectBase@impl@class_loader@@@std@@PEAX@std@@@std@@YAXAEAPEAU?$_Tree_node@U?$pair@$$CBV?$basic_string@DU?$char_traits@D@std@@V?$allocator@D@2@@std@@PEAVAbstractMetaObjectBase@impl@class_loader@@@std@@PEAX@0@@Z
	??$_Destroy_in_place@PEAU?$_Tree_node@U?$pair@$$CBV?$basic_string@DU?$char_traits@D@std@@V?$allocator@D@2@@std@@V12@@std@@PEAX@std@@@std@@YAXAEAPEAU?$_Tree_node@U?$pair@$$CBV?$basic_string@DU?$char_traits@D@std@@V?$allocator@D@2@@std@@V12@@std@@PEAX@0@@Z
	??$_Destroy_range@V?$allocator@U?$ColorRGBA_@V?$allocator@X@std@@@std_msgs@@@std@@@std@@YAXPEAU?$ColorRGBA_@V?$allocator@X@std@@@std_msgs@@QEAU12@AEAV?$allocator@U?$ColorRGBA_@V?$allocator@X@std@@@std_msgs@@@0@@Z
	??$_Destroy_range@V?$allocator@U?$Marker_@V?$allocator@X@std@@@visualization_msgs@@@std@@@std@@YAXPEAU?$Marker_@V?$allocator@X@std@@@visualization_msgs@@QEAU12@AEAV?$allocator@U?$Marker_@V?$allocator@X@std@@@visualization_msgs@@@0@@Z
	??$_Destroy_range@V?$allocator@U?$Point_@V?$allocator@X@std@@@geometry_msgs@@@std@@@std@@YAXPEAU?$Point_@V?$allocator@X@std@@@geometry_msgs@@QEAU12@AEAV?$allocator@U?$Point_@V?$allocator@X@std@@@geometry_msgs@@@0@@Z
	??$_Destroy_range@V?$allocator@U?$PoseStamped_@V?$allocator@X@std@@@geometry_msgs@@@std@@@std@@YAXPEAU?$PoseStamped_@V?$allocator@X@std@@@geometry_msgs@@QEAU12@AEAV?$allocator@U?$PoseStamped_@V?$allocator@X@std@@@geometry_msgs@@@0@@Z
	??$_Emplace_back@$$V@?$_Uninitialized_backout_al@V?$allocator@U?$PoseStamped_@V?$allocator@X@std@@@geometry_msgs@@@std@@@std@@QEAAXXZ
	??$_Emplace_back@AEAU?$ColorRGBA_@V?$allocator@X@std@@@std_msgs@@@?$_Uninitialized_backout_al@V?$allocator@U?$ColorRGBA_@V?$allocator@X@std@@@std_msgs@@@std@@@std@@QEAAXAEAU?$ColorRGBA_@V?$allocator@X@std@@@std_msgs@@@Z
	??$_Emplace_back@AEAU?$Point_@V?$allocator@X@std@@@geometry_msgs@@@?$_Uninitialized_backout_al@V?$allocator@U?$Point_@V?$allocator@X@std@@@geometry_msgs@@@std@@@std@@QEAAXAEAU?$Point_@V?$allocator@X@std@@@geometry_msgs@@@Z
	??$_Emplace_back@AEAU?$PoseStamped_@V?$allocator@X@std@@@geometry_msgs@@@?$_Uninitialized_backout_al@V?$allocator@U?$PoseStamped_@V?$allocator@X@std@@@geometry_msgs@@@std@@@std@@QEAAXAEAU?$PoseStamped_@V?$allocator@X@std@@@geometry_msgs@@@Z
	??$_Emplace_back@U?$Marker_@V?$allocator@X@std@@@visualization_msgs@@@?$_Uninitialized_backout_al@V?$allocator@U?$Marker_@V?$allocator@X@std@@@visualization_msgs@@@std@@@std@@QEAAX$$QEAU?$Marker_@V?$allocator@X@std@@@visualization_msgs@@@Z
	??$_Emplace_back@U?$PoseStamped_@V?$allocator@X@std@@@geometry_msgs@@@?$_Uninitialized_backout_al@V?$allocator@U?$PoseStamped_@V?$allocator@X@std@@@geometry_msgs@@@std@@@std@@QEAAX$$QEAU?$PoseStamped_@V?$allocator@X@std@@@geometry_msgs@@@Z
	??$_Emplace_back_with_unused_capacity@AEBU?$Marker_@V?$allocator@X@std@@@visualization_msgs@@@?$vector@U?$Marker_@V?$allocator@X@std@@@visualization_msgs@@V?$allocator@U?$Marker_@V?$allocator@X@std@@@visualization_msgs@@@std@@@std@@AEAAAEAU?$Marker_@V?$allocator@X@std@@@visualization_msgs@@AEBU23@@Z
	??$_Emplace_back_with_unused_capacity@AEBU?$PoseStamped_@V?$allocator@X@std@@@geometry_msgs@@@?$vector@U?$PoseStamped_@V?$allocator@X@std@@@geometry_msgs@@V?$allocator@U?$PoseStamped_@V?$allocator@X@std@@@geometry_msgs@@@std@@@std@@AEAAAEAU?$PoseStamped_@V?$allocator@X@std@@@geometry_msgs@@AEBU23@@Z
	??$_Emplace_back_with_unused_capacity@U?$PoseStamped_@V?$allocator@X@std@@@geometry_msgs@@@?$vector@U?$PoseStamped_@V?$allocator@X@std@@@geometry_msgs@@V?$allocator@U?$PoseStamped_@V?$allocator@X@std@@@geometry_msgs@@@std@@@std@@AEAAAEAU?$PoseStamped_@V?$allocator@X@std@@@geometry_msgs@@$$QEAU23@@Z
	??$_Emplace_one_at_back@AEBU?$Marker_@V?$allocator@X@std@@@visualization_msgs@@@?$vector@U?$Marker_@V?$allocator@X@std@@@visualization_msgs@@V?$allocator@U?$Marker_@V?$allocator@X@std@@@visualization_msgs@@@std@@@std@@AEAAAEAU?$Marker_@V?$allocator@X@std@@@visualization_msgs@@AEBU23@@Z
	??$_Emplace_one_at_back@AEBU?$PoseStamped_@V?$allocator@X@std@@@geometry_msgs@@@?$vector@U?$PoseStamped_@V?$allocator@X@std@@@geometry_msgs@@V?$allocator@U?$PoseStamped_@V?$allocator@X@std@@@geometry_msgs@@@std@@@std@@AEAAAEAU?$PoseStamped_@V?$allocator@X@std@@@geometry_msgs@@AEBU23@@Z
	??$_Emplace_one_at_back@U?$PoseStamped_@V?$allocator@X@std@@@geometry_msgs@@@?$vector@U?$PoseStamped_@V?$allocator@X@std@@@geometry_msgs@@V?$allocator@U?$PoseStamped_@V?$allocator@X@std@@@geometry_msgs@@@std@@@std@@AEAAAEAU?$PoseStamped_@V?$allocator@X@std@@@geometry_msgs@@$$QEAU23@@Z
	??$_Emplace_reallocate@AEBU?$Marker_@V?$allocator@X@std@@@visualization_msgs@@@?$vector@U?$Marker_@V?$allocator@X@std@@@visualization_msgs@@V?$allocator@U?$Marker_@V?$allocator@X@std@@@visualization_msgs@@@std@@@std@@AEAAPEAU?$Marker_@V?$allocator@X@std@@@visualization_msgs@@QEAU23@AEBU23@@Z
	??$_Emplace_reallocate@AEBU?$PoseStamped_@V?$allocator@X@std@@@geometry_msgs@@@?$vector@U?$PoseStamped_@V?$allocator@X@std@@@geometry_msgs@@V?$allocator@U?$PoseStamped_@V?$allocator@X@std@@@geometry_msgs@@@std@@@std@@AEAAPEAU?$PoseStamped_@V?$allocator@X@std@@@geometry_msgs@@QEAU23@AEBU23@@Z
	??$_Emplace_reallocate@U?$PoseStamped_@V?$allocator@X@std@@@geometry_msgs@@@?$vector@U?$PoseStamped_@V?$allocator@X@std@@@geometry_msgs@@V?$allocator@U?$PoseStamped_@V?$allocator@X@std@@@geometry_msgs@@@std@@@std@@AEAAPEAU?$PoseStamped_@V?$allocator@X@std@@@geometry_msgs@@QEAU23@$$QEAU23@@Z
	??$_Erase_head@V?$allocator@U?$_Tree_node@U?$pair@$$CBV?$basic_string@DU?$char_traits@D@std@@V?$allocator@D@2@@std@@V12@@std@@PEAX@std@@@std@@@?$_Tree_val@U?$_Tree_simple_types@U?$pair@$$CBV?$basic_string@DU?$char_traits@D@std@@V?$allocator@D@2@@std@@V12@@std@@@std@@@std@@QEAAXAEAV?$allocator@U?$_Tree_node@U?$pair@$$CBV?$basic_string@DU?$char_traits@D@std@@V?$allocator@D@2@@std@@V12@@std@@PEAX@std@@@1@@Z
	??$_Erase_tree@V?$allocator@U?$_Tree_node@U?$pair@$$CBV?$basic_string@DU?$char_traits@D@std@@V?$allocator@D@2@@std@@V12@@std@@PEAX@std@@@std@@@?$_Tree_val@U?$_Tree_simple_types@U?$pair@$$CBV?$basic_string@DU?$char_traits@D@std@@V?$allocator@D@2@@std@@V12@@std@@@std@@@std@@QEAAXAEAV?$allocator@U?$_Tree_node@U?$pair@$$CBV?$basic_string@DU?$char_traits@D@std@@V?$allocator@D@2@@std@@V12@@std@@PEAX@std@@@1@PEAU?$_Tree_node@U?$pair@$$CBV?$basic_string@DU?$char_traits@D@std@@V?$allocator@D@2@@std@@V12@@std@@PEAX@1@@Z
	??$_Find@V?$basic_string@DU?$char_traits@D@std@@V?$allocator@D@2@@std@@@?$_Tree@V?$_Tmap_traits@V?$basic_string@DU?$char_traits@D@std@@V?$allocator@D@2@@std@@PEAVAbstractMetaObjectBase@impl@class_loader@@U?$less@V?$basic_string@DU?$char_traits@D@std@@V?$allocator@D@2@@std@@@2@V?$allocator@U?$pair@$$CBV?$basic_string@DU?$char_traits@D@std@@V?$allocator@D@2@@std@@PEAVAbstractMetaObjectBase@impl@class_loader@@@std@@@2@$0A@@std@@@std@@AEBAPEAU?$_Tree_node@U?$pair@$$CBV?$basic_string@DU?$char_traits@D@std@@V?$allocator@D@2@@std@@PEAVAbstractMetaObjectBase@impl@class_loader@@@std@@PEAX@1@AEBV?$basic_string@DU?$char_traits@D@std@@V?$allocator@D@2@@1@@Z
	??$_Find_lower_bound@V?$basic_string@DU?$char_traits@D@std@@V?$allocator@D@2@@std@@@?$_Tree@V?$_Tmap_traits@V?$basic_string@DU?$char_traits@D@std@@V?$allocator@D@2@@std@@PEAVAbstractMetaObjectBase@impl@class_loader@@U?$less@V?$basic_string@DU?$char_traits@D@std@@V?$allocator@D@2@@std@@@2@V?$allocator@U?$pair@$$CBV?$basic_string@DU?$char_traits@D@std@@V?$allocator@D@2@@std@@PEAVAbstractMetaObjectBase@impl@class_loader@@@std@@@2@$0A@@std@@@std@@IEBA?AU?$_Tree_find_result@PEAU?$_Tree_node@U?$pair@$$CBV?$basic_string@DU?$char_traits@D@std@@V?$allocator@D@2@@std@@PEAVAbstractMetaObjectBase@impl@class_loader@@@std@@PEAX@std@@@1@AEBV?$basic_string@DU?$char_traits@D@std@@V?$allocator@D@2@@1@@Z
	??$_Freenode0@V?$allocator@U?$_Tree_node@U?$pair@$$CBV?$basic_string@DU?$char_traits@D@std@@V?$allocator@D@2@@std@@V12@@std@@PEAX@std@@@std@@@?$_Tree_node@U?$pair@$$CBV?$basic_string@DU?$char_traits@D@std@@V?$allocator@D@2@@std@@V12@@std@@PEAX@std@@SAXAEAV?$allocator@U?$_Tree_node@U?$pair@$$CBV?$basic_string@DU?$char_traits@D@std@@V?$allocator@D@2@@std@@V12@@std@@PEAX@std@@@1@PEAU01@@Z
	??$_Freenode@V?$allocator@U?$_Tree_node@U?$pair@$$CBV?$basic_string@DU?$char_traits@D@std@@V?$allocator@D@2@@std@@V12@@std@@PEAX@std@@@std@@@?$_Tree_node@U?$pair@$$CBV?$basic_string@DU?$char_traits@D@std@@V?$allocator@D@2@@std@@V12@@std@@PEAX@std@@SAXAEAV?$allocator@U?$_Tree_node@U?$pair@$$CBV?$basic_string@DU?$char_traits@D@std@@V?$allocator@D@2@@std@@V12@@std@@PEAX@std@@@1@PEAU01@@Z
	??$_Get_size_of_n@$00@std@@YA_K_K@Z
	??$_Get_size_of_n@$0BA@@std@@YA_K_K@Z
	??$_Get_size_of_n@$0BEI@@std@@YA_K_K@Z
	??$_Get_size_of_n@$0BI@@std@@YA_K_K@Z
	??$_Get_size_of_n@$0EI@@std@@YA_K_K@Z
	??$_Get_size_of_n@$0GA@@std@@YA_K_K@Z
	??$_Get_size_of_n@$0GI@@std@@YA_K_K@Z
	??$_Get_unwrapped@AEAV?$_Vector_iterator@V?$_Vector_val@U?$_Simple_types@U?$PoseStamped_@V?$allocator@X@std@@@geometry_msgs@@@std@@@std@@@std@@@std@@YA?A_TAEAV?$_Vector_iterator@V?$_Vector_val@U?$_Simple_types@U?$PoseStamped_@V?$allocator@X@std@@@geometry_msgs@@@std@@@std@@@0@@Z
	??$_Get_unwrapped@AEBQEAU?$Marker_@V?$allocator@X@std@@@visualization_msgs@@@std@@YA?A_TAEBQEAU?$Marker_@V?$allocator@X@std@@@visualization_msgs@@@Z
	??$_Get_unwrapped@AEBQEAU?$PoseStamped_@V?$allocator@X@std@@@geometry_msgs@@@std@@YA?A_TAEBQEAU?$PoseStamped_@V?$allocator@X@std@@@geometry_msgs@@@Z
	??$_Get_unwrapped@PEAU?$ColorRGBA_@V?$allocator@X@std@@@std_msgs@@@std@@YA?A_T$$QEAPEAU?$ColorRGBA_@V?$allocator@X@std@@@std_msgs@@@Z
	??$_Get_unwrapped@PEAU?$Point_@V?$allocator@X@std@@@geometry_msgs@@@std@@YA?A_T$$QEAPEAU?$Point_@V?$allocator@X@std@@@geometry_msgs@@@Z
	??$_Get_unwrapped@PEAU?$PoseStamped_@V?$allocator@X@std@@@geometry_msgs@@@std@@YA?A_T$$QEAPEAU?$PoseStamped_@V?$allocator@X@std@@@geometry_msgs@@@Z
	??$_Getvals@_W@?$time_get@DV?$istreambuf_iterator@DU?$char_traits@D@std@@@std@@@std@@IEAAX_WAEBV_Locinfo@1@@Z
	??$_Getvals@_W@?$time_get@_WV?$istreambuf_iterator@_WU?$char_traits@_W@std@@@std@@@std@@IEAAX_WAEBV_Locinfo@1@@Z
	??$_Insert_counted_range@PEAU?$PoseStamped_@V?$allocator@X@std@@@geometry_msgs@@@?$vector@U?$PoseStamped_@V?$allocator@X@std@@@geometry_msgs@@V?$allocator@U?$PoseStamped_@V?$allocator@X@std@@@geometry_msgs@@@std@@@std@@AEAAXV?$_Vector_const_iterator@V?$_Vector_val@U?$_Simple_types@U?$PoseStamped_@V?$allocator@X@std@@@geometry_msgs@@@std@@@std@@@1@PEAU?$PoseStamped_@V?$allocator@X@std@@@geometry_msgs@@_K@Z
	??$_Kfn@$$CBV?$basic_string@DU?$char_traits@D@std@@V?$allocator@D@2@@std@@PEAVAbstractMetaObjectBase@impl@class_loader@@@?$_Tmap_traits@V?$basic_string@DU?$char_traits@D@std@@V?$allocator@D@2@@std@@PEAVAbstractMetaObjectBase@impl@class_loader@@U?$less@V?$basic_string@DU?$char_traits@D@std@@V?$allocator@D@2@@std@@@2@V?$allocator@U?$pair@$$CBV?$basic_string@DU?$char_traits@D@std@@V?$allocator@D@2@@std@@PEAVAbstractMetaObjectBase@impl@class_loader@@@std@@@2@$0A@@std@@SAAEBV?$basic_string@DU?$char_traits@D@std@@V?$allocator@D@2@@1@AEBU?$pair@$$CBV?$basic_string@DU?$char_traits@D@std@@V?$allocator@D@2@@std@@PEAVAbstractMetaObjectBase@impl@class_loader@@@1@@Z
	??$_Lower_bound_duplicate@V?$basic_string@DU?$char_traits@D@std@@V?$allocator@D@2@@std@@@?$_Tree@V?$_Tmap_traits@V?$basic_string@DU?$char_traits@D@std@@V?$allocator@D@2@@std@@PEAVAbstractMetaObjectBase@impl@class_loader@@U?$less@V?$basic_string@DU?$char_traits@D@std@@V?$allocator@D@2@@std@@@2@V?$allocator@U?$pair@$$CBV?$basic_string@DU?$char_traits@D@std@@V?$allocator@D@2@@std@@PEAVAbstractMetaObjectBase@impl@class_loader@@@std@@@2@$0A@@std@@@std@@IEBA_NQEAU?$_Tree_node@U?$pair@$$CBV?$basic_string@DU?$char_traits@D@std@@V?$allocator@D@2@@std@@PEAVAbstractMetaObjectBase@impl@class_loader@@@std@@PEAX@1@AEBV?$basic_string@DU?$char_traits@D@std@@V?$allocator@D@2@@1@@Z
	??$_Maklocstr@D@std@@YAPEADPEBDPEADAEBU_Cvtvec@@@Z
	??$_Maklocstr@_W@std@@YAPEA_WPEBDPEA_WAEBU_Cvtvec@@@Z
	??$_Move_backward_unchecked@PEAU?$PoseStamped_@V?$allocator@X@std@@@geometry_msgs@@PEAU12@@std@@YAPEAU?$PoseStamped_@V?$allocator@X@std@@@geometry_msgs@@PEAU12@00@Z
	??$_Move_unchecked@PEAU?$PoseStamped_@V?$allocator@X@std@@@geometry_msgs@@PEAU12@@std@@YAPEAU?$PoseStamped_@V?$allocator@X@std@@@geometry_msgs@@PEAU12@00@Z
	??$_Pocca@V?$allocator@D@std@@@std@@YAXAEAV?$allocator@D@0@AEBV10@@Z
	??$_Pocca@V?$allocator@U?$PoseStamped_@V?$allocator@X@std@@@geometry_msgs@@@std@@@std@@YAXAEAV?$allocator@U?$PoseStamped_@V?$allocator@X@std@@@geometry_msgs@@@0@AEBV10@@Z
	??$_Pocma@V?$allocator@D@std@@@std@@YAXAEAV?$allocator@D@0@0@Z
	??$_Reallocate_for@V<lambda_66f57f934f28d61049862f64df852ff0>@@PEBD@?$basic_string@DU?$char_traits@D@std@@V?$allocator@D@2@@std@@AEAAAEAV01@_KV<lambda_66f57f934f28d61049862f64df852ff0>@@PEBD@Z
	??$_Reallocate_grow_by@V<lambda_65e615be2a453ca0576c979606f46740>@@PEBD_K@?$basic_string@DU?$char_traits@D@std@@V?$allocator@D@2@@std@@AEAAAEAV01@_KV<lambda_65e615be2a453ca0576c979606f46740>@@PEBD_K@Z
	??$_Resize@U_Value_init_tag@std@@@?$vector@U?$PoseStamped_@V?$allocator@X@std@@@geometry_msgs@@V?$allocator@U?$PoseStamped_@V?$allocator@X@std@@@geometry_msgs@@@std@@@std@@AEAAX_KAEBU_Value_init_tag@1@@Z
	??$_Resize_reallocate@U_Value_init_tag@std@@@?$vector@U?$PoseStamped_@V?$allocator@X@std@@@geometry_msgs@@V?$allocator@U?$PoseStamped_@V?$allocator@X@std@@@geometry_msgs@@@std@@@std@@AEAAX_KAEBU_Value_init_tag@1@@Z
	??$_To_address@PEAU?$ColorRGBA_@V?$allocator@X@std@@@std_msgs@@@std@@YA?A_PAEBQEAU?$ColorRGBA_@V?$allocator@X@std@@@std_msgs@@@Z
	??$_To_address@PEAU?$Point_@V?$allocator@X@std@@@geometry_msgs@@@std@@YA?A_PAEBQEAU?$Point_@V?$allocator@X@std@@@geometry_msgs@@@Z
	??$_Traits_compare@U?$char_traits@D@std@@@std@@YAHQEBD_K01@Z
	??$_Try_emplace@AEBV?$basic_string@DU?$char_traits@D@std@@V?$allocator@D@2@@std@@$$V@?$map@V?$basic_string@DU?$char_traits@D@std@@V?$allocator@D@2@@std@@PEAVAbstractMetaObjectBase@impl@class_loader@@U?$less@V?$basic_string@DU?$char_traits@D@std@@V?$allocator@D@2@@std@@@2@V?$allocator@U?$pair@$$CBV?$basic_string@DU?$char_traits@D@std@@V?$allocator@D@2@@std@@PEAVAbstractMetaObjectBase@impl@class_loader@@@std@@@2@@std@@AEAA?AU?$pair@PEAU?$_Tree_node@U?$pair@$$CBV?$basic_string@DU?$char_traits@D@std@@V?$allocator@D@2@@std@@PEAVAbstractMetaObjectBase@impl@class_loader@@@std@@PEAX@std@@_N@1@AEBV?$basic_string@DU?$char_traits@D@std@@V?$allocator@D@2@@1@@Z
	??$_Tuple_get@$0A@AEBV?$basic_string@DU?$char_traits@D@std@@V?$allocator@D@2@@std@@@std@@YA$$QEA_P$$QEAV?$tuple@AEBV?$basic_string@DU?$char_traits@D@std@@V?$allocator@D@2@@std@@@0@@Z
	??$_Unfancy@D@std@@YAPEADPEAD@Z
	??$_Unfancy@U?$ColorRGBA_@V?$allocator@X@std@@@std_msgs@@@std@@YAPEAU?$ColorRGBA_@V?$allocator@X@std@@@std_msgs@@PEAU12@@Z
	??$_Unfancy@U?$Marker_@V?$allocator@X@std@@@visualization_msgs@@@std@@YAPEAU?$Marker_@V?$allocator@X@std@@@visualization_msgs@@PEAU12@@Z
	??$_Unfancy@U?$Point_@V?$allocator@X@std@@@geometry_msgs@@@std@@YAPEAU?$Point_@V?$allocator@X@std@@@geometry_msgs@@PEAU12@@Z
	??$_Unfancy@U?$PoseStamped_@V?$allocator@X@std@@@geometry_msgs@@@std@@YAPEAU?$PoseStamped_@V?$allocator@X@std@@@geometry_msgs@@PEAU12@@Z
	??$_Uninitialized_copy@PEAU?$ColorRGBA_@V?$allocator@X@std@@@std_msgs@@PEAU12@V?$allocator@U?$ColorRGBA_@V?$allocator@X@std@@@std_msgs@@@std@@@std@@YAPEAU?$ColorRGBA_@V?$allocator@X@std@@@std_msgs@@PEAU12@00AEAV?$allocator@U?$ColorRGBA_@V?$allocator@X@std@@@std_msgs@@@0@@Z
	??$_Uninitialized_copy@PEAU?$Point_@V?$allocator@X@std@@@geometry_msgs@@PEAU12@V?$allocator@U?$Point_@V?$allocator@X@std@@@geometry_msgs@@@std@@@std@@YAPEAU?$Point_@V?$allocator@X@std@@@geometry_msgs@@PEAU12@00AEAV?$allocator@U?$Point_@V?$allocator@X@std@@@geometry_msgs@@@0@@Z
	??$_Uninitialized_copy_n@PEAU?$PoseStamped_@V?$allocator@X@std@@@geometry_msgs@@V?$allocator@U?$PoseStamped_@V?$allocator@X@std@@@geometry_msgs@@@std@@@std@@YAPEAU?$PoseStamped_@V?$allocator@X@std@@@geometry_msgs@@PEAU12@_K0AEAV?$allocator@U?$PoseStamped_@V?$allocator@X@std@@@geometry_msgs@@@0@@Z
	??$_Uninitialized_move@PEAU?$Marker_@V?$allocator@X@std@@@visualization_msgs@@V?$allocator@U?$Marker_@V?$allocator@X@std@@@visualization_msgs@@@std@@@std@@YAPEAU?$Marker_@V?$allocator@X@std@@@visualization_msgs@@QEAU12@0PEAU12@AEAV?$allocator@U?$Marker_@V?$allocator@X@std@@@visualization_msgs@@@0@@Z
	??$_Uninitialized_move@PEAU?$PoseStamped_@V?$allocator@X@std@@@geometry_msgs@@V?$allocator@U?$PoseStamped_@V?$allocator@X@std@@@geometry_msgs@@@std@@@std@@YAPEAU?$PoseStamped_@V?$allocator@X@std@@@geometry_msgs@@QEAU12@0PEAU12@AEAV?$allocator@U?$PoseStamped_@V?$allocator@X@std@@@geometry_msgs@@@0@@Z
	??$_Uninitialized_value_construct_n@V?$allocator@U?$PoseStamped_@V?$allocator@X@std@@@geometry_msgs@@@std@@@std@@YAPEAU?$PoseStamped_@V?$allocator@X@std@@@geometry_msgs@@PEAU12@_KAEAV?$allocator@U?$PoseStamped_@V?$allocator@X@std@@@geometry_msgs@@@0@@Z
	??$addressof@$$CBU?$MarkerArray_@V?$allocator@X@std@@@visualization_msgs@@@boost@@YAPEBU?$MarkerArray_@V?$allocator@X@std@@@visualization_msgs@@AEBU12@@Z
	??$addressof@$$CBU?$Path_@V?$allocator@X@std@@@nav_msgs@@@boost@@YAPEBU?$Path_@V?$allocator@X@std@@@nav_msgs@@AEBU12@@Z
	??$addressof@$$CBU?$PoseStamped_@V?$allocator@X@std@@@geometry_msgs@@@boost@@YAPEBU?$PoseStamped_@V?$allocator@X@std@@@geometry_msgs@@AEBU12@@Z
	??$addressof@$$CBV?$_String_val@U?$_Simple_types@D@std@@@std@@@std@@YAPEBV?$_String_val@U?$_Simple_types@D@std@@@0@AEBV10@@Z
	??$addressof@$$CBV?$_Tree_val@U?$_Tree_simple_types@U?$pair@$$CBV?$basic_string@DU?$char_traits@D@std@@V?$allocator@D@2@@std@@PEAVAbstractMetaObjectBase@impl@class_loader@@@std@@@std@@@std@@@std@@YAPEBV?$_Tree_val@U?$_Tree_simple_types@U?$pair@$$CBV?$basic_string@DU?$char_traits@D@std@@V?$allocator@D@2@@std@@PEAVAbstractMetaObjectBase@impl@class_loader@@@std@@@std@@@0@AEBV10@@Z
	??$addressof@$$CBV?$_Vector_val@U?$_Simple_types@U?$ColorRGBA_@V?$allocator@X@std@@@std_msgs@@@std@@@std@@@std@@YAPEBV?$_Vector_val@U?$_Simple_types@U?$ColorRGBA_@V?$allocator@X@std@@@std_msgs@@@std@@@0@AEBV10@@Z
	??$addressof@$$CBV?$_Vector_val@U?$_Simple_types@U?$Marker_@V?$allocator@X@std@@@visualization_msgs@@@std@@@std@@@std@@YAPEBV?$_Vector_val@U?$_Simple_types@U?$Marker_@V?$allocator@X@std@@@visualization_msgs@@@std@@@0@AEBV10@@Z
	??$addressof@$$CBV?$_Vector_val@U?$_Simple_types@U?$Point_@V?$allocator@X@std@@@geometry_msgs@@@std@@@std@@@std@@YAPEBV?$_Vector_val@U?$_Simple_types@U?$Point_@V?$allocator@X@std@@@geometry_msgs@@@std@@@0@AEBV10@@Z
	??$addressof@$$CBV?$_Vector_val@U?$_Simple_types@U?$PoseStamped_@V?$allocator@X@std@@@geometry_msgs@@@std@@@std@@@std@@YAPEBV?$_Vector_val@U?$_Simple_types@U?$PoseStamped_@V?$allocator@X@std@@@geometry_msgs@@@std@@@0@AEBV10@@Z
	??$addressof@$$CBV?$basic_string@DU?$char_traits@D@std@@V?$allocator@D@2@@std@@@std@@YAPEBV?$basic_string@DU?$char_traits@D@std@@V?$allocator@D@2@@0@AEBV10@@Z
	??$addressof@$$CBV?$vector@U?$PoseStamped_@V?$allocator@X@std@@@geometry_msgs@@V?$allocator@U?$PoseStamped_@V?$allocator@X@std@@@geometry_msgs@@@std@@@std@@@std@@YAPEBV?$vector@U?$PoseStamped_@V?$allocator@X@std@@@geometry_msgs@@V?$allocator@U?$PoseStamped_@V?$allocator@X@std@@@geometry_msgs@@@std@@@0@AEBV10@@Z
	??$addressof@PEAD@std@@YAPEAPEADAEAPEAD@Z
	??$addressof@PEAU?$_Tree_node@U?$pair@$$CBV?$basic_string@DU?$char_traits@D@std@@V?$allocator@D@2@@std@@PEAVAbstractMetaObjectBase@impl@class_loader@@@std@@PEAX@std@@@std@@YAPEAPEAU?$_Tree_node@U?$pair@$$CBV?$basic_string@DU?$char_traits@D@std@@V?$allocator@D@2@@std@@PEAVAbstractMetaObjectBase@impl@class_loader@@@std@@PEAX@0@AEAPEAU10@@Z
	??$addressof@PEAU?$_Tree_node@U?$pair@$$CBV?$basic_string@DU?$char_traits@D@std@@V?$allocator@D@2@@std@@V12@@std@@PEAX@std@@@std@@YAPEAPEAU?$_Tree_node@U?$pair@$$CBV?$basic_string@DU?$char_traits@D@std@@V?$allocator@D@2@@std@@V12@@std@@PEAX@0@AEAPEAU10@@Z
	??$addressof@U?$DefaultMessageCreator@U?$Path_@V?$allocator@X@std@@@nav_msgs@@@ros@@@boost@@YAPEAU?$DefaultMessageCreator@U?$Path_@V?$allocator@X@std@@@nav_msgs@@@ros@@AEAU12@@Z
	??$addressof@U?$DefaultMessageCreator@U?$PointStamped_@V?$allocator@X@std@@@geometry_msgs@@@ros@@@boost@@YAPEAU?$DefaultMessageCreator@U?$PointStamped_@V?$allocator@X@std@@@geometry_msgs@@@ros@@AEAU12@@Z
	??$addressof@U?$PoseStamped_@V?$allocator@X@std@@@geometry_msgs@@@std@@YAPEAU?$PoseStamped_@V?$allocator@X@std@@@geometry_msgs@@AEAU12@@Z
	??$addressof@U?$checked_array_deleter@E@boost@@@boost@@YAPEAU?$checked_array_deleter@E@0@AEAU10@@Z
	??$addressof@U?$pair@$$CBV?$basic_string@DU?$char_traits@D@std@@V?$allocator@D@2@@std@@PEAVAbstractMetaObjectBase@impl@class_loader@@@std@@@std@@YAPEAU?$pair@$$CBV?$basic_string@DU?$char_traits@D@std@@V?$allocator@D@2@@std@@PEAVAbstractMetaObjectBase@impl@class_loader@@@0@AEAU10@@Z
	??$addressof@U?$pair@$$CBV?$basic_string@DU?$char_traits@D@std@@V?$allocator@D@2@@std@@V12@@std@@@std@@YAPEAU?$pair@$$CBV?$basic_string@DU?$char_traits@D@std@@V?$allocator@D@2@@std@@V12@@0@AEAU10@@Z
	??$addressof@V?$_String_val@U?$_Simple_types@D@std@@@std@@@std@@YAPEAV?$_String_val@U?$_Simple_types@D@std@@@0@AEAV10@@Z
	??$addressof@V?$_Tree_val@U?$_Tree_simple_types@U?$pair@$$CBV?$basic_string@DU?$char_traits@D@std@@V?$allocator@D@2@@std@@PEAVAbstractMetaObjectBase@impl@class_loader@@@std@@@std@@@std@@@std@@YAPEAV?$_Tree_val@U?$_Tree_simple_types@U?$pair@$$CBV?$basic_string@DU?$char_traits@D@std@@V?$allocator@D@2@@std@@PEAVAbstractMetaObjectBase@impl@class_loader@@@std@@@std@@@0@AEAV10@@Z
	??$addressof@V?$_Tree_val@U?$_Tree_simple_types@U?$pair@$$CBV?$basic_string@DU?$char_traits@D@std@@V?$allocator@D@2@@std@@V12@@std@@@std@@@std@@@std@@YAPEAV?$_Tree_val@U?$_Tree_simple_types@U?$pair@$$CBV?$basic_string@DU?$char_traits@D@std@@V?$allocator@D@2@@std@@V12@@std@@@std@@@0@AEAV10@@Z
	??$addressof@V?$_Vector_val@U?$_Simple_types@U?$PoseStamped_@V?$allocator@X@std@@@geometry_msgs@@@std@@@std@@@std@@YAPEAV?$_Vector_val@U?$_Simple_types@U?$PoseStamped_@V?$allocator@X@std@@@geometry_msgs@@@std@@@0@AEAV10@@Z
	??$addressof@V?$basic_string@DU?$char_traits@D@std@@V?$allocator@D@2@@std@@@std@@YAPEAV?$basic_string@DU?$char_traits@D@std@@V?$allocator@D@2@@0@AEAV10@@Z
	??$addressof@V?$bind_t@VSerializedMessage@ros@@P6A?AV12@AEBU?$MarkerArray_@V?$allocator@X@std@@@visualization_msgs@@@ZV?$list1@V?$reference_wrapper@$$CBU?$MarkerArray_@V?$allocator@X@std@@@visualization_msgs@@@boost@@@_bi@boost@@@_bi@boost@@@boost@@YAPEAV?$bind_t@VSerializedMessage@ros@@P6A?AV12@AEBU?$MarkerArray_@V?$allocator@X@std@@@visualization_msgs@@@ZV?$list1@V?$reference_wrapper@$$CBU?$MarkerArray_@V?$allocator@X@std@@@visualization_msgs@@@boost@@@_bi@boost@@@_bi@0@AEAV120@@Z
	??$addressof@V?$bind_t@VSerializedMessage@ros@@P6A?AV12@AEBU?$Path_@V?$allocator@X@std@@@nav_msgs@@@ZV?$list1@V?$reference_wrapper@$$CBU?$Path_@V?$allocator@X@std@@@nav_msgs@@@boost@@@_bi@boost@@@_bi@boost@@@boost@@YAPEAV?$bind_t@VSerializedMessage@ros@@P6A?AV12@AEBU?$Path_@V?$allocator@X@std@@@nav_msgs@@@ZV?$list1@V?$reference_wrapper@$$CBU?$Path_@V?$allocator@X@std@@@nav_msgs@@@boost@@@_bi@boost@@@_bi@0@AEAV120@@Z
	??$addressof@V?$bind_t@VSerializedMessage@ros@@P6A?AV12@AEBU?$PoseStamped_@V?$allocator@X@std@@@geometry_msgs@@@ZV?$list1@V?$reference_wrapper@$$CBU?$PoseStamped_@V?$allocator@X@std@@@geometry_msgs@@@boost@@@_bi@boost@@@_bi@boost@@@boost@@YAPEAV?$bind_t@VSerializedMessage@ros@@P6A?AV12@AEBU?$PoseStamped_@V?$allocator@X@std@@@geometry_msgs@@@ZV?$list1@V?$reference_wrapper@$$CBU?$PoseStamped_@V?$allocator@X@std@@@geometry_msgs@@@boost@@@_bi@boost@@@_bi@0@AEAV120@@Z
	??$addressof@V?$bind_t@XV?$mf1@XVWaypointGlobalPlanner@waypoint_global_planner@@AEBV?$shared_ptr@$$CBU?$Path_@V?$allocator@X@std@@@nav_msgs@@@boost@@@_mfi@boost@@V?$list2@V?$value@PEAVWaypointGlobalPlanner@waypoint_global_planner@@@_bi@boost@@U?$arg@$00@3@@_bi@3@@_bi@boost@@@boost@@YAPEAV?$bind_t@XV?$mf1@XVWaypointGlobalPlanner@waypoint_global_planner@@AEBV?$shared_ptr@$$CBU?$Path_@V?$allocator@X@std@@@nav_msgs@@@boost@@@_mfi@boost@@V?$list2@V?$value@PEAVWaypointGlobalPlanner@waypoint_global_planner@@@_bi@boost@@U?$arg@$00@3@@_bi@3@@_bi@0@AEAV120@@Z
	??$addressof@V?$bind_t@XV?$mf1@XVWaypointGlobalPlanner@waypoint_global_planner@@AEBV?$shared_ptr@$$CBU?$PointStamped_@V?$allocator@X@std@@@geometry_msgs@@@boost@@@_mfi@boost@@V?$list2@V?$value@PEAVWaypointGlobalPlanner@waypoint_global_planner@@@_bi@boost@@U?$arg@$00@3@@_bi@3@@_bi@boost@@@boost@@YAPEAV?$bind_t@XV?$mf1@XVWaypointGlobalPlanner@waypoint_global_planner@@AEBV?$shared_ptr@$$CBU?$PointStamped_@V?$allocator@X@std@@@geometry_msgs@@@boost@@@_mfi@boost@@V?$list2@V?$value@PEAVWaypointGlobalPlanner@waypoint_global_planner@@@_bi@boost@@U?$arg@$00@3@@_bi@3@@_bi@0@AEAV120@@Z
	??$addressof@V?$function@$$A6AXAEBV?$shared_ptr@$$CBU?$Path_@V?$allocator@X@std@@@nav_msgs@@@boost@@@Z@boost@@@boost@@YAPEAV?$function@$$A6AXAEBV?$shared_ptr@$$CBU?$Path_@V?$allocator@X@std@@@nav_msgs@@@boost@@@Z@0@AEAV10@@Z
	??$addressof@V?$function@$$A6AXAEBV?$shared_ptr@$$CBU?$PointStamped_@V?$allocator@X@std@@@geometry_msgs@@@boost@@@Z@boost@@@boost@@YAPEAV?$function@$$A6AXAEBV?$shared_ptr@$$CBU?$PointStamped_@V?$allocator@X@std@@@geometry_msgs@@@boost@@@Z@0@AEAV10@@Z
	??$addressof@V?$sp_ms_deleter@U?$Path_@V?$allocator@X@std@@@nav_msgs@@@detail@boost@@@boost@@YAPEAV?$sp_ms_deleter@U?$Path_@V?$allocator@X@std@@@nav_msgs@@@detail@0@AEAV120@@Z
	??$addressof@V?$sp_ms_deleter@U?$PointStamped_@V?$allocator@X@std@@@geometry_msgs@@@detail@boost@@@boost@@YAPEAV?$sp_ms_deleter@U?$PointStamped_@V?$allocator@X@std@@@geometry_msgs@@@detail@0@AEAV120@@Z
	??$addressof@V?$sp_ms_deleter@V?$SubscriptionCallbackHelperT@AEBV?$shared_ptr@$$CBU?$Path_@V?$allocator@X@std@@@nav_msgs@@@boost@@X@ros@@@detail@boost@@@boost@@YAPEAV?$sp_ms_deleter@V?$SubscriptionCallbackHelperT@AEBV?$shared_ptr@$$CBU?$Path_@V?$allocator@X@std@@@nav_msgs@@@boost@@X@ros@@@detail@0@AEAV120@@Z
	??$addressof@V?$sp_ms_deleter@V?$SubscriptionCallbackHelperT@AEBV?$shared_ptr@$$CBU?$PointStamped_@V?$allocator@X@std@@@geometry_msgs@@@boost@@X@ros@@@detail@boost@@@boost@@YAPEAV?$sp_ms_deleter@V?$SubscriptionCallbackHelperT@AEBV?$shared_ptr@$$CBU?$PointStamped_@V?$allocator@X@std@@@geometry_msgs@@@boost@@X@ros@@@detail@0@AEAV120@@Z
	??$advertise@U?$MarkerArray_@V?$allocator@X@std@@@visualization_msgs@@@NodeHandle@ros@@QEAA?AVPublisher@1@AEBV?$basic_string@DU?$char_traits@D@std@@V?$allocator@D@2@@std@@I_N@Z
	??$advertise@U?$Path_@V?$allocator@X@std@@@nav_msgs@@@NodeHandle@ros@@QEAA?AVPublisher@1@AEBV?$basic_string@DU?$char_traits@D@std@@V?$allocator@D@2@@std@@I_N@Z
	??$advertise@U?$PoseStamped_@V?$allocator@X@std@@@geometry_msgs@@@NodeHandle@ros@@QEAA?AVPublisher@1@AEBV?$basic_string@DU?$char_traits@D@std@@V?$allocator@D@2@@std@@I_N@Z
	??$allInOne@UIStream@serialization@ros@@AEAU?$Header_@V?$allocator@X@std@@@std_msgs@@@?$Serializer@U?$Header_@V?$allocator@X@std@@@std_msgs@@@serialization@ros@@SAXAEAUIStream@12@AEAU?$Header_@V?$allocator@X@std@@@std_msgs@@@Z
	??$allInOne@UIStream@serialization@ros@@AEAU?$Path_@V?$allocator@X@std@@@nav_msgs@@@?$Serializer@U?$Path_@V?$allocator@X@std@@@nav_msgs@@@serialization@ros@@SAXAEAUIStream@12@AEAU?$Path_@V?$allocator@X@std@@@nav_msgs@@@Z
	??$allInOne@UIStream@serialization@ros@@AEAU?$PointStamped_@V?$allocator@X@std@@@geometry_msgs@@@?$Serializer@U?$PointStamped_@V?$allocator@X@std@@@geometry_msgs@@@serialization@ros@@SAXAEAUIStream@12@AEAU?$PointStamped_@V?$allocator@X@std@@@geometry_msgs@@@Z
	??$allInOne@UIStream@serialization@ros@@AEAU?$Point_@V?$allocator@X@std@@@geometry_msgs@@@?$Serializer@U?$Point_@V?$allocator@X@std@@@geometry_msgs@@@serialization@ros@@SAXAEAUIStream@12@AEAU?$Point_@V?$allocator@X@std@@@geometry_msgs@@@Z
	??$allInOne@UIStream@serialization@ros@@AEAU?$PoseStamped_@V?$allocator@X@std@@@geometry_msgs@@@?$Serializer@U?$PoseStamped_@V?$allocator@X@std@@@geometry_msgs@@@serialization@ros@@SAXAEAUIStream@12@AEAU?$PoseStamped_@V?$allocator@X@std@@@geometry_msgs@@@Z
	??$allInOne@UIStream@serialization@ros@@AEAU?$Pose_@V?$allocator@X@std@@@geometry_msgs@@@?$Serializer@U?$Pose_@V?$allocator@X@std@@@geometry_msgs@@@serialization@ros@@SAXAEAUIStream@12@AEAU?$Pose_@V?$allocator@X@std@@@geometry_msgs@@@Z
	??$allInOne@UIStream@serialization@ros@@AEAU?$Quaternion_@V?$allocator@X@std@@@geometry_msgs@@@?$Serializer@U?$Quaternion_@V?$allocator@X@std@@@geometry_msgs@@@serialization@ros@@SAXAEAUIStream@12@AEAU?$Quaternion_@V?$allocator@X@std@@@geometry_msgs@@@Z
	??$allInOne@ULStream@serialization@ros@@AEBU?$ColorRGBA_@V?$allocator@X@std@@@std_msgs@@@?$Serializer@U?$ColorRGBA_@V?$allocator@X@std@@@std_msgs@@@serialization@ros@@SAXAEAULStream@12@AEBU?$ColorRGBA_@V?$allocator@X@std@@@std_msgs@@@Z
	??$allInOne@ULStream@serialization@ros@@AEBU?$Header_@V?$allocator@X@std@@@std_msgs@@@?$Serializer@U?$Header_@V?$allocator@X@std@@@std_msgs@@@serialization@ros@@SAXAEAULStream@12@AEBU?$Header_@V?$allocator@X@std@@@std_msgs@@@Z
	??$allInOne@ULStream@serialization@ros@@AEBU?$MarkerArray_@V?$allocator@X@std@@@visualization_msgs@@@?$Serializer@U?$MarkerArray_@V?$allocator@X@std@@@visualization_msgs@@@serialization@ros@@SAXAEAULStream@12@AEBU?$MarkerArray_@V?$allocator@X@std@@@visualization_msgs@@@Z
	??$allInOne@ULStream@serialization@ros@@AEBU?$Marker_@V?$allocator@X@std@@@visualization_msgs@@@?$Serializer@U?$Marker_@V?$allocator@X@std@@@visualization_msgs@@@serialization@ros@@SAXAEAULStream@12@AEBU?$Marker_@V?$allocator@X@std@@@visualization_msgs@@@Z
	??$allInOne@ULStream@serialization@ros@@AEBU?$Path_@V?$allocator@X@std@@@nav_msgs@@@?$Serializer@U?$Path_@V?$allocator@X@std@@@nav_msgs@@@serialization@ros@@SAXAEAULStream@12@AEBU?$Path_@V?$allocator@X@std@@@nav_msgs@@@Z
	??$allInOne@ULStream@serialization@ros@@AEBU?$Point_@V?$allocator@X@std@@@geometry_msgs@@@?$Serializer@U?$Point_@V?$allocator@X@std@@@geometry_msgs@@@serialization@ros@@SAXAEAULStream@12@AEBU?$Point_@V?$allocator@X@std@@@geometry_msgs@@@Z
	??$allInOne@ULStream@serialization@ros@@AEBU?$PoseStamped_@V?$allocator@X@std@@@geometry_msgs@@@?$Serializer@U?$PoseStamped_@V?$allocator@X@std@@@geometry_msgs@@@serialization@ros@@SAXAEAULStream@12@AEBU?$PoseStamped_@V?$allocator@X@std@@@geometry_msgs@@@Z
	??$allInOne@ULStream@serialization@ros@@AEBU?$Pose_@V?$allocator@X@std@@@geometry_msgs@@@?$Serializer@U?$Pose_@V?$allocator@X@std@@@geometry_msgs@@@serialization@ros@@SAXAEAULStream@12@AEBU?$Pose_@V?$allocator@X@std@@@geometry_msgs@@@Z
	??$allInOne@ULStream@serialization@ros@@AEBU?$Quaternion_@V?$allocator@X@std@@@geometry_msgs@@@?$Serializer@U?$Quaternion_@V?$allocator@X@std@@@geometry_msgs@@@serialization@ros@@SAXAEAULStream@12@AEBU?$Quaternion_@V?$allocator@X@std@@@geometry_msgs@@@Z
	??$allInOne@ULStream@serialization@ros@@AEBU?$Vector3_@V?$allocator@X@std@@@geometry_msgs@@@?$Serializer@U?$Vector3_@V?$allocator@X@std@@@geometry_msgs@@@serialization@ros@@SAXAEAULStream@12@AEBU?$Vector3_@V?$allocator@X@std@@@geometry_msgs@@@Z
	??$allInOne@UOStream@serialization@ros@@AEBU?$ColorRGBA_@V?$allocator@X@std@@@std_msgs@@@?$Serializer@U?$ColorRGBA_@V?$allocator@X@std@@@std_msgs@@@serialization@ros@@SAXAEAUOStream@12@AEBU?$ColorRGBA_@V?$allocator@X@std@@@std_msgs@@@Z
	??$allInOne@UOStream@serialization@ros@@AEBU?$Header_@V?$allocator@X@std@@@std_msgs@@@?$Serializer@U?$Header_@V?$allocator@X@std@@@std_msgs@@@serialization@ros@@SAXAEAUOStream@12@AEBU?$Header_@V?$allocator@X@std@@@std_msgs@@@Z
	??$allInOne@UOStream@serialization@ros@@AEBU?$MarkerArray_@V?$allocator@X@std@@@visualization_msgs@@@?$Serializer@U?$MarkerArray_@V?$allocator@X@std@@@visualization_msgs@@@serialization@ros@@SAXAEAUOStream@12@AEBU?$MarkerArray_@V?$allocator@X@std@@@visualization_msgs@@@Z
	??$allInOne@UOStream@serialization@ros@@AEBU?$Marker_@V?$allocator@X@std@@@visualization_msgs@@@?$Serializer@U?$Marker_@V?$allocator@X@std@@@visualization_msgs@@@serialization@ros@@SAXAEAUOStream@12@AEBU?$Marker_@V?$allocator@X@std@@@visualization_msgs@@@Z
	??$allInOne@UOStream@serialization@ros@@AEBU?$Path_@V?$allocator@X@std@@@nav_msgs@@@?$Serializer@U?$Path_@V?$allocator@X@std@@@nav_msgs@@@serialization@ros@@SAXAEAUOStream@12@AEBU?$Path_@V?$allocator@X@std@@@nav_msgs@@@Z
	??$allInOne@UOStream@serialization@ros@@AEBU?$Point_@V?$allocator@X@std@@@geometry_msgs@@@?$Serializer@U?$Point_@V?$allocator@X@std@@@geometry_msgs@@@serialization@ros@@SAXAEAUOStream@12@AEBU?$Point_@V?$allocator@X@std@@@geometry_msgs@@@Z
	??$allInOne@UOStream@serialization@ros@@AEBU?$PoseStamped_@V?$allocator@X@std@@@geometry_msgs@@@?$Serializer@U?$PoseStamped_@V?$allocator@X@std@@@geometry_msgs@@@serialization@ros@@SAXAEAUOStream@12@AEBU?$PoseStamped_@V?$allocator@X@std@@@geometry_msgs@@@Z
	??$allInOne@UOStream@serialization@ros@@AEBU?$Pose_@V?$allocator@X@std@@@geometry_msgs@@@?$Serializer@U?$Pose_@V?$allocator@X@std@@@geometry_msgs@@@serialization@ros@@SAXAEAUOStream@12@AEBU?$Pose_@V?$allocator@X@std@@@geometry_msgs@@@Z
	??$allInOne@UOStream@serialization@ros@@AEBU?$Quaternion_@V?$allocator@X@std@@@geometry_msgs@@@?$Serializer@U?$Quaternion_@V?$allocator@X@std@@@geometry_msgs@@@serialization@ros@@SAXAEAUOStream@12@AEBU?$Quaternion_@V?$allocator@X@std@@@geometry_msgs@@@Z
	??$allInOne@UOStream@serialization@ros@@AEBU?$Vector3_@V?$allocator@X@std@@@geometry_msgs@@@?$Serializer@U?$Vector3_@V?$allocator@X@std@@@geometry_msgs@@@serialization@ros@@SAXAEAUOStream@12@AEBU?$Vector3_@V?$allocator@X@std@@@geometry_msgs@@@Z
	??$assign_functor@U?$DefaultMessageCreator@U?$Path_@V?$allocator@X@std@@@nav_msgs@@@ros@@@?$basic_vtable0@V?$shared_ptr@U?$Path_@V?$allocator@X@std@@@nav_msgs@@@boost@@@function@detail@boost@@AEBAXU?$DefaultMessageCreator@U?$Path_@V?$allocator@X@std@@@nav_msgs@@@ros@@AEATfunction_buffer@123@U?$bool_@$00@mpl@3@@Z
	??$assign_functor@U?$DefaultMessageCreator@U?$PointStamped_@V?$allocator@X@std@@@geometry_msgs@@@ros@@@?$basic_vtable0@V?$shared_ptr@U?$PointStamped_@V?$allocator@X@std@@@geometry_msgs@@@boost@@@function@detail@boost@@AEBAXU?$DefaultMessageCreator@U?$PointStamped_@V?$allocator@X@std@@@geometry_msgs@@@ros@@AEATfunction_buffer@123@U?$bool_@$00@mpl@3@@Z
	??$assign_functor@V?$bind_t@VSerializedMessage@ros@@P6A?AV12@AEBU?$MarkerArray_@V?$allocator@X@std@@@visualization_msgs@@@ZV?$list1@V?$reference_wrapper@$$CBU?$MarkerArray_@V?$allocator@X@std@@@visualization_msgs@@@boost@@@_bi@boost@@@_bi@boost@@@?$basic_vtable0@VSerializedMessage@ros@@@function@detail@boost@@AEBAXV?$bind_t@VSerializedMessage@ros@@P6A?AV12@AEBU?$MarkerArray_@V?$allocator@X@std@@@visualization_msgs@@@ZV?$list1@V?$reference_wrapper@$$CBU?$MarkerArray_@V?$allocator@X@std@@@visualization_msgs@@@boost@@@_bi@boost@@@_bi@3@AEATfunction_buffer@123@U?$bool_@$00@mpl@3@@Z
	??$assign_functor@V?$bind_t@VSerializedMessage@ros@@P6A?AV12@AEBU?$Path_@V?$allocator@X@std@@@nav_msgs@@@ZV?$list1@V?$reference_wrapper@$$CBU?$Path_@V?$allocator@X@std@@@nav_msgs@@@boost@@@_bi@boost@@@_bi@boost@@@?$basic_vtable0@VSerializedMessage@ros@@@function@detail@boost@@AEBAXV?$bind_t@VSerializedMessage@ros@@P6A?AV12@AEBU?$Path_@V?$allocator@X@std@@@nav_msgs@@@ZV?$list1@V?$reference_wrapper@$$CBU?$Path_@V?$allocator@X@std@@@nav_msgs@@@boost@@@_bi@boost@@@_bi@3@AEATfunction_buffer@123@U?$bool_@$00@mpl@3@@Z
	??$assign_functor@V?$bind_t@VSerializedMessage@ros@@P6A?AV12@AEBU?$PoseStamped_@V?$allocator@X@std@@@geometry_msgs@@@ZV?$list1@V?$reference_wrapper@$$CBU?$PoseStamped_@V?$allocator@X@std@@@geometry_msgs@@@boost@@@_bi@boost@@@_bi@boost@@@?$basic_vtable0@VSerializedMessage@ros@@@function@detail@boost@@AEBAXV?$bind_t@VSerializedMessage@ros@@P6A?AV12@AEBU?$PoseStamped_@V?$allocator@X@std@@@geometry_msgs@@@ZV?$list1@V?$reference_wrapper@$$CBU?$PoseStamped_@V?$allocator@X@std@@@geometry_msgs@@@boost@@@_bi@boost@@@_bi@3@AEATfunction_buffer@123@U?$bool_@$00@mpl@3@@Z
	??$assign_functor@V?$bind_t@XV?$mf1@XVWaypointGlobalPlanner@waypoint_global_planner@@AEBV?$shared_ptr@$$CBU?$Path_@V?$allocator@X@std@@@nav_msgs@@@boost@@@_mfi@boost@@V?$list2@V?$value@PEAVWaypointGlobalPlanner@waypoint_global_planner@@@_bi@boost@@U?$arg@$00@3@@_bi@3@@_bi@boost@@@?$basic_vtable1@XAEBV?$shared_ptr@$$CBU?$Path_@V?$allocator@X@std@@@nav_msgs@@@boost@@@function@detail@boost@@AEBAXV?$bind_t@XV?$mf1@XVWaypointGlobalPlanner@waypoint_global_planner@@AEBV?$shared_ptr@$$CBU?$Path_@V?$allocator@X@std@@@nav_msgs@@@boost@@@_mfi@boost@@V?$list2@V?$value@PEAVWaypointGlobalPlanner@waypoint_global_planner@@@_bi@boost@@U?$arg@$00@3@@_bi@3@@_bi@3@AEATfunction_buffer@123@U?$bool_@$00@mpl@3@@Z
	??$assign_functor@V?$bind_t@XV?$mf1@XVWaypointGlobalPlanner@waypoint_global_planner@@AEBV?$shared_ptr@$$CBU?$PointStamped_@V?$allocator@X@std@@@geometry_msgs@@@boost@@@_mfi@boost@@V?$list2@V?$value@PEAVWaypointGlobalPlanner@waypoint_global_planner@@@_bi@boost@@U?$arg@$00@3@@_bi@3@@_bi@boost@@@?$basic_vtable1@XAEBV?$shared_ptr@$$CBU?$PointStamped_@V?$allocator@X@std@@@geometry_msgs@@@boost@@@function@detail@boost@@AEBAXV?$bind_t@XV?$mf1@XVWaypointGlobalPlanner@waypoint_global_planner@@AEBV?$shared_ptr@$$CBU?$PointStamped_@V?$allocator@X@std@@@geometry_msgs@@@boost@@@_mfi@boost@@V?$list2@V?$value@PEAVWaypointGlobalPlanner@waypoint_global_planner@@@_bi@boost@@U?$arg@$00@3@@_bi@3@@_bi@3@AEATfunction_buffer@123@U?$bool_@$00@mpl@3@@Z
	??$assign_functor@V?$function@$$A6AXAEBV?$shared_ptr@$$CBU?$Path_@V?$allocator@X@std@@@nav_msgs@@@boost@@@Z@boost@@@?$basic_vtable1@XV?$shared_ptr@$$CBU?$Path_@V?$allocator@X@std@@@nav_msgs@@@boost@@@function@detail@boost@@AEBAXV?$function@$$A6AXAEBV?$shared_ptr@$$CBU?$Path_@V?$allocator@X@std@@@nav_msgs@@@boost@@@Z@3@AEATfunction_buffer@123@U?$bool_@$0A@@mpl@3@@Z
	??$assign_functor@V?$function@$$A6AXAEBV?$shared_ptr@$$CBU?$PointStamped_@V?$allocator@X@std@@@geometry_msgs@@@boost@@@Z@boost@@@?$basic_vtable1@XV?$shared_ptr@$$CBU?$PointStamped_@V?$allocator@X@std@@@geometry_msgs@@@boost@@@function@detail@boost@@AEBAXV?$function@$$A6AXAEBV?$shared_ptr@$$CBU?$PointStamped_@V?$allocator@X@std@@@geometry_msgs@@@boost@@@Z@3@AEATfunction_buffer@123@U?$bool_@$0A@@mpl@3@@Z
	??$assign_to@U?$DefaultMessageCreator@U?$Path_@V?$allocator@X@std@@@nav_msgs@@@ros@@@?$basic_vtable0@V?$shared_ptr@U?$Path_@V?$allocator@X@std@@@nav_msgs@@@boost@@@function@detail@boost@@AEBA_NU?$DefaultMessageCreator@U?$Path_@V?$allocator@X@std@@@nav_msgs@@@ros@@AEATfunction_buffer@123@Ufunction_obj_tag@123@@Z
	??$assign_to@U?$DefaultMessageCreator@U?$Path_@V?$allocator@X@std@@@nav_msgs@@@ros@@@?$basic_vtable0@V?$shared_ptr@U?$Path_@V?$allocator@X@std@@@nav_msgs@@@boost@@@function@detail@boost@@QEBA_NU?$DefaultMessageCreator@U?$Path_@V?$allocator@X@std@@@nav_msgs@@@ros@@AEATfunction_buffer@123@@Z
	??$assign_to@U?$DefaultMessageCreator@U?$Path_@V?$allocator@X@std@@@nav_msgs@@@ros@@@?$function0@V?$shared_ptr@U?$Path_@V?$allocator@X@std@@@nav_msgs@@@boost@@@boost@@AEAAXU?$DefaultMessageCreator@U?$Path_@V?$allocator@X@std@@@nav_msgs@@@ros@@@Z
	??$assign_to@U?$DefaultMessageCreator@U?$PointStamped_@V?$allocator@X@std@@@geometry_msgs@@@ros@@@?$basic_vtable0@V?$shared_ptr@U?$PointStamped_@V?$allocator@X@std@@@geometry_msgs@@@boost@@@function@detail@boost@@AEBA_NU?$DefaultMessageCreator@U?$PointStamped_@V?$allocator@X@std@@@geometry_msgs@@@ros@@AEATfunction_buffer@123@Ufunction_obj_tag@123@@Z
	??$assign_to@U?$DefaultMessageCreator@U?$PointStamped_@V?$allocator@X@std@@@geometry_msgs@@@ros@@@?$basic_vtable0@V?$shared_ptr@U?$PointStamped_@V?$allocator@X@std@@@geometry_msgs@@@boost@@@function@detail@boost@@QEBA_NU?$DefaultMessageCreator@U?$PointStamped_@V?$allocator@X@std@@@geometry_msgs@@@ros@@AEATfunction_buffer@123@@Z
	??$assign_to@U?$DefaultMessageCreator@U?$PointStamped_@V?$allocator@X@std@@@geometry_msgs@@@ros@@@?$function0@V?$shared_ptr@U?$PointStamped_@V?$allocator@X@std@@@geometry_msgs@@@boost@@@boost@@AEAAXU?$DefaultMessageCreator@U?$PointStamped_@V?$allocator@X@std@@@geometry_msgs@@@ros@@@Z
	??$assign_to@V?$bind_t@VSerializedMessage@ros@@P6A?AV12@AEBU?$MarkerArray_@V?$allocator@X@std@@@visualization_msgs@@@ZV?$list1@V?$reference_wrapper@$$CBU?$MarkerArray_@V?$allocator@X@std@@@visualization_msgs@@@boost@@@_bi@boost@@@_bi@boost@@@?$basic_vtable0@VSerializedMessage@ros@@@function@detail@boost@@AEBA_NV?$bind_t@VSerializedMessage@ros@@P6A?AV12@AEBU?$MarkerArray_@V?$allocator@X@std@@@visualization_msgs@@@ZV?$list1@V?$reference_wrapper@$$CBU?$MarkerArray_@V?$allocator@X@std@@@visualization_msgs@@@boost@@@_bi@boost@@@_bi@3@AEATfunction_buffer@123@Ufunction_obj_tag@123@@Z
	??$assign_to@V?$bind_t@VSerializedMessage@ros@@P6A?AV12@AEBU?$MarkerArray_@V?$allocator@X@std@@@visualization_msgs@@@ZV?$list1@V?$reference_wrapper@$$CBU?$MarkerArray_@V?$allocator@X@std@@@visualization_msgs@@@boost@@@_bi@boost@@@_bi@boost@@@?$basic_vtable0@VSerializedMessage@ros@@@function@detail@boost@@QEBA_NV?$bind_t@VSerializedMessage@ros@@P6A?AV12@AEBU?$MarkerArray_@V?$allocator@X@std@@@visualization_msgs@@@ZV?$list1@V?$reference_wrapper@$$CBU?$MarkerArray_@V?$allocator@X@std@@@visualization_msgs@@@boost@@@_bi@boost@@@_bi@3@AEATfunction_buffer@123@@Z
	??$assign_to@V?$bind_t@VSerializedMessage@ros@@P6A?AV12@AEBU?$MarkerArray_@V?$allocator@X@std@@@visualization_msgs@@@ZV?$list1@V?$reference_wrapper@$$CBU?$MarkerArray_@V?$allocator@X@std@@@visualization_msgs@@@boost@@@_bi@boost@@@_bi@boost@@@?$function0@VSerializedMessage@ros@@@boost@@AEAAXV?$bind_t@VSerializedMessage@ros@@P6A?AV12@AEBU?$MarkerArray_@V?$allocator@X@std@@@visualization_msgs@@@ZV?$list1@V?$reference_wrapper@$$CBU?$MarkerArray_@V?$allocator@X@std@@@visualization_msgs@@@boost@@@_bi@boost@@@_bi@1@@Z
	??$assign_to@V?$bind_t@VSerializedMessage@ros@@P6A?AV12@AEBU?$Path_@V?$allocator@X@std@@@nav_msgs@@@ZV?$list1@V?$reference_wrapper@$$CBU?$Path_@V?$allocator@X@std@@@nav_msgs@@@boost@@@_bi@boost@@@_bi@boost@@@?$basic_vtable0@VSerializedMessage@ros@@@function@detail@boost@@AEBA_NV?$bind_t@VSerializedMessage@ros@@P6A?AV12@AEBU?$Path_@V?$allocator@X@std@@@nav_msgs@@@ZV?$list1@V?$reference_wrapper@$$CBU?$Path_@V?$allocator@X@std@@@nav_msgs@@@boost@@@_bi@boost@@@_bi@3@AEATfunction_buffer@123@Ufunction_obj_tag@123@@Z
	??$assign_to@V?$bind_t@VSerializedMessage@ros@@P6A?AV12@AEBU?$Path_@V?$allocator@X@std@@@nav_msgs@@@ZV?$list1@V?$reference_wrapper@$$CBU?$Path_@V?$allocator@X@std@@@nav_msgs@@@boost@@@_bi@boost@@@_bi@boost@@@?$basic_vtable0@VSerializedMessage@ros@@@function@detail@boost@@QEBA_NV?$bind_t@VSerializedMessage@ros@@P6A?AV12@AEBU?$Path_@V?$allocator@X@std@@@nav_msgs@@@ZV?$list1@V?$reference_wrapper@$$CBU?$Path_@V?$allocator@X@std@@@nav_msgs@@@boost@@@_bi@boost@@@_bi@3@AEATfunction_buffer@123@@Z
	??$assign_to@V?$bind_t@VSerializedMessage@ros@@P6A?AV12@AEBU?$Path_@V?$allocator@X@std@@@nav_msgs@@@ZV?$list1@V?$reference_wrapper@$$CBU?$Path_@V?$allocator@X@std@@@nav_msgs@@@boost@@@_bi@boost@@@_bi@boost@@@?$function0@VSerializedMessage@ros@@@boost@@AEAAXV?$bind_t@VSerializedMessage@ros@@P6A?AV12@AEBU?$Path_@V?$allocator@X@std@@@nav_msgs@@@ZV?$list1@V?$reference_wrapper@$$CBU?$Path_@V?$allocator@X@std@@@nav_msgs@@@boost@@@_bi@boost@@@_bi@1@@Z
	??$assign_to@V?$bind_t@VSerializedMessage@ros@@P6A?AV12@AEBU?$PoseStamped_@V?$allocator@X@std@@@geometry_msgs@@@ZV?$list1@V?$reference_wrapper@$$CBU?$PoseStamped_@V?$allocator@X@std@@@geometry_msgs@@@boost@@@_bi@boost@@@_bi@boost@@@?$basic_vtable0@VSerializedMessage@ros@@@function@detail@boost@@AEBA_NV?$bind_t@VSerializedMessage@ros@@P6A?AV12@AEBU?$PoseStamped_@V?$allocator@X@std@@@geometry_msgs@@@ZV?$list1@V?$reference_wrapper@$$CBU?$PoseStamped_@V?$allocator@X@std@@@geometry_msgs@@@boost@@@_bi@boost@@@_bi@3@AEATfunction_buffer@123@Ufunction_obj_tag@123@@Z
	??$assign_to@V?$bind_t@VSerializedMessage@ros@@P6A?AV12@AEBU?$PoseStamped_@V?$allocator@X@std@@@geometry_msgs@@@ZV?$list1@V?$reference_wrapper@$$CBU?$PoseStamped_@V?$allocator@X@std@@@geometry_msgs@@@boost@@@_bi@boost@@@_bi@boost@@@?$basic_vtable0@VSerializedMessage@ros@@@function@detail@boost@@QEBA_NV?$bind_t@VSerializedMessage@ros@@P6A?AV12@AEBU?$PoseStamped_@V?$allocator@X@std@@@geometry_msgs@@@ZV?$list1@V?$reference_wrapper@$$CBU?$PoseStamped_@V?$allocator@X@std@@@geometry_msgs@@@boost@@@_bi@boost@@@_bi@3@AEATfunction_buffer@123@@Z
	??$assign_to@V?$bind_t@VSerializedMessage@ros@@P6A?AV12@AEBU?$PoseStamped_@V?$allocator@X@std@@@geometry_msgs@@@ZV?$list1@V?$reference_wrapper@$$CBU?$PoseStamped_@V?$allocator@X@std@@@geometry_msgs@@@boost@@@_bi@boost@@@_bi@boost@@@?$function0@VSerializedMessage@ros@@@boost@@AEAAXV?$bind_t@VSerializedMessage@ros@@P6A?AV12@AEBU?$PoseStamped_@V?$allocator@X@std@@@geometry_msgs@@@ZV?$list1@V?$reference_wrapper@$$CBU?$PoseStamped_@V?$allocator@X@std@@@geometry_msgs@@@boost@@@_bi@boost@@@_bi@1@@Z
	??$assign_to@V?$bind_t@XV?$mf1@XVWaypointGlobalPlanner@waypoint_global_planner@@AEBV?$shared_ptr@$$CBU?$Path_@V?$allocator@X@std@@@nav_msgs@@@boost@@@_mfi@boost@@V?$list2@V?$value@PEAVWaypointGlobalPlanner@waypoint_global_planner@@@_bi@boost@@U?$arg@$00@3@@_bi@3@@_bi@boost@@@?$basic_vtable1@XAEBV?$shared_ptr@$$CBU?$Path_@V?$allocator@X@std@@@nav_msgs@@@boost@@@function@detail@boost@@AEBA_NV?$bind_t@XV?$mf1@XVWaypointGlobalPlanner@waypoint_global_planner@@AEBV?$shared_ptr@$$CBU?$Path_@V?$allocator@X@std@@@nav_msgs@@@boost@@@_mfi@boost@@V?$list2@V?$value@PEAVWaypointGlobalPlanner@waypoint_global_planner@@@_bi@boost@@U?$arg@$00@3@@_bi@3@@_bi@3@AEATfunction_buffer@123@Ufunction_obj_tag@123@@Z
	??$assign_to@V?$bind_t@XV?$mf1@XVWaypointGlobalPlanner@waypoint_global_planner@@AEBV?$shared_ptr@$$CBU?$Path_@V?$allocator@X@std@@@nav_msgs@@@boost@@@_mfi@boost@@V?$list2@V?$value@PEAVWaypointGlobalPlanner@waypoint_global_planner@@@_bi@boost@@U?$arg@$00@3@@_bi@3@@_bi@boost@@@?$basic_vtable1@XAEBV?$shared_ptr@$$CBU?$Path_@V?$allocator@X@std@@@nav_msgs@@@boost@@@function@detail@boost@@QEBA_NV?$bind_t@XV?$mf1@XVWaypointGlobalPlanner@waypoint_global_planner@@AEBV?$shared_ptr@$$CBU?$Path_@V?$allocator@X@std@@@nav_msgs@@@boost@@@_mfi@boost@@V?$list2@V?$value@PEAVWaypointGlobalPlanner@waypoint_global_planner@@@_bi@boost@@U?$arg@$00@3@@_bi@3@@_bi@3@AEATfunction_buffer@123@@Z
	??$assign_to@V?$bind_t@XV?$mf1@XVWaypointGlobalPlanner@waypoint_global_planner@@AEBV?$shared_ptr@$$CBU?$Path_@V?$allocator@X@std@@@nav_msgs@@@boost@@@_mfi@boost@@V?$list2@V?$value@PEAVWaypointGlobalPlanner@waypoint_global_planner@@@_bi@boost@@U?$arg@$00@3@@_bi@3@@_bi@boost@@@?$function1@XAEBV?$shared_ptr@$$CBU?$Path_@V?$allocator@X@std@@@nav_msgs@@@boost@@@boost@@AEAAXV?$bind_t@XV?$mf1@XVWaypointGlobalPlanner@waypoint_global_planner@@AEBV?$shared_ptr@$$CBU?$Path_@V?$allocator@X@std@@@nav_msgs@@@boost@@@_mfi@boost@@V?$list2@V?$value@PEAVWaypointGlobalPlanner@waypoint_global_planner@@@_bi@boost@@U?$arg@$00@3@@_bi@3@@_bi@1@@Z
	??$assign_to@V?$bind_t@XV?$mf1@XVWaypointGlobalPlanner@waypoint_global_planner@@AEBV?$shared_ptr@$$CBU?$PointStamped_@V?$allocator@X@std@@@geometry_msgs@@@boost@@@_mfi@boost@@V?$list2@V?$value@PEAVWaypointGlobalPlanner@waypoint_global_planner@@@_bi@boost@@U?$arg@$00@3@@_bi@3@@_bi@boost@@@?$basic_vtable1@XAEBV?$shared_ptr@$$CBU?$PointStamped_@V?$allocator@X@std@@@geometry_msgs@@@boost@@@function@detail@boost@@AEBA_NV?$bind_t@XV?$mf1@XVWaypointGlobalPlanner@waypoint_global_planner@@AEBV?$shared_ptr@$$CBU?$PointStamped_@V?$allocator@X@std@@@geometry_msgs@@@boost@@@_mfi@boost@@V?$list2@V?$value@PEAVWaypointGlobalPlanner@waypoint_global_planner@@@_bi@boost@@U?$arg@$00@3@@_bi@3@@_bi@3@AEATfunction_buffer@123@Ufunction_obj_tag@123@@Z
	??$assign_to@V?$bind_t@XV?$mf1@XVWaypointGlobalPlanner@waypoint_global_planner@@AEBV?$shared_ptr@$$CBU?$PointStamped_@V?$allocator@X@std@@@geometry_msgs@@@boost@@@_mfi@boost@@V?$list2@V?$value@PEAVWaypointGlobalPlanner@waypoint_global_planner@@@_bi@boost@@U?$arg@$00@3@@_bi@3@@_bi@boost@@@?$basic_vtable1@XAEBV?$shared_ptr@$$CBU?$PointStamped_@V?$allocator@X@std@@@geometry_msgs@@@boost@@@function@detail@boost@@QEBA_NV?$bind_t@XV?$mf1@XVWaypointGlobalPlanner@waypoint_global_planner@@AEBV?$shared_ptr@$$CBU?$PointStamped_@V?$allocator@X@std@@@geometry_msgs@@@boost@@@_mfi@boost@@V?$list2@V?$value@PEAVWaypointGlobalPlanner@waypoint_global_planner@@@_bi@boost@@U?$arg@$00@3@@_bi@3@@_bi@3@AEATfunction_buffer@123@@Z
	??$assign_to@V?$bind_t@XV?$mf1@XVWaypointGlobalPlanner@waypoint_global_planner@@AEBV?$shared_ptr@$$CBU?$PointStamped_@V?$allocator@X@std@@@geometry_msgs@@@boost@@@_mfi@boost@@V?$list2@V?$value@PEAVWaypointGlobalPlanner@waypoint_global_planner@@@_bi@boost@@U?$arg@$00@3@@_bi@3@@_bi@boost@@@?$function1@XAEBV?$shared_ptr@$$CBU?$PointStamped_@V?$allocator@X@std@@@geometry_msgs@@@boost@@@boost@@AEAAXV?$bind_t@XV?$mf1@XVWaypointGlobalPlanner@waypoint_global_planner@@AEBV?$shared_ptr@$$CBU?$PointStamped_@V?$allocator@X@std@@@geometry_msgs@@@boost@@@_mfi@boost@@V?$list2@V?$value@PEAVWaypointGlobalPlanner@waypoint_global_planner@@@_bi@boost@@U?$arg@$00@3@@_bi@3@@_bi@1@@Z
	??$assign_to@V?$function@$$A6AXAEBV?$shared_ptr@$$CBU?$Path_@V?$allocator@X@std@@@nav_msgs@@@boost@@@Z@boost@@@?$basic_vtable1@XV?$shared_ptr@$$CBU?$Path_@V?$allocator@X@std@@@nav_msgs@@@boost@@@function@detail@boost@@AEBA_NV?$function@$$A6AXAEBV?$shared_ptr@$$CBU?$Path_@V?$allocator@X@std@@@nav_msgs@@@boost@@@Z@3@AEATfunction_buffer@123@Ufunction_obj_tag@123@@Z
	??$assign_to@V?$function@$$A6AXAEBV?$shared_ptr@$$CBU?$Path_@V?$allocator@X@std@@@nav_msgs@@@boost@@@Z@boost@@@?$basic_vtable1@XV?$shared_ptr@$$CBU?$Path_@V?$allocator@X@std@@@nav_msgs@@@boost@@@function@detail@boost@@QEBA_NV?$function@$$A6AXAEBV?$shared_ptr@$$CBU?$Path_@V?$allocator@X@std@@@nav_msgs@@@boost@@@Z@3@AEATfunction_buffer@123@@Z
	??$assign_to@V?$function@$$A6AXAEBV?$shared_ptr@$$CBU?$Path_@V?$allocator@X@std@@@nav_msgs@@@boost@@@Z@boost@@@?$function1@XV?$shared_ptr@$$CBU?$Path_@V?$allocator@X@std@@@nav_msgs@@@boost@@@boost@@AEAAXV?$function@$$A6AXAEBV?$shared_ptr@$$CBU?$Path_@V?$allocator@X@std@@@nav_msgs@@@boost@@@Z@1@@Z
	??$assign_to@V?$function@$$A6AXAEBV?$shared_ptr@$$CBU?$PointStamped_@V?$allocator@X@std@@@geometry_msgs@@@boost@@@Z@boost@@@?$basic_vtable1@XV?$shared_ptr@$$CBU?$PointStamped_@V?$allocator@X@std@@@geometry_msgs@@@boost@@@function@detail@boost@@AEBA_NV?$function@$$A6AXAEBV?$shared_ptr@$$CBU?$PointStamped_@V?$allocator@X@std@@@geometry_msgs@@@boost@@@Z@3@AEATfunction_buffer@123@Ufunction_obj_tag@123@@Z
	??$assign_to@V?$function@$$A6AXAEBV?$shared_ptr@$$CBU?$PointStamped_@V?$allocator@X@std@@@geometry_msgs@@@boost@@@Z@boost@@@?$basic_vtable1@XV?$shared_ptr@$$CBU?$PointStamped_@V?$allocator@X@std@@@geometry_msgs@@@boost@@@function@detail@boost@@QEBA_NV?$function@$$A6AXAEBV?$shared_ptr@$$CBU?$PointStamped_@V?$allocator@X@std@@@geometry_msgs@@@boost@@@Z@3@AEATfunction_buffer@123@@Z
	??$assign_to@V?$function@$$A6AXAEBV?$shared_ptr@$$CBU?$PointStamped_@V?$allocator@X@std@@@geometry_msgs@@@boost@@@Z@boost@@@?$function1@XV?$shared_ptr@$$CBU?$PointStamped_@V?$allocator@X@std@@@geometry_msgs@@@boost@@@boost@@AEAAXV?$function@$$A6AXAEBV?$shared_ptr@$$CBU?$PointStamped_@V?$allocator@X@std@@@geometry_msgs@@@boost@@@Z@1@@Z
	??$bind@VSerializedMessage@ros@@AEBU?$MarkerArray_@V?$allocator@X@std@@@visualization_msgs@@V?$reference_wrapper@$$CBU?$MarkerArray_@V?$allocator@X@std@@@visualization_msgs@@@boost@@@boost@@YA?AV?$bind_t@VSerializedMessage@ros@@P6A?AV12@AEBU?$MarkerArray_@V?$allocator@X@std@@@visualization_msgs@@@ZV?$list1@V?$reference_wrapper@$$CBU?$MarkerArray_@V?$allocator@X@std@@@visualization_msgs@@@boost@@@_bi@boost@@@_bi@0@P6A?AVSerializedMessage@ros@@AEBU?$MarkerArray_@V?$allocator@X@std@@@visualization_msgs@@@ZV?$reference_wrapper@$$CBU?$MarkerArray_@V?$allocator@X@std@@@visualization_msgs@@@0@@Z
	??$bind@VSerializedMessage@ros@@AEBU?$Path_@V?$allocator@X@std@@@nav_msgs@@V?$reference_wrapper@$$CBU?$Path_@V?$allocator@X@std@@@nav_msgs@@@boost@@@boost@@YA?AV?$bind_t@VSerializedMessage@ros@@P6A?AV12@AEBU?$Path_@V?$allocator@X@std@@@nav_msgs@@@ZV?$list1@V?$reference_wrapper@$$CBU?$Path_@V?$allocator@X@std@@@nav_msgs@@@boost@@@_bi@boost@@@_bi@0@P6A?AVSerializedMessage@ros@@AEBU?$Path_@V?$allocator@X@std@@@nav_msgs@@@ZV?$reference_wrapper@$$CBU?$Path_@V?$allocator@X@std@@@nav_msgs@@@0@@Z
	??$bind@VSerializedMessage@ros@@AEBU?$PoseStamped_@V?$allocator@X@std@@@geometry_msgs@@V?$reference_wrapper@$$CBU?$PoseStamped_@V?$allocator@X@std@@@geometry_msgs@@@boost@@@boost@@YA?AV?$bind_t@VSerializedMessage@ros@@P6A?AV12@AEBU?$PoseStamped_@V?$allocator@X@std@@@geometry_msgs@@@ZV?$list1@V?$reference_wrapper@$$CBU?$PoseStamped_@V?$allocator@X@std@@@geometry_msgs@@@boost@@@_bi@boost@@@_bi@0@P6A?AVSerializedMessage@ros@@AEBU?$PoseStamped_@V?$allocator@X@std@@@geometry_msgs@@@ZV?$reference_wrapper@$$CBU?$PoseStamped_@V?$allocator@X@std@@@geometry_msgs@@@0@@Z
	??$bind@XVWaypointGlobalPlanner@waypoint_global_planner@@AEBV?$shared_ptr@$$CBU?$Path_@V?$allocator@X@std@@@nav_msgs@@@boost@@PEAV12@U?$arg@$00@4@@boost@@YA?AV?$bind_t@XV?$mf1@XVWaypointGlobalPlanner@waypoint_global_planner@@AEBV?$shared_ptr@$$CBU?$Path_@V?$allocator@X@std@@@nav_msgs@@@boost@@@_mfi@boost@@V?$list2@V?$value@PEAVWaypointGlobalPlanner@waypoint_global_planner@@@_bi@boost@@U?$arg@$00@3@@_bi@3@@_bi@0@P8WaypointGlobalPlanner@waypoint_global_planner@@EAAXAEBV?$shared_ptr@$$CBU?$Path_@V?$allocator@X@std@@@nav_msgs@@@0@@ZPEAV34@U?$arg@$00@0@@Z
	??$bind@XVWaypointGlobalPlanner@waypoint_global_planner@@AEBV?$shared_ptr@$$CBU?$PointStamped_@V?$allocator@X@std@@@geometry_msgs@@@boost@@PEAV12@U?$arg@$00@4@@boost@@YA?AV?$bind_t@XV?$mf1@XVWaypointGlobalPlanner@waypoint_global_planner@@AEBV?$shared_ptr@$$CBU?$PointStamped_@V?$allocator@X@std@@@geometry_msgs@@@boost@@@_mfi@boost@@V?$list2@V?$value@PEAVWaypointGlobalPlanner@waypoint_global_planner@@@_bi@boost@@U?$arg@$00@3@@_bi@3@@_bi@0@P8WaypointGlobalPlanner@waypoint_global_planner@@EAAXAEBV?$shared_ptr@$$CBU?$PointStamped_@V?$allocator@X@std@@@geometry_msgs@@@0@@ZPEAV34@U?$arg@$00@0@@Z
	??$checked_array_delete@E@boost@@YAXPEAE@Z
	??$checked_delete@V?$clone_impl@Ubad_alloc_@exception_detail@boost@@@exception_detail@boost@@@boost@@YAXPEAV?$clone_impl@Ubad_alloc_@exception_detail@boost@@@exception_detail@0@@Z
	??$checked_delete@V?$clone_impl@Ubad_exception_@exception_detail@boost@@@exception_detail@boost@@@boost@@YAXPEAV?$clone_impl@Ubad_exception_@exception_detail@boost@@@exception_detail@0@@Z
	??$const_pointer_cast@U?$Path_@V?$allocator@X@std@@@nav_msgs@@$$CBU12@@boost@@YA?AV?$shared_ptr@U?$Path_@V?$allocator@X@std@@@nav_msgs@@@0@$$QEAV?$shared_ptr@$$CBU?$Path_@V?$allocator@X@std@@@nav_msgs@@@0@@Z
	??$const_pointer_cast@U?$Path_@V?$allocator@X@std@@@nav_msgs@@$$CBU12@@boost@@YA?AV?$shared_ptr@U?$Path_@V?$allocator@X@std@@@nav_msgs@@@0@AEBV?$shared_ptr@$$CBU?$Path_@V?$allocator@X@std@@@nav_msgs@@@0@@Z
	??$const_pointer_cast@U?$PointStamped_@V?$allocator@X@std@@@geometry_msgs@@$$CBU12@@boost@@YA?AV?$shared_ptr@U?$PointStamped_@V?$allocator@X@std@@@geometry_msgs@@@0@$$QEAV?$shared_ptr@$$CBU?$PointStamped_@V?$allocator@X@std@@@geometry_msgs@@@0@@Z
	??$const_pointer_cast@U?$PointStamped_@V?$allocator@X@std@@@geometry_msgs@@$$CBU12@@boost@@YA?AV?$shared_ptr@U?$PointStamped_@V?$allocator@X@std@@@geometry_msgs@@@0@AEBV?$shared_ptr@$$CBU?$PointStamped_@V?$allocator@X@std@@@geometry_msgs@@@0@@Z
	??$const_pointer_cast@X$$CBX@boost@@YA?AV?$shared_ptr@X@0@AEBV?$shared_ptr@$$CBX@0@@Z
	??$construct@U?$ColorRGBA_@V?$allocator@X@std@@@std_msgs@@AEAU12@@?$_Default_allocator_traits@V?$allocator@U?$ColorRGBA_@V?$allocator@X@std@@@std_msgs@@@std@@@std@@SAXAEAV?$allocator@U?$ColorRGBA_@V?$allocator@X@std@@@std_msgs@@@1@QEAU?$ColorRGBA_@V?$allocator@X@std@@@std_msgs@@AEAU34@@Z
	??$construct@U?$Marker_@V?$allocator@X@std@@@visualization_msgs@@AEBU12@@?$_Default_allocator_traits@V?$allocator@U?$Marker_@V?$allocator@X@std@@@visualization_msgs@@@std@@@std@@SAXAEAV?$allocator@U?$Marker_@V?$allocator@X@std@@@visualization_msgs@@@1@QEAU?$Marker_@V?$allocator@X@std@@@visualization_msgs@@AEBU34@@Z
	??$construct@U?$Marker_@V?$allocator@X@std@@@visualization_msgs@@U12@@?$_Default_allocator_traits@V?$allocator@U?$Marker_@V?$allocator@X@std@@@visualization_msgs@@@std@@@std@@SAXAEAV?$allocator@U?$Marker_@V?$allocator@X@std@@@visualization_msgs@@@1@QEAU?$Marker_@V?$allocator@X@std@@@visualization_msgs@@$$QEAU34@@Z
	??$construct@U?$Point_@V?$allocator@X@std@@@geometry_msgs@@AEAU12@@?$_Default_allocator_traits@V?$allocator@U?$Point_@V?$allocator@X@std@@@geometry_msgs@@@std@@@std@@SAXAEAV?$allocator@U?$Point_@V?$allocator@X@std@@@geometry_msgs@@@1@QEAU?$Point_@V?$allocator@X@std@@@geometry_msgs@@AEAU34@@Z
	??$construct@U?$PoseStamped_@V?$allocator@X@std@@@geometry_msgs@@$$V@?$_Default_allocator_traits@V?$allocator@U?$PoseStamped_@V?$allocator@X@std@@@geometry_msgs@@@std@@@std@@SAXAEAV?$allocator@U?$PoseStamped_@V?$allocator@X@std@@@geometry_msgs@@@1@QEAU?$PoseStamped_@V?$allocator@X@std@@@geometry_msgs@@@Z
	??$construct@U?$PoseStamped_@V?$allocator@X@std@@@geometry_msgs@@AEAU12@@?$_Default_allocator_traits@V?$allocator@U?$PoseStamped_@V?$allocator@X@std@@@geometry_msgs@@@std@@@std@@SAXAEAV?$allocator@U?$PoseStamped_@V?$allocator@X@std@@@geometry_msgs@@@1@QEAU?$PoseStamped_@V?$allocator@X@std@@@geometry_msgs@@AEAU34@@Z
	??$construct@U?$PoseStamped_@V?$allocator@X@std@@@geometry_msgs@@AEBU12@@?$_Default_allocator_traits@V?$allocator@U?$PoseStamped_@V?$allocator@X@std@@@geometry_msgs@@@std@@@std@@SAXAEAV?$allocator@U?$PoseStamped_@V?$allocator@X@std@@@geometry_msgs@@@1@QEAU?$PoseStamped_@V?$allocator@X@std@@@geometry_msgs@@AEBU34@@Z
	??$construct@U?$PoseStamped_@V?$allocator@X@std@@@geometry_msgs@@U12@@?$_Default_allocator_traits@V?$allocator@U?$PoseStamped_@V?$allocator@X@std@@@geometry_msgs@@@std@@@std@@SAXAEAV?$allocator@U?$PoseStamped_@V?$allocator@X@std@@@geometry_msgs@@@1@QEAU?$PoseStamped_@V?$allocator@X@std@@@geometry_msgs@@$$QEAU34@@Z
	??$construct@U?$pair@$$CBV?$basic_string@DU?$char_traits@D@std@@V?$allocator@D@2@@std@@PEAVAbstractMetaObjectBase@impl@class_loader@@@std@@AEBUpiecewise_construct_t@2@V?$tuple@AEBV?$basic_string@DU?$char_traits@D@std@@V?$allocator@D@2@@std@@@2@V?$tuple@$$V@2@@?$_Default_allocator_traits@V?$allocator@U?$_Tree_node@U?$pair@$$CBV?$basic_string@DU?$char_traits@D@std@@V?$allocator@D@2@@std@@PEAVAbstractMetaObjectBase@impl@class_loader@@@std@@PEAX@std@@@std@@@std@@SAXAEAV?$allocator@U?$_Tree_node@U?$pair@$$CBV?$basic_string@DU?$char_traits@D@std@@V?$allocator@D@2@@std@@PEAVAbstractMetaObjectBase@impl@class_loader@@@std@@PEAX@std@@@1@QEAU?$pair@$$CBV?$basic_string@DU?$char_traits@D@std@@V?$allocator@D@2@@std@@PEAVAbstractMetaObjectBase@impl@class_loader@@@1@AEBUpiecewise_construct_t@1@$$QEAV?$tuple@AEBV?$basic_string@DU?$char_traits@D@std@@V?$allocator@D@2@@std@@@1@$$QEAV?$tuple@$$V@1@@Z
	??$copyMessageIfNecessary@$$CBU?$Path_@V?$allocator@X@std@@@nav_msgs@@@?$MessageEvent@$$CBU?$Path_@V?$allocator@X@std@@@nav_msgs@@@ros@@AEBA?AV?$shared_ptr@$$CBU?$Path_@V?$allocator@X@std@@@nav_msgs@@@boost@@XZ
	??$copyMessageIfNecessary@$$CBU?$PointStamped_@V?$allocator@X@std@@@geometry_msgs@@@?$MessageEvent@$$CBU?$PointStamped_@V?$allocator@X@std@@@geometry_msgs@@@ros@@AEBA?AV?$shared_ptr@$$CBU?$PointStamped_@V?$allocator@X@std@@@geometry_msgs@@@boost@@XZ
	??$copyMessageIfNecessary@$$CBX@?$MessageEvent@$$CBX@ros@@AEBA?AV?$shared_ptr@$$CBX@boost@@XZ
	??$datatype@U?$MarkerArray_@V?$allocator@X@std@@@visualization_msgs@@@message_traits@ros@@YAPEBDXZ
	??$datatype@U?$Path_@V?$allocator@X@std@@@nav_msgs@@@message_traits@ros@@YAPEBDXZ
	??$datatype@U?$PointStamped_@V?$allocator@X@std@@@geometry_msgs@@@message_traits@ros@@YAPEBDXZ
	??$datatype@U?$PoseStamped_@V?$allocator@X@std@@@geometry_msgs@@@message_traits@ros@@YAPEBDXZ
	??$definition@U?$MarkerArray_@V?$allocator@X@std@@@visualization_msgs@@@message_traits@ros@@YAPEBDXZ
	??$definition@U?$Path_@V?$allocator@X@std@@@nav_msgs@@@message_traits@ros@@YAPEBDXZ
	??$definition@U?$PoseStamped_@V?$allocator@X@std@@@geometry_msgs@@@message_traits@ros@@YAPEBDXZ
	??$deserialize@IUIStream@serialization@ros@@@serialization@ros@@YAXAEAUIStream@01@AEAI@Z
	??$deserialize@NUIStream@serialization@ros@@@serialization@ros@@YAXAEAUIStream@01@AEAN@Z
	??$deserialize@U?$Header_@V?$allocator@X@std@@@std_msgs@@UIStream@serialization@ros@@@serialization@ros@@YAXAEAUIStream@01@AEAU?$Header_@V?$allocator@X@std@@@std_msgs@@@Z
	??$deserialize@U?$Path_@V?$allocator@X@std@@@nav_msgs@@UIStream@serialization@ros@@@serialization@ros@@YAXAEAUIStream@01@AEAU?$Path_@V?$allocator@X@std@@@nav_msgs@@@Z
	??$deserialize@U?$PointStamped_@V?$allocator@X@std@@@geometry_msgs@@UIStream@serialization@ros@@@serialization@ros@@YAXAEAUIStream@01@AEAU?$PointStamped_@V?$allocator@X@std@@@geometry_msgs@@@Z
	??$deserialize@U?$Point_@V?$allocator@X@std@@@geometry_msgs@@UIStream@serialization@ros@@@serialization@ros@@YAXAEAUIStream@01@AEAU?$Point_@V?$allocator@X@std@@@geometry_msgs@@@Z
	??$deserialize@U?$PoseStamped_@V?$allocator@X@std@@@geometry_msgs@@UIStream@serialization@ros@@@serialization@ros@@YAXAEAUIStream@01@AEAU?$PoseStamped_@V?$allocator@X@std@@@geometry_msgs@@@Z
	??$deserialize@U?$PoseStamped_@V?$allocator@X@std@@@geometry_msgs@@V?$allocator@U?$PoseStamped_@V?$allocator@X@std@@@geometry_msgs@@@std@@UIStream@serialization@ros@@@serialization@ros@@YAXAEAUIStream@01@AEAV?$vector@U?$PoseStamped_@V?$allocator@X@std@@@geometry_msgs@@V?$allocator@U?$PoseStamped_@V?$allocator@X@std@@@geometry_msgs@@@std@@@std@@@Z
	??$deserialize@U?$Pose_@V?$allocator@X@std@@@geometry_msgs@@UIStream@serialization@ros@@@serialization@ros@@YAXAEAUIStream@01@AEAU?$Pose_@V?$allocator@X@std@@@geometry_msgs@@@Z
	??$deserialize@U?$Quaternion_@V?$allocator@X@std@@@geometry_msgs@@UIStream@serialization@ros@@@serialization@ros@@YAXAEAUIStream@01@AEAU?$Quaternion_@V?$allocator@X@std@@@geometry_msgs@@@Z
	??$deserialize@V?$basic_string@DU?$char_traits@D@std@@V?$allocator@D@2@@std@@UIStream@serialization@ros@@@serialization@ros@@YAXAEAUIStream@01@AEAV?$basic_string@DU?$char_traits@D@std@@V?$allocator@D@2@@std@@@Z
	??$deserialize@VTime@ros@@UIStream@serialization@2@@serialization@ros@@YAXAEAUIStream@01@AEAVTime@1@@Z
	??$destroy@U?$Marker_@V?$allocator@X@std@@@visualization_msgs@@@?$_Default_allocator_traits@V?$allocator@U?$Marker_@V?$allocator@X@std@@@visualization_msgs@@@std@@@std@@SAXAEAV?$allocator@U?$Marker_@V?$allocator@X@std@@@visualization_msgs@@@1@QEAU?$Marker_@V?$allocator@X@std@@@visualization_msgs@@@Z
	??$destroy@U?$PoseStamped_@V?$allocator@X@std@@@geometry_msgs@@@?$_Default_allocator_traits@V?$allocator@U?$PoseStamped_@V?$allocator@X@std@@@geometry_msgs@@@std@@@std@@SAXAEAV?$allocator@U?$PoseStamped_@V?$allocator@X@std@@@geometry_msgs@@@1@QEAU?$PoseStamped_@V?$allocator@X@std@@@geometry_msgs@@@Z
	??$destroy@U?$pair@$$CBV?$basic_string@DU?$char_traits@D@std@@V?$allocator@D@2@@std@@PEAVAbstractMetaObjectBase@impl@class_loader@@@std@@@?$_Default_allocator_traits@V?$allocator@U?$_Tree_node@U?$pair@$$CBV?$basic_string@DU?$char_traits@D@std@@V?$allocator@D@2@@std@@PEAVAbstractMetaObjectBase@impl@class_loader@@@std@@PEAX@std@@@std@@@std@@SAXAEAV?$allocator@U?$_Tree_node@U?$pair@$$CBV?$basic_string@DU?$char_traits@D@std@@V?$allocator@D@2@@std@@PEAVAbstractMetaObjectBase@impl@class_loader@@@std@@PEAX@std@@@1@QEAU?$pair@$$CBV?$basic_string@DU?$char_traits@D@std@@V?$allocator@D@2@@std@@PEAVAbstractMetaObjectBase@impl@class_loader@@@1@@Z
	??$destroy@U?$pair@$$CBV?$basic_string@DU?$char_traits@D@std@@V?$allocator@D@2@@std@@V12@@std@@@?$_Default_allocator_traits@V?$allocator@U?$_Tree_node@U?$pair@$$CBV?$basic_string@DU?$char_traits@D@std@@V?$allocator@D@2@@std@@V12@@std@@PEAX@std@@@std@@@std@@SAXAEAV?$allocator@U?$_Tree_node@U?$pair@$$CBV?$basic_string@DU?$char_traits@D@std@@V?$allocator@D@2@@std@@V12@@std@@PEAX@std@@@1@QEAU?$pair@$$CBV?$basic_string@DU?$char_traits@D@std@@V?$allocator@D@2@@std@@V12@@1@@Z
	??$distance@PEAU?$PoseStamped_@V?$allocator@X@std@@@geometry_msgs@@@std@@YA_JPEAU?$PoseStamped_@V?$allocator@X@std@@@geometry_msgs@@0@Z
	??$emplace@AEBU?$PoseStamped_@V?$allocator@X@std@@@geometry_msgs@@@?$vector@U?$PoseStamped_@V?$allocator@X@std@@@geometry_msgs@@V?$allocator@U?$PoseStamped_@V?$allocator@X@std@@@geometry_msgs@@@std@@@std@@QEAA?AV?$_Vector_iterator@V?$_Vector_val@U?$_Simple_types@U?$PoseStamped_@V?$allocator@X@std@@@geometry_msgs@@@std@@@std@@@1@V?$_Vector_const_iterator@V?$_Vector_val@U?$_Simple_types@U?$PoseStamped_@V?$allocator@X@std@@@geometry_msgs@@@std@@@std@@@1@AEBU?$PoseStamped_@V?$allocator@X@std@@@geometry_msgs@@@Z
	??$enable_current_exception@U?$error_info_injector@Vbad_function_call@boost@@@exception_detail@boost@@@boost@@YA?AV?$clone_impl@U?$error_info_injector@Vbad_function_call@boost@@@exception_detail@boost@@@exception_detail@0@AEBU?$error_info_injector@Vbad_function_call@boost@@@20@@Z
	??$enable_current_exception@U?$error_info_injector@Vthread_resource_error@boost@@@exception_detail@boost@@@boost@@YA?AV?$clone_impl@U?$error_info_injector@Vthread_resource_error@boost@@@exception_detail@boost@@@exception_detail@0@AEBU?$error_info_injector@Vthread_resource_error@boost@@@20@@Z
	??$enable_error_info@Vbad_function_call@boost@@@boost@@YA?AU?$error_info_injector@Vbad_function_call@boost@@@exception_detail@0@AEBVbad_function_call@0@@Z
	??$enable_error_info@Vthread_resource_error@boost@@@boost@@YA?AU?$error_info_injector@Vthread_resource_error@boost@@@exception_detail@0@AEBVthread_resource_error@0@@Z
	??$exchange@PEAU?$ColorRGBA_@V?$allocator@X@std@@@std_msgs@@$$T@std@@YAPEAU?$ColorRGBA_@V?$allocator@X@std@@@std_msgs@@AEAPEAU12@$$QEA$$T@Z
	??$exchange@PEAU?$Point_@V?$allocator@X@std@@@geometry_msgs@@$$T@std@@YAPEAU?$Point_@V?$allocator@X@std@@@geometry_msgs@@AEAPEAU12@$$QEA$$T@Z
	??$exchange@PEAU?$_Tree_node@U?$pair@$$CBV?$basic_string@DU?$char_traits@D@std@@V?$allocator@D@2@@std@@PEAVAbstractMetaObjectBase@impl@class_loader@@@std@@PEAX@std@@$$T@std@@YAPEAU?$_Tree_node@U?$pair@$$CBV?$basic_string@DU?$char_traits@D@std@@V?$allocator@D@2@@std@@PEAVAbstractMetaObjectBase@impl@class_loader@@@std@@PEAX@0@AEAPEAU10@$$QEA$$T@Z
	??$exchange@PEAU?$_Tree_node@U?$pair@$$CBV?$basic_string@DU?$char_traits@D@std@@V?$allocator@D@2@@std@@V12@@std@@PEAX@std@@AEAPEAU12@@std@@YAPEAU?$_Tree_node@U?$pair@$$CBV?$basic_string@DU?$char_traits@D@std@@V?$allocator@D@2@@std@@V12@@std@@PEAX@0@AEAPEAU10@0@Z
	??$forward@AEAPEAD@std@@YAAEAPEADAEAPEAD@Z
	??$forward@AEAPEAU?$_Tree_node@U?$pair@$$CBV?$basic_string@DU?$char_traits@D@std@@V?$allocator@D@2@@std@@PEAVAbstractMetaObjectBase@impl@class_loader@@@std@@PEAX@std@@@std@@YAAEAPEAU?$_Tree_node@U?$pair@$$CBV?$basic_string@DU?$char_traits@D@std@@V?$allocator@D@2@@std@@PEAVAbstractMetaObjectBase@impl@class_loader@@@std@@PEAX@0@AEAPEAU10@@Z
	??$forward@AEAU?$ColorRGBA_@V?$allocator@X@std@@@std_msgs@@@std@@YAAEAU?$ColorRGBA_@V?$allocator@X@std@@@std_msgs@@AEAU12@@Z
	??$forward@AEAU?$Point_@V?$allocator@X@std@@@geometry_msgs@@@std@@YAAEAU?$Point_@V?$allocator@X@std@@@geometry_msgs@@AEAU12@@Z
	??$forward@AEAU?$PoseStamped_@V?$allocator@X@std@@@geometry_msgs@@@std@@YAAEAU?$PoseStamped_@V?$allocator@X@std@@@geometry_msgs@@AEAU12@@Z
	??$forward@AEBQEAD@std@@YAAEBQEADAEBQEAD@Z
	??$forward@AEBQEAU?$ColorRGBA_@V?$allocator@X@std@@@std_msgs@@@std@@YAAEBQEAU?$ColorRGBA_@V?$allocator@X@std@@@std_msgs@@AEBQEAU12@@Z
	??$forward@AEBQEAU?$Point_@V?$allocator@X@std@@@geometry_msgs@@@std@@YAAEBQEAU?$Point_@V?$allocator@X@std@@@geometry_msgs@@AEBQEAU12@@Z
	??$forward@AEBQEAU?$_Tree_node@U?$pair@$$CBV?$basic_string@DU?$char_traits@D@std@@V?$allocator@D@2@@std@@PEAVAbstractMetaObjectBase@impl@class_loader@@@std@@PEAX@std@@@std@@YAAEBQEAU?$_Tree_node@U?$pair@$$CBV?$basic_string@DU?$char_traits@D@std@@V?$allocator@D@2@@std@@PEAVAbstractMetaObjectBase@impl@class_loader@@@std@@PEAX@0@AEBQEAU10@@Z
	??$forward@AEBQEAU?$_Tree_node@U?$pair@$$CBV?$basic_string@DU?$char_traits@D@std@@V?$allocator@D@2@@std@@V12@@std@@PEAX@std@@@std@@YAAEBQEAU?$_Tree_node@U?$pair@$$CBV?$basic_string@DU?$char_traits@D@std@@V?$allocator@D@2@@std@@V12@@std@@PEAX@0@AEBQEAU10@@Z
	??$forward@AEBU?$Marker_@V?$allocator@X@std@@@visualization_msgs@@@std@@YAAEBU?$Marker_@V?$allocator@X@std@@@visualization_msgs@@AEBU12@@Z
	??$forward@AEBU?$PoseStamped_@V?$allocator@X@std@@@geometry_msgs@@@std@@YAAEBU?$PoseStamped_@V?$allocator@X@std@@@geometry_msgs@@AEBU12@@Z
	??$forward@AEBU?$less@V?$basic_string@DU?$char_traits@D@std@@V?$allocator@D@2@@std@@@std@@@std@@YAAEBU?$less@V?$basic_string@DU?$char_traits@D@std@@V?$allocator@D@2@@std@@@0@AEBU10@@Z
	??$forward@AEBUpiecewise_construct_t@std@@@std@@YAAEBUpiecewise_construct_t@0@AEBU10@@Z
	??$forward@AEBV?$basic_string@DU?$char_traits@D@std@@V?$allocator@D@2@@std@@@std@@YAAEBV?$basic_string@DU?$char_traits@D@std@@V?$allocator@D@2@@0@AEBV10@@Z
	??$forward@AEBV?$shared_ptr@$$CBU?$Path_@V?$allocator@X@std@@@nav_msgs@@@boost@@@boost@@YAAEBV?$shared_ptr@$$CBU?$Path_@V?$allocator@X@std@@@nav_msgs@@@0@AEBV10@@Z
	??$forward@AEBV?$shared_ptr@$$CBU?$Path_@V?$allocator@X@std@@@nav_msgs@@@boost@@@std@@YAAEBV?$shared_ptr@$$CBU?$Path_@V?$allocator@X@std@@@nav_msgs@@@boost@@AEBV12@@Z
	??$forward@AEBV?$shared_ptr@$$CBU?$PointStamped_@V?$allocator@X@std@@@geometry_msgs@@@boost@@@boost@@YAAEBV?$shared_ptr@$$CBU?$PointStamped_@V?$allocator@X@std@@@geometry_msgs@@@0@AEBV10@@Z
	??$forward@AEBV?$shared_ptr@$$CBU?$PointStamped_@V?$allocator@X@std@@@geometry_msgs@@@boost@@@std@@YAAEBV?$shared_ptr@$$CBU?$PointStamped_@V?$allocator@X@std@@@geometry_msgs@@@boost@@AEBV12@@Z
	??$forward@PEAU?$ColorRGBA_@V?$allocator@X@std@@@std_msgs@@@std@@YA$$QEAPEAU?$ColorRGBA_@V?$allocator@X@std@@@std_msgs@@AEAPEAU12@@Z
	??$forward@PEAU?$Point_@V?$allocator@X@std@@@geometry_msgs@@@std@@YA$$QEAPEAU?$Point_@V?$allocator@X@std@@@geometry_msgs@@AEAPEAU12@@Z
	??$forward@PEAU?$_Tree_node@U?$pair@$$CBV?$basic_string@DU?$char_traits@D@std@@V?$allocator@D@2@@std@@PEAVAbstractMetaObjectBase@impl@class_loader@@@std@@PEAX@std@@@std@@YA$$QEAPEAU?$_Tree_node@U?$pair@$$CBV?$basic_string@DU?$char_traits@D@std@@V?$allocator@D@2@@std@@PEAVAbstractMetaObjectBase@impl@class_loader@@@std@@PEAX@0@AEAPEAU10@@Z
	??$forward@U?$Marker_@V?$allocator@X@std@@@visualization_msgs@@@std@@YA$$QEAU?$Marker_@V?$allocator@X@std@@@visualization_msgs@@AEAU12@@Z
	??$forward@U?$PoseStamped_@V?$allocator@X@std@@@geometry_msgs@@@std@@YA$$QEAU?$PoseStamped_@V?$allocator@X@std@@@geometry_msgs@@AEAU12@@Z
	??$forward@U_Zero_then_variadic_args_t@std@@@std@@YA$$QEAU_Zero_then_variadic_args_t@0@AEAU10@@Z
	??$forward@V?$allocator@D@std@@@std@@YA$$QEAV?$allocator@D@0@AEAV10@@Z
	??$forward@V?$allocator@U?$ColorRGBA_@V?$allocator@X@std@@@std_msgs@@@std@@@std@@YA$$QEAV?$allocator@U?$ColorRGBA_@V?$allocator@X@std@@@std_msgs@@@0@AEAV10@@Z
	??$forward@V?$allocator@U?$Point_@V?$allocator@X@std@@@geometry_msgs@@@std@@@std@@YA$$QEAV?$allocator@U?$Point_@V?$allocator@X@std@@@geometry_msgs@@@0@AEAV10@@Z
	??$forward@V?$shared_ptr@$$CBU?$Path_@V?$allocator@X@std@@@nav_msgs@@@boost@@@boost@@YA$$QEAV?$shared_ptr@$$CBU?$Path_@V?$allocator@X@std@@@nav_msgs@@@0@AEAV10@@Z
	??$forward@V?$shared_ptr@$$CBU?$PointStamped_@V?$allocator@X@std@@@geometry_msgs@@@boost@@@boost@@YA$$QEAV?$shared_ptr@$$CBU?$PointStamped_@V?$allocator@X@std@@@geometry_msgs@@@0@AEAV10@@Z
	??$forward@V?$tuple@$$V@std@@@std@@YA$$QEAV?$tuple@$$V@0@AEAV10@@Z
	??$forward@V?$tuple@AEBV?$basic_string@DU?$char_traits@D@std@@V?$allocator@D@2@@std@@@std@@@std@@YA$$QEAV?$tuple@AEBV?$basic_string@DU?$char_traits@D@std@@V?$allocator@D@2@@std@@@0@AEAV10@@Z
	??$forward@_N@std@@YA$$QEA_NAEA_N@Z
	??$forward_as_tuple@$$V@std@@YA?AV?$tuple@$$V@0@XZ
	??$forward_as_tuple@AEBV?$basic_string@DU?$char_traits@D@std@@V?$allocator@D@2@@std@@@std@@YA?AV?$tuple@AEBV?$basic_string@DU?$char_traits@D@std@@V?$allocator@D@2@@std@@@0@AEBV?$basic_string@DU?$char_traits@D@std@@V?$allocator@D@2@@0@@Z
	??$getFactoryMapForBaseClass@VBaseGlobalPlanner@nav_core@@@impl@class_loader@@YAAEAV?$map@V?$basic_string@DU?$char_traits@D@std@@V?$allocator@D@2@@std@@PEAVAbstractMetaObjectBase@impl@class_loader@@U?$less@V?$basic_string@DU?$char_traits@D@std@@V?$allocator@D@2@@std@@@2@V?$allocator@U?$pair@$$CBV?$basic_string@DU?$char_traits@D@std@@V?$allocator@D@2@@std@@PEAVAbstractMetaObjectBase@impl@class_loader@@@std@@@2@@std@@XZ
	??$get_local_deleter@U?$checked_array_deleter@E@boost@@@detail@boost@@YAPEAU?$checked_array_deleter@E@1@PEAU21@@Z
	??$get_local_deleter@V?$sp_ms_deleter@U?$Path_@V?$allocator@X@std@@@nav_msgs@@@detail@boost@@@detail@boost@@YAPEAV?$sp_ms_deleter@U?$Path_@V?$allocator@X@std@@@nav_msgs@@@01@PEAV201@@Z
	??$get_local_deleter@V?$sp_ms_deleter@U?$PointStamped_@V?$allocator@X@std@@@geometry_msgs@@@detail@boost@@@detail@boost@@YAPEAV?$sp_ms_deleter@U?$PointStamped_@V?$allocator@X@std@@@geometry_msgs@@@01@PEAV201@@Z
	??$get_local_deleter@V?$sp_ms_deleter@V?$SubscriptionCallbackHelperT@AEBV?$shared_ptr@$$CBU?$Path_@V?$allocator@X@std@@@nav_msgs@@@boost@@X@ros@@@detail@boost@@@detail@boost@@YAPEAV?$sp_ms_deleter@V?$SubscriptionCallbackHelperT@AEBV?$shared_ptr@$$CBU?$Path_@V?$allocator@X@std@@@nav_msgs@@@boost@@X@ros@@@01@PEAV201@@Z
	??$get_local_deleter@V?$sp_ms_deleter@V?$SubscriptionCallbackHelperT@AEBV?$shared_ptr@$$CBU?$PointStamped_@V?$allocator@X@std@@@geometry_msgs@@@boost@@X@ros@@@detail@boost@@@detail@boost@@YAPEAV?$sp_ms_deleter@V?$SubscriptionCallbackHelperT@AEBV?$shared_ptr@$$CBU?$PointStamped_@V?$allocator@X@std@@@geometry_msgs@@@boost@@X@ros@@@01@PEAV201@@Z
	??$get_static_exception_object@Ubad_alloc_@exception_detail@boost@@@exception_detail@boost@@YA?AVexception_ptr@1@XZ
	??$get_static_exception_object@Ubad_exception_@exception_detail@boost@@@exception_detail@boost@@YA?AVexception_ptr@1@XZ
	??$hasHeader@U?$MarkerArray_@V?$allocator@X@std@@@visualization_msgs@@@message_traits@ros@@YA_NXZ
	??$hasHeader@U?$Path_@V?$allocator@X@std@@@nav_msgs@@@message_traits@ros@@YA_NXZ
	??$hasHeader@U?$PointStamped_@V?$allocator@X@std@@@geometry_msgs@@@message_traits@ros@@YA_NXZ
	??$hasHeader@U?$PoseStamped_@V?$allocator@X@std@@@geometry_msgs@@@message_traits@ros@@YA_NXZ
	??$init@U?$MarkerArray_@V?$allocator@X@std@@@visualization_msgs@@@AdvertiseOptions@ros@@QEAAXAEBV?$basic_string@DU?$char_traits@D@std@@V?$allocator@D@2@@std@@IAEBV?$function@$$A6AXAEBVSingleSubscriberPublisher@ros@@@Z@boost@@1@Z
	??$init@U?$Path_@V?$allocator@X@std@@@nav_msgs@@@AdvertiseOptions@ros@@QEAAXAEBV?$basic_string@DU?$char_traits@D@std@@V?$allocator@D@2@@std@@IAEBV?$function@$$A6AXAEBVSingleSubscriberPublisher@ros@@@Z@boost@@1@Z
	??$init@U?$Path_@V?$allocator@X@std@@@nav_msgs@@@SubscribeOptions@ros@@QEAAXAEBV?$basic_string@DU?$char_traits@D@std@@V?$allocator@D@2@@std@@IAEBV?$function@$$A6AXAEBV?$shared_ptr@$$CBU?$Path_@V?$allocator@X@std@@@nav_msgs@@@boost@@@Z@boost@@AEBV?$function@$$A6A?AV?$shared_ptr@U?$Path_@V?$allocator@X@std@@@nav_msgs@@@boost@@XZ@5@@Z
	??$init@U?$PointStamped_@V?$allocator@X@std@@@geometry_msgs@@@SubscribeOptions@ros@@QEAAXAEBV?$basic_string@DU?$char_traits@D@std@@V?$allocator@D@2@@std@@IAEBV?$function@$$A6AXAEBV?$shared_ptr@$$CBU?$PointStamped_@V?$allocator@X@std@@@geometry_msgs@@@boost@@@Z@boost@@AEBV?$function@$$A6A?AV?$shared_ptr@U?$PointStamped_@V?$allocator@X@std@@@geometry_msgs@@@boost@@XZ@5@@Z
	??$init@U?$PoseStamped_@V?$allocator@X@std@@@geometry_msgs@@@AdvertiseOptions@ros@@QEAAXAEBV?$basic_string@DU?$char_traits@D@std@@V?$allocator@D@2@@std@@IAEBV?$function@$$A6AXAEBVSingleSubscriberPublisher@ros@@@Z@boost@@1@Z
	??$insert@V?$_Vector_iterator@V?$_Vector_val@U?$_Simple_types@U?$PoseStamped_@V?$allocator@X@std@@@geometry_msgs@@@std@@@std@@@std@@$0A@@?$vector@U?$PoseStamped_@V?$allocator@X@std@@@geometry_msgs@@V?$allocator@U?$PoseStamped_@V?$allocator@X@std@@@geometry_msgs@@@std@@@std@@QEAA?AV?$_Vector_iterator@V?$_Vector_val@U?$_Simple_types@U?$PoseStamped_@V?$allocator@X@std@@@geometry_msgs@@@std@@@std@@@1@V?$_Vector_const_iterator@V?$_Vector_val@U?$_Simple_types@U?$PoseStamped_@V?$allocator@X@std@@@geometry_msgs@@@std@@@std@@@1@V21@1@Z
	??$make_shared@U?$Path_@V?$allocator@X@std@@@nav_msgs@@$$V@boost@@YA?AV?$shared_ptr@U?$Path_@V?$allocator@X@std@@@nav_msgs@@@0@XZ
	??$make_shared@U?$PointStamped_@V?$allocator@X@std@@@geometry_msgs@@$$V@boost@@YA?AV?$shared_ptr@U?$PointStamped_@V?$allocator@X@std@@@geometry_msgs@@@0@XZ
	??$make_shared@V?$SubscriptionCallbackHelperT@AEBV?$shared_ptr@$$CBU?$Path_@V?$allocator@X@std@@@nav_msgs@@@boost@@X@ros@@AEBV?$function@$$A6AXAEBV?$shared_ptr@$$CBU?$Path_@V?$allocator@X@std@@@nav_msgs@@@boost@@@Z@boost@@AEBV?$function@$$A6A?AV?$shared_ptr@U?$Path_@V?$allocator@X@std@@@nav_msgs@@@boost@@XZ@4@@boost@@YA?AV?$shared_ptr@V?$SubscriptionCallbackHelperT@AEBV?$shared_ptr@$$CBU?$Path_@V?$allocator@X@std@@@nav_msgs@@@boost@@X@ros@@@0@AEBV?$function@$$A6AXAEBV?$shared_ptr@$$CBU?$Path_@V?$allocator@X@std@@@nav_msgs@@@boost@@@Z@0@AEBV?$function@$$A6A?AV?$shared_ptr@U?$Path_@V?$allocator@X@std@@@nav_msgs@@@boost@@XZ@0@@Z
	??$make_shared@V?$SubscriptionCallbackHelperT@AEBV?$shared_ptr@$$CBU?$PointStamped_@V?$allocator@X@std@@@geometry_msgs@@@boost@@X@ros@@AEBV?$function@$$A6AXAEBV?$shared_ptr@$$CBU?$PointStamped_@V?$allocator@X@std@@@geometry_msgs@@@boost@@@Z@boost@@AEBV?$function@$$A6A?AV?$shared_ptr@U?$PointStamped_@V?$allocator@X@std@@@geometry_msgs@@@boost@@XZ@4@@boost@@YA?AV?$shared_ptr@V?$SubscriptionCallbackHelperT@AEBV?$shared_ptr@$$CBU?$PointStamped_@V?$allocator@X@std@@@geometry_msgs@@@boost@@X@ros@@@0@AEBV?$function@$$A6AXAEBV?$shared_ptr@$$CBU?$PointStamped_@V?$allocator@X@std@@@geometry_msgs@@@boost@@@Z@0@AEBV?$function@$$A6A?AV?$shared_ptr@U?$PointStamped_@V?$allocator@X@std@@@geometry_msgs@@@boost@@XZ@0@@Z
	??$max@_K@std@@YAAEB_KAEB_K0@Z
	??$md5sum@U?$MarkerArray_@V?$allocator@X@std@@@visualization_msgs@@@message_traits@ros@@YAPEBDXZ
	??$md5sum@U?$Path_@V?$allocator@X@std@@@nav_msgs@@@message_traits@ros@@YAPEBDXZ
	??$md5sum@U?$PointStamped_@V?$allocator@X@std@@@geometry_msgs@@@message_traits@ros@@YAPEBDXZ
	??$md5sum@U?$PoseStamped_@V?$allocator@X@std@@@geometry_msgs@@@message_traits@ros@@YAPEBDXZ
	??$min@_K@std@@YAAEB_KAEB_K0@Z
	??$move@AEAPEAE@std@@YA$$QEAPEAEAEAPEAE@Z
	??$move@AEAPEAU?$ColorRGBA_@V?$allocator@X@std@@@std_msgs@@@std@@YA$$QEAPEAU?$ColorRGBA_@V?$allocator@X@std@@@std_msgs@@AEAPEAU12@@Z
	??$move@AEAPEAU?$Path_@V?$allocator@X@std@@@nav_msgs@@@std@@YA$$QEAPEAU?$Path_@V?$allocator@X@std@@@nav_msgs@@AEAPEAU12@@Z
	??$move@AEAPEAU?$PointStamped_@V?$allocator@X@std@@@geometry_msgs@@@std@@YA$$QEAPEAU?$PointStamped_@V?$allocator@X@std@@@geometry_msgs@@AEAPEAU12@@Z
	??$move@AEAPEAU?$Point_@V?$allocator@X@std@@@geometry_msgs@@@std@@YA$$QEAPEAU?$Point_@V?$allocator@X@std@@@geometry_msgs@@AEAPEAU12@@Z
	??$move@AEAPEAU?$PoseStamped_@V?$allocator@X@std@@@geometry_msgs@@@std@@YA$$QEAPEAU?$PoseStamped_@V?$allocator@X@std@@@geometry_msgs@@AEAPEAU12@@Z
	??$move@AEAPEAV?$map@V?$basic_string@DU?$char_traits@D@std@@V?$allocator@D@2@@std@@V12@U?$less@V?$basic_string@DU?$char_traits@D@std@@V?$allocator@D@2@@std@@@2@V?$allocator@U?$pair@$$CBV?$basic_string@DU?$char_traits@D@std@@V?$allocator@D@2@@std@@V12@@std@@@2@@std@@@std@@YA$$QEAPEAV?$map@V?$basic_string@DU?$char_traits@D@std@@V?$allocator@D@2@@std@@V12@U?$less@V?$basic_string@DU?$char_traits@D@std@@V?$allocator@D@2@@std@@@2@V?$allocator@U?$pair@$$CBV?$basic_string@DU?$char_traits@D@std@@V?$allocator@D@2@@std@@V12@@std@@@2@@0@AEAPEAV10@@Z
	??$move@AEAPEAVSubscriptionCallbackHelper@ros@@@std@@YA$$QEAPEAVSubscriptionCallbackHelper@ros@@AEAPEAV12@@Z
	??$move@AEAPEBU?$Path_@V?$allocator@X@std@@@nav_msgs@@@std@@YA$$QEAPEBU?$Path_@V?$allocator@X@std@@@nav_msgs@@AEAPEBU12@@Z
	??$move@AEAPEBU?$PointStamped_@V?$allocator@X@std@@@geometry_msgs@@@std@@YA$$QEAPEBU?$PointStamped_@V?$allocator@X@std@@@geometry_msgs@@AEAPEBU12@@Z
	??$move@AEAU?$Marker_@V?$allocator@X@std@@@visualization_msgs@@@std@@YA$$QEAU?$Marker_@V?$allocator@X@std@@@visualization_msgs@@AEAU12@@Z
	??$move@AEAU?$PoseStamped_@V?$allocator@X@std@@@geometry_msgs@@@std@@YA$$QEAU?$PoseStamped_@V?$allocator@X@std@@@geometry_msgs@@AEAU12@@Z
	??$move@AEAV?$allocator@D@std@@@std@@YA$$QEAV?$allocator@D@0@AEAV10@@Z
	??$move@AEAV?$allocator@U?$ColorRGBA_@V?$allocator@X@std@@@std_msgs@@@std@@@std@@YA$$QEAV?$allocator@U?$ColorRGBA_@V?$allocator@X@std@@@std_msgs@@@0@AEAV10@@Z
	??$move@AEAV?$allocator@U?$Point_@V?$allocator@X@std@@@geometry_msgs@@@std@@@std@@YA$$QEAV?$allocator@U?$Point_@V?$allocator@X@std@@@geometry_msgs@@@0@AEAV10@@Z
	??$move@AEAV?$error_info@Uthrow_file_@boost@@PEBD@boost@@@std@@YA$$QEAV?$error_info@Uthrow_file_@boost@@PEBD@boost@@AEAV12@@Z
	??$move@AEAV?$error_info@Uthrow_function_@boost@@PEBD@boost@@@std@@YA$$QEAV?$error_info@Uthrow_function_@boost@@PEBD@boost@@AEAV12@@Z
	??$move@AEAV?$error_info@Uthrow_line_@boost@@H@boost@@@std@@YA$$QEAV?$error_info@Uthrow_line_@boost@@H@boost@@AEAV12@@Z
	??$move@AEAV?$shared_ptr@$$CBU?$Path_@V?$allocator@X@std@@@nav_msgs@@@boost@@@std@@YA$$QEAV?$shared_ptr@$$CBU?$Path_@V?$allocator@X@std@@@nav_msgs@@@boost@@AEAV12@@Z
	??$move@AEAV?$shared_ptr@$$CBU?$PointStamped_@V?$allocator@X@std@@@geometry_msgs@@@boost@@@std@@YA$$QEAV?$shared_ptr@$$CBU?$PointStamped_@V?$allocator@X@std@@@geometry_msgs@@@boost@@AEAV12@@Z
	??$move@AEAV?$shared_ptr@$$CBX@boost@@@std@@YA$$QEAV?$shared_ptr@$$CBX@boost@@AEAV12@@Z
	??$move@AEAV?$tuple@AEBV?$basic_string@DU?$char_traits@D@std@@V?$allocator@D@2@@std@@@std@@@std@@YA$$QEAV?$tuple@AEBV?$basic_string@DU?$char_traits@D@std@@V?$allocator@D@2@@std@@@0@AEAV10@@Z
	??$next@E@LStream@serialization@ros@@QEAAXAEBE@Z
	??$next@E@OStream@serialization@ros@@QEAAXAEBE@Z
	??$next@H@LStream@serialization@ros@@QEAAXAEBH@Z
	??$next@H@OStream@serialization@ros@@QEAAXAEBH@Z
	??$next@I@IStream@serialization@ros@@QEAAXAEAI@Z
	??$next@I@LStream@serialization@ros@@QEAAXAEBI@Z
	??$next@I@OStream@serialization@ros@@QEAAXAEBI@Z
	??$next@M@LStream@serialization@ros@@QEAAXAEBM@Z
	??$next@M@OStream@serialization@ros@@QEAAXAEBM@Z
	??$next@N@IStream@serialization@ros@@QEAAXAEAN@Z
	??$next@N@LStream@serialization@ros@@QEAAXAEBN@Z
	??$next@N@OStream@serialization@ros@@QEAAXAEBN@Z
	??$next@U?$ColorRGBA_@V?$allocator@X@std@@@std_msgs@@@LStream@serialization@ros@@QEAAXAEBU?$ColorRGBA_@V?$allocator@X@std@@@std_msgs@@@Z
	??$next@U?$ColorRGBA_@V?$allocator@X@std@@@std_msgs@@@OStream@serialization@ros@@QEAAXAEBU?$ColorRGBA_@V?$allocator@X@std@@@std_msgs@@@Z
	??$next@U?$Header_@V?$allocator@X@std@@@std_msgs@@@IStream@serialization@ros@@QEAAXAEAU?$Header_@V?$allocator@X@std@@@std_msgs@@@Z
	??$next@U?$Header_@V?$allocator@X@std@@@std_msgs@@@LStream@serialization@ros@@QEAAXAEBU?$Header_@V?$allocator@X@std@@@std_msgs@@@Z
	??$next@U?$Header_@V?$allocator@X@std@@@std_msgs@@@OStream@serialization@ros@@QEAAXAEBU?$Header_@V?$allocator@X@std@@@std_msgs@@@Z
	??$next@U?$Marker_@V?$allocator@X@std@@@visualization_msgs@@@OStream@serialization@ros@@QEAAXAEBU?$Marker_@V?$allocator@X@std@@@visualization_msgs@@@Z
	??$next@U?$Point_@V?$allocator@X@std@@@geometry_msgs@@@IStream@serialization@ros@@QEAAXAEAU?$Point_@V?$allocator@X@std@@@geometry_msgs@@@Z
	??$next@U?$Point_@V?$allocator@X@std@@@geometry_msgs@@@LStream@serialization@ros@@QEAAXAEBU?$Point_@V?$allocator@X@std@@@geometry_msgs@@@Z
	??$next@U?$Point_@V?$allocator@X@std@@@geometry_msgs@@@OStream@serialization@ros@@QEAAXAEBU?$Point_@V?$allocator@X@std@@@geometry_msgs@@@Z
	??$next@U?$PoseStamped_@V?$allocator@X@std@@@geometry_msgs@@@IStream@serialization@ros@@QEAAXAEAU?$PoseStamped_@V?$allocator@X@std@@@geometry_msgs@@@Z
	??$next@U?$PoseStamped_@V?$allocator@X@std@@@geometry_msgs@@@OStream@serialization@ros@@QEAAXAEBU?$PoseStamped_@V?$allocator@X@std@@@geometry_msgs@@@Z
	??$next@U?$Pose_@V?$allocator@X@std@@@geometry_msgs@@@IStream@serialization@ros@@QEAAXAEAU?$Pose_@V?$allocator@X@std@@@geometry_msgs@@@Z
	??$next@U?$Pose_@V?$allocator@X@std@@@geometry_msgs@@@LStream@serialization@ros@@QEAAXAEBU?$Pose_@V?$allocator@X@std@@@geometry_msgs@@@Z
	??$next@U?$Pose_@V?$allocator@X@std@@@geometry_msgs@@@OStream@serialization@ros@@QEAAXAEBU?$Pose_@V?$allocator@X@std@@@geometry_msgs@@@Z
	??$next@U?$Quaternion_@V?$allocator@X@std@@@geometry_msgs@@@IStream@serialization@ros@@QEAAXAEAU?$Quaternion_@V?$allocator@X@std@@@geometry_msgs@@@Z
	??$next@U?$Quaternion_@V?$allocator@X@std@@@geometry_msgs@@@LStream@serialization@ros@@QEAAXAEBU?$Quaternion_@V?$allocator@X@std@@@geometry_msgs@@@Z
	??$next@U?$Quaternion_@V?$allocator@X@std@@@geometry_msgs@@@OStream@serialization@ros@@QEAAXAEBU?$Quaternion_@V?$allocator@X@std@@@geometry_msgs@@@Z
	??$next@U?$Vector3_@V?$allocator@X@std@@@geometry_msgs@@@LStream@serialization@ros@@QEAAXAEBU?$Vector3_@V?$allocator@X@std@@@geometry_msgs@@@Z
	??$next@U?$Vector3_@V?$allocator@X@std@@@geometry_msgs@@@OStream@serialization@ros@@QEAAXAEBU?$Vector3_@V?$allocator@X@std@@@geometry_msgs@@@Z
	??$next@V?$basic_string@DU?$char_traits@D@std@@V?$allocator@D@2@@std@@@IStream@serialization@ros@@QEAAXAEAV?$basic_string@DU?$char_traits@D@std@@V?$allocator@D@2@@std@@@Z
	??$next@V?$basic_string@DU?$char_traits@D@std@@V?$allocator@D@2@@std@@@LStream@serialization@ros@@QEAAXAEBV?$basic_string@DU?$char_traits@D@std@@V?$allocator@D@2@@std@@@Z
	??$next@V?$basic_string@DU?$char_traits@D@std@@V?$allocator@D@2@@std@@@OStream@serialization@ros@@QEAAXAEBV?$basic_string@DU?$char_traits@D@std@@V?$allocator@D@2@@std@@@Z
	??$next@V?$vector@U?$ColorRGBA_@V?$allocator@X@std@@@std_msgs@@V?$allocator@U?$ColorRGBA_@V?$allocator@X@std@@@std_msgs@@@std@@@std@@@LStream@serialization@ros@@QEAAXAEBV?$vector@U?$ColorRGBA_@V?$allocator@X@std@@@std_msgs@@V?$allocator@U?$ColorRGBA_@V?$allocator@X@std@@@std_msgs@@@std@@@std@@@Z
	??$next@V?$vector@U?$ColorRGBA_@V?$allocator@X@std@@@std_msgs@@V?$allocator@U?$ColorRGBA_@V?$allocator@X@std@@@std_msgs@@@std@@@std@@@OStream@serialization@ros@@QEAAXAEBV?$vector@U?$ColorRGBA_@V?$allocator@X@std@@@std_msgs@@V?$allocator@U?$ColorRGBA_@V?$allocator@X@std@@@std_msgs@@@std@@@std@@@Z
	??$next@V?$vector@U?$Marker_@V?$allocator@X@std@@@visualization_msgs@@V?$allocator@U?$Marker_@V?$allocator@X@std@@@visualization_msgs@@@std@@@std@@@LStream@serialization@ros@@QEAAXAEBV?$vector@U?$Marker_@V?$allocator@X@std@@@visualization_msgs@@V?$allocator@U?$Marker_@V?$allocator@X@std@@@visualization_msgs@@@std@@@std@@@Z
	??$next@V?$vector@U?$Marker_@V?$allocator@X@std@@@visualization_msgs@@V?$allocator@U?$Marker_@V?$allocator@X@std@@@visualization_msgs@@@std@@@std@@@OStream@serialization@ros@@QEAAXAEBV?$vector@U?$Marker_@V?$allocator@X@std@@@visualization_msgs@@V?$allocator@U?$Marker_@V?$allocator@X@std@@@visualization_msgs@@@std@@@std@@@Z
	??$next@V?$vector@U?$Point_@V?$allocator@X@std@@@geometry_msgs@@V?$allocator@U?$Point_@V?$allocator@X@std@@@geometry_msgs@@@std@@@std@@@LStream@serialization@ros@@QEAAXAEBV?$vector@U?$Point_@V?$allocator@X@std@@@geometry_msgs@@V?$allocator@U?$Point_@V?$allocator@X@std@@@geometry_msgs@@@std@@@std@@@Z
	??$next@V?$vector@U?$Point_@V?$allocator@X@std@@@geometry_msgs@@V?$allocator@U?$Point_@V?$allocator@X@std@@@geometry_msgs@@@std@@@std@@@OStream@serialization@ros@@QEAAXAEBV?$vector@U?$Point_@V?$allocator@X@std@@@geometry_msgs@@V?$allocator@U?$Point_@V?$allocator@X@std@@@geometry_msgs@@@std@@@std@@@Z
	??$next@V?$vector@U?$PoseStamped_@V?$allocator@X@std@@@geometry_msgs@@V?$allocator@U?$PoseStamped_@V?$allocator@X@std@@@geometry_msgs@@@std@@@std@@@IStream@serialization@ros@@QEAAXAEAV?$vector@U?$PoseStamped_@V?$allocator@X@std@@@geometry_msgs@@V?$allocator@U?$PoseStamped_@V?$allocator@X@std@@@geometry_msgs@@@std@@@std@@@Z
	??$next@V?$vector@U?$PoseStamped_@V?$allocator@X@std@@@geometry_msgs@@V?$allocator@U?$PoseStamped_@V?$allocator@X@std@@@geometry_msgs@@@std@@@std@@@LStream@serialization@ros@@QEAAXAEBV?$vector@U?$PoseStamped_@V?$allocator@X@std@@@geometry_msgs@@V?$allocator@U?$PoseStamped_@V?$allocator@X@std@@@geometry_msgs@@@std@@@std@@@Z
	??$next@V?$vector@U?$PoseStamped_@V?$allocator@X@std@@@geometry_msgs@@V?$allocator@U?$PoseStamped_@V?$allocator@X@std@@@geometry_msgs@@@std@@@std@@@OStream@serialization@ros@@QEAAXAEBV?$vector@U?$PoseStamped_@V?$allocator@X@std@@@geometry_msgs@@V?$allocator@U?$PoseStamped_@V?$allocator@X@std@@@geometry_msgs@@@std@@@std@@@Z
	??$next@VDuration@ros@@@LStream@serialization@ros@@QEAAXAEBVDuration@2@@Z
	??$next@VDuration@ros@@@OStream@serialization@ros@@QEAAXAEBVDuration@2@@Z
	??$next@VTime@ros@@@IStream@serialization@ros@@QEAAXAEAVTime@2@@Z
	??$next@VTime@ros@@@LStream@serialization@ros@@QEAAXAEBVTime@2@@Z
	??$next@VTime@ros@@@OStream@serialization@ros@@QEAAXAEBVTime@2@@Z
	??$param@H@NodeHandle@ros@@QEBA_NAEBV?$basic_string@DU?$char_traits@D@std@@V?$allocator@D@2@@std@@AEAHAEBH@Z
	??$param@N@NodeHandle@ros@@QEBA_NAEBV?$basic_string@DU?$char_traits@D@std@@V?$allocator@D@2@@std@@AEANAEBN@Z
	??$publish@U?$MarkerArray_@V?$allocator@X@std@@@visualization_msgs@@@Publisher@ros@@QEBAXAEBU?$MarkerArray_@V?$allocator@X@std@@@visualization_msgs@@@Z
	??$publish@U?$Path_@V?$allocator@X@std@@@nav_msgs@@@Publisher@ros@@QEBAXAEBU?$Path_@V?$allocator@X@std@@@nav_msgs@@@Z
	??$publish@U?$PoseStamped_@V?$allocator@X@std@@@geometry_msgs@@@Publisher@ros@@QEBAXAEBU?$PoseStamped_@V?$allocator@X@std@@@geometry_msgs@@@Z
	??$read@UIStream@serialization@ros@@@?$Serializer@I@serialization@ros@@SAXAEAUIStream@12@AEAI@Z
	??$read@UIStream@serialization@ros@@@?$Serializer@N@serialization@ros@@SAXAEAUIStream@12@AEAN@Z
	??$read@UIStream@serialization@ros@@@?$Serializer@V?$basic_string@DU?$char_traits@D@std@@V?$allocator@D@2@@std@@@serialization@ros@@SAXAEAUIStream@12@AEAV?$basic_string@DU?$char_traits@D@std@@V?$allocator@D@2@@std@@@Z
	??$read@UIStream@serialization@ros@@@?$Serializer@VTime@ros@@@serialization@ros@@SAXAEAUIStream@12@AEAVTime@2@@Z
	??$read@UIStream@serialization@ros@@@?$VectorSerializer@U?$PoseStamped_@V?$allocator@X@std@@@geometry_msgs@@V?$allocator@U?$PoseStamped_@V?$allocator@X@std@@@geometry_msgs@@@std@@X@serialization@ros@@SAXAEAUIStream@12@AEAV?$vector@U?$PoseStamped_@V?$allocator@X@std@@@geometry_msgs@@V?$allocator@U?$PoseStamped_@V?$allocator@X@std@@@geometry_msgs@@@std@@@std@@@Z
	??$read@UIStream@serialization@ros@@U?$Header_@V?$allocator@X@std@@@std_msgs@@@?$Serializer@U?$Header_@V?$allocator@X@std@@@std_msgs@@@serialization@ros@@SAXAEAUIStream@12@AEAU?$Header_@V?$allocator@X@std@@@std_msgs@@@Z
	??$read@UIStream@serialization@ros@@U?$Path_@V?$allocator@X@std@@@nav_msgs@@@?$Serializer@U?$Path_@V?$allocator@X@std@@@nav_msgs@@@serialization@ros@@SAXAEAUIStream@12@AEAU?$Path_@V?$allocator@X@std@@@nav_msgs@@@Z
	??$read@UIStream@serialization@ros@@U?$PointStamped_@V?$allocator@X@std@@@geometry_msgs@@@?$Serializer@U?$PointStamped_@V?$allocator@X@std@@@geometry_msgs@@@serialization@ros@@SAXAEAUIStream@12@AEAU?$PointStamped_@V?$allocator@X@std@@@geometry_msgs@@@Z
	??$read@UIStream@serialization@ros@@U?$Point_@V?$allocator@X@std@@@geometry_msgs@@@?$Serializer@U?$Point_@V?$allocator@X@std@@@geometry_msgs@@@serialization@ros@@SAXAEAUIStream@12@AEAU?$Point_@V?$allocator@X@std@@@geometry_msgs@@@Z
	??$read@UIStream@serialization@ros@@U?$PoseStamped_@V?$allocator@X@std@@@geometry_msgs@@@?$Serializer@U?$PoseStamped_@V?$allocator@X@std@@@geometry_msgs@@@serialization@ros@@SAXAEAUIStream@12@AEAU?$PoseStamped_@V?$allocator@X@std@@@geometry_msgs@@@Z
	??$read@UIStream@serialization@ros@@U?$Pose_@V?$allocator@X@std@@@geometry_msgs@@@?$Serializer@U?$Pose_@V?$allocator@X@std@@@geometry_msgs@@@serialization@ros@@SAXAEAUIStream@12@AEAU?$Pose_@V?$allocator@X@std@@@geometry_msgs@@@Z
	??$read@UIStream@serialization@ros@@U?$Quaternion_@V?$allocator@X@std@@@geometry_msgs@@@?$Serializer@U?$Quaternion_@V?$allocator@X@std@@@geometry_msgs@@@serialization@ros@@SAXAEAUIStream@12@AEAU?$Quaternion_@V?$allocator@X@std@@@geometry_msgs@@@Z
	??$ref@$$CBU?$MarkerArray_@V?$allocator@X@std@@@visualization_msgs@@@boost@@YA?BV?$reference_wrapper@$$CBU?$MarkerArray_@V?$allocator@X@std@@@visualization_msgs@@@0@AEBU?$MarkerArray_@V?$allocator@X@std@@@visualization_msgs@@@Z
	??$ref@$$CBU?$Path_@V?$allocator@X@std@@@nav_msgs@@@boost@@YA?BV?$reference_wrapper@$$CBU?$Path_@V?$allocator@X@std@@@nav_msgs@@@0@AEBU?$Path_@V?$allocator@X@std@@@nav_msgs@@@Z
	??$ref@$$CBU?$PoseStamped_@V?$allocator@X@std@@@geometry_msgs@@@boost@@YA?BV?$reference_wrapper@$$CBU?$PoseStamped_@V?$allocator@X@std@@@geometry_msgs@@@0@AEBU?$PoseStamped_@V?$allocator@X@std@@@geometry_msgs@@@Z
	??$registerPlugin@VWaypointGlobalPlanner@waypoint_global_planner@@VBaseGlobalPlanner@nav_core@@@impl@class_loader@@YAXAEBV?$basic_string@DU?$char_traits@D@std@@V?$allocator@D@2@@std@@0@Z
	??$reset@E@?$shared_array@E@boost@@QEAAXPEAE@Z
	??$serializationLength@E@serialization@ros@@YAIAEBE@Z
	??$serializationLength@H@serialization@ros@@YAIAEBH@Z
	??$serializationLength@I@serialization@ros@@YAIAEBI@Z
	??$serializationLength@M@serialization@ros@@YAIAEBM@Z
	??$serializationLength@N@serialization@ros@@YAIAEBN@Z
	??$serializationLength@U?$ColorRGBA_@V?$allocator@X@std@@@std_msgs@@@serialization@ros@@YAIAEBU?$ColorRGBA_@V?$allocator@X@std@@@std_msgs@@@Z
	??$serializationLength@U?$ColorRGBA_@V?$allocator@X@std@@@std_msgs@@V?$allocator@U?$ColorRGBA_@V?$allocator@X@std@@@std_msgs@@@std@@@serialization@ros@@YAIAEBV?$vector@U?$ColorRGBA_@V?$allocator@X@std@@@std_msgs@@V?$allocator@U?$ColorRGBA_@V?$allocator@X@std@@@std_msgs@@@std@@@std@@@Z
	??$serializationLength@U?$Header_@V?$allocator@X@std@@@std_msgs@@@serialization@ros@@YAIAEBU?$Header_@V?$allocator@X@std@@@std_msgs@@@Z
	??$serializationLength@U?$MarkerArray_@V?$allocator@X@std@@@visualization_msgs@@@serialization@ros@@YAIAEBU?$MarkerArray_@V?$allocator@X@std@@@visualization_msgs@@@Z
	??$serializationLength@U?$Marker_@V?$allocator@X@std@@@visualization_msgs@@@serialization@ros@@YAIAEBU?$Marker_@V?$allocator@X@std@@@visualization_msgs@@@Z
	??$serializationLength@U?$Marker_@V?$allocator@X@std@@@visualization_msgs@@V?$allocator@U?$Marker_@V?$allocator@X@std@@@visualization_msgs@@@std@@@serialization@ros@@YAIAEBV?$vector@U?$Marker_@V?$allocator@X@std@@@visualization_msgs@@V?$allocator@U?$Marker_@V?$allocator@X@std@@@visualization_msgs@@@std@@@std@@@Z
	??$serializationLength@U?$Path_@V?$allocator@X@std@@@nav_msgs@@@serialization@ros@@YAIAEBU?$Path_@V?$allocator@X@std@@@nav_msgs@@@Z
	??$serializationLength@U?$Point_@V?$allocator@X@std@@@geometry_msgs@@@serialization@ros@@YAIAEBU?$Point_@V?$allocator@X@std@@@geometry_msgs@@@Z
	??$serializationLength@U?$Point_@V?$allocator@X@std@@@geometry_msgs@@V?$allocator@U?$Point_@V?$allocator@X@std@@@geometry_msgs@@@std@@@serialization@ros@@YAIAEBV?$vector@U?$Point_@V?$allocator@X@std@@@geometry_msgs@@V?$allocator@U?$Point_@V?$allocator@X@std@@@geometry_msgs@@@std@@@std@@@Z
	??$serializationLength@U?$PoseStamped_@V?$allocator@X@std@@@geometry_msgs@@@serialization@ros@@YAIAEBU?$PoseStamped_@V?$allocator@X@std@@@geometry_msgs@@@Z
	??$serializationLength@U?$PoseStamped_@V?$allocator@X@std@@@geometry_msgs@@V?$allocator@U?$PoseStamped_@V?$allocator@X@std@@@geometry_msgs@@@std@@@serialization@ros@@YAIAEBV?$vector@U?$PoseStamped_@V?$allocator@X@std@@@geometry_msgs@@V?$allocator@U?$PoseStamped_@V?$allocator@X@std@@@geometry_msgs@@@std@@@std@@@Z
	??$serializationLength@U?$Pose_@V?$allocator@X@std@@@geometry_msgs@@@serialization@ros@@YAIAEBU?$Pose_@V?$allocator@X@std@@@geometry_msgs@@@Z
	??$serializationLength@U?$Quaternion_@V?$allocator@X@std@@@geometry_msgs@@@serialization@ros@@YAIAEBU?$Quaternion_@V?$allocator@X@std@@@geometry_msgs@@@Z
	??$serializationLength@U?$Vector3_@V?$allocator@X@std@@@geometry_msgs@@@serialization@ros@@YAIAEBU?$Vector3_@V?$allocator@X@std@@@geometry_msgs@@@Z
	??$serializationLength@V?$basic_string@DU?$char_traits@D@std@@V?$allocator@D@2@@std@@@serialization@ros@@YAIAEBV?$basic_string@DU?$char_traits@D@std@@V?$allocator@D@2@@std@@@Z
	??$serializationLength@VDuration@ros@@@serialization@ros@@YAIAEBVDuration@1@@Z
	??$serializationLength@VTime@ros@@@serialization@ros@@YAIAEBVTime@1@@Z
	??$serialize@EUOStream@serialization@ros@@@serialization@ros@@YAXAEAUOStream@01@AEBE@Z
	??$serialize@HUOStream@serialization@ros@@@serialization@ros@@YAXAEAUOStream@01@AEBH@Z
	??$serialize@IUOStream@serialization@ros@@@serialization@ros@@YAXAEAUOStream@01@AEBI@Z
	??$serialize@MUOStream@serialization@ros@@@serialization@ros@@YAXAEAUOStream@01@AEBM@Z
	??$serialize@NUOStream@serialization@ros@@@serialization@ros@@YAXAEAUOStream@01@AEBN@Z
	??$serialize@U?$ColorRGBA_@V?$allocator@X@std@@@std_msgs@@UOStream@serialization@ros@@@serialization@ros@@YAXAEAUOStream@01@AEBU?$ColorRGBA_@V?$allocator@X@std@@@std_msgs@@@Z
	??$serialize@U?$ColorRGBA_@V?$allocator@X@std@@@std_msgs@@V?$allocator@U?$ColorRGBA_@V?$allocator@X@std@@@std_msgs@@@std@@UOStream@serialization@ros@@@serialization@ros@@YAXAEAUOStream@01@AEBV?$vector@U?$ColorRGBA_@V?$allocator@X@std@@@std_msgs@@V?$allocator@U?$ColorRGBA_@V?$allocator@X@std@@@std_msgs@@@std@@@std@@@Z
	??$serialize@U?$Header_@V?$allocator@X@std@@@std_msgs@@UOStream@serialization@ros@@@serialization@ros@@YAXAEAUOStream@01@AEBU?$Header_@V?$allocator@X@std@@@std_msgs@@@Z
	??$serialize@U?$MarkerArray_@V?$allocator@X@std@@@visualization_msgs@@UOStream@serialization@ros@@@serialization@ros@@YAXAEAUOStream@01@AEBU?$MarkerArray_@V?$allocator@X@std@@@visualization_msgs@@@Z
	??$serialize@U?$Marker_@V?$allocator@X@std@@@visualization_msgs@@UOStream@serialization@ros@@@serialization@ros@@YAXAEAUOStream@01@AEBU?$Marker_@V?$allocator@X@std@@@visualization_msgs@@@Z
	??$serialize@U?$Marker_@V?$allocator@X@std@@@visualization_msgs@@V?$allocator@U?$Marker_@V?$allocator@X@std@@@visualization_msgs@@@std@@UOStream@serialization@ros@@@serialization@ros@@YAXAEAUOStream@01@AEBV?$vector@U?$Marker_@V?$allocator@X@std@@@visualization_msgs@@V?$allocator@U?$Marker_@V?$allocator@X@std@@@visualization_msgs@@@std@@@std@@@Z
	??$serialize@U?$Path_@V?$allocator@X@std@@@nav_msgs@@UOStream@serialization@ros@@@serialization@ros@@YAXAEAUOStream@01@AEBU?$Path_@V?$allocator@X@std@@@nav_msgs@@@Z
	??$serialize@U?$Point_@V?$allocator@X@std@@@geometry_msgs@@UOStream@serialization@ros@@@serialization@ros@@YAXAEAUOStream@01@AEBU?$Point_@V?$allocator@X@std@@@geometry_msgs@@@Z
	??$serialize@U?$Point_@V?$allocator@X@std@@@geometry_msgs@@V?$allocator@U?$Point_@V?$allocator@X@std@@@geometry_msgs@@@std@@UOStream@serialization@ros@@@serialization@ros@@YAXAEAUOStream@01@AEBV?$vector@U?$Point_@V?$allocator@X@std@@@geometry_msgs@@V?$allocator@U?$Point_@V?$allocator@X@std@@@geometry_msgs@@@std@@@std@@@Z
	??$serialize@U?$PoseStamped_@V?$allocator@X@std@@@geometry_msgs@@UOStream@serialization@ros@@@serialization@ros@@YAXAEAUOStream@01@AEBU?$PoseStamped_@V?$allocator@X@std@@@geometry_msgs@@@Z
	??$serialize@U?$PoseStamped_@V?$allocator@X@std@@@geometry_msgs@@V?$allocator@U?$PoseStamped_@V?$allocator@X@std@@@geometry_msgs@@@std@@UOStream@serialization@ros@@@serialization@ros@@YAXAEAUOStream@01@AEBV?$vector@U?$PoseStamped_@V?$allocator@X@std@@@geometry_msgs@@V?$allocator@U?$PoseStamped_@V?$allocator@X@std@@@geometry_msgs@@@std@@@std@@@Z
	??$serialize@U?$Pose_@V?$allocator@X@std@@@geometry_msgs@@UOStream@serialization@ros@@@serialization@ros@@YAXAEAUOStream@01@AEBU?$Pose_@V?$allocator@X@std@@@geometry_msgs@@@Z
	??$serialize@U?$Quaternion_@V?$allocator@X@std@@@geometry_msgs@@UOStream@serialization@ros@@@serialization@ros@@YAXAEAUOStream@01@AEBU?$Quaternion_@V?$allocator@X@std@@@geometry_msgs@@@Z
	??$serialize@U?$Vector3_@V?$allocator@X@std@@@geometry_msgs@@UOStream@serialization@ros@@@serialization@ros@@YAXAEAUOStream@01@AEBU?$Vector3_@V?$allocator@X@std@@@geometry_msgs@@@Z
	??$serialize@V?$basic_string@DU?$char_traits@D@std@@V?$allocator@D@2@@std@@UOStream@serialization@ros@@@serialization@ros@@YAXAEAUOStream@01@AEBV?$basic_string@DU?$char_traits@D@std@@V?$allocator@D@2@@std@@@Z
	??$serialize@VDuration@ros@@UOStream@serialization@2@@serialization@ros@@YAXAEAUOStream@01@AEBVDuration@1@@Z
	??$serialize@VTime@ros@@UOStream@serialization@2@@serialization@ros@@YAXAEAUOStream@01@AEBVTime@1@@Z
	??$serializeMessage@U?$MarkerArray_@V?$allocator@X@std@@@visualization_msgs@@@serialization@ros@@YA?AVSerializedMessage@1@AEBU?$MarkerArray_@V?$allocator@X@std@@@visualization_msgs@@@Z
	??$serializeMessage@U?$Path_@V?$allocator@X@std@@@nav_msgs@@@serialization@ros@@YA?AVSerializedMessage@1@AEBU?$Path_@V?$allocator@X@std@@@nav_msgs@@@Z
	??$serializeMessage@U?$PoseStamped_@V?$allocator@X@std@@@geometry_msgs@@@serialization@ros@@YA?AVSerializedMessage@1@AEBU?$PoseStamped_@V?$allocator@X@std@@@geometry_msgs@@@Z
	??$serializedLength@U?$ColorRGBA_@V?$allocator@X@std@@@std_msgs@@@?$Serializer@U?$ColorRGBA_@V?$allocator@X@std@@@std_msgs@@@serialization@ros@@SAIAEBU?$ColorRGBA_@V?$allocator@X@std@@@std_msgs@@@Z
	??$serializedLength@U?$Header_@V?$allocator@X@std@@@std_msgs@@@?$Serializer@U?$Header_@V?$allocator@X@std@@@std_msgs@@@serialization@ros@@SAIAEBU?$Header_@V?$allocator@X@std@@@std_msgs@@@Z
	??$serializedLength@U?$MarkerArray_@V?$allocator@X@std@@@visualization_msgs@@@?$Serializer@U?$MarkerArray_@V?$allocator@X@std@@@visualization_msgs@@@serialization@ros@@SAIAEBU?$MarkerArray_@V?$allocator@X@std@@@visualization_msgs@@@Z
	??$serializedLength@U?$Marker_@V?$allocator@X@std@@@visualization_msgs@@@?$Serializer@U?$Marker_@V?$allocator@X@std@@@visualization_msgs@@@serialization@ros@@SAIAEBU?$Marker_@V?$allocator@X@std@@@visualization_msgs@@@Z
	??$serializedLength@U?$Path_@V?$allocator@X@std@@@nav_msgs@@@?$Serializer@U?$Path_@V?$allocator@X@std@@@nav_msgs@@@serialization@ros@@SAIAEBU?$Path_@V?$allocator@X@std@@@nav_msgs@@@Z
	??$serializedLength@U?$Point_@V?$allocator@X@std@@@geometry_msgs@@@?$Serializer@U?$Point_@V?$allocator@X@std@@@geometry_msgs@@@serialization@ros@@SAIAEBU?$Point_@V?$allocator@X@std@@@geometry_msgs@@@Z
	??$serializedLength@U?$PoseStamped_@V?$allocator@X@std@@@geometry_msgs@@@?$Serializer@U?$PoseStamped_@V?$allocator@X@std@@@geometry_msgs@@@serialization@ros@@SAIAEBU?$PoseStamped_@V?$allocator@X@std@@@geometry_msgs@@@Z
	??$serializedLength@U?$Pose_@V?$allocator@X@std@@@geometry_msgs@@@?$Serializer@U?$Pose_@V?$allocator@X@std@@@geometry_msgs@@@serialization@ros@@SAIAEBU?$Pose_@V?$allocator@X@std@@@geometry_msgs@@@Z
	??$serializedLength@U?$Quaternion_@V?$allocator@X@std@@@geometry_msgs@@@?$Serializer@U?$Quaternion_@V?$allocator@X@std@@@geometry_msgs@@@serialization@ros@@SAIAEBU?$Quaternion_@V?$allocator@X@std@@@geometry_msgs@@@Z
	??$serializedLength@U?$Vector3_@V?$allocator@X@std@@@geometry_msgs@@@?$Serializer@U?$Vector3_@V?$allocator@X@std@@@geometry_msgs@@@serialization@ros@@SAIAEBU?$Vector3_@V?$allocator@X@std@@@geometry_msgs@@@Z
	??$set@V?$clone_impl@Ubad_alloc_@exception_detail@boost@@@exception_detail@boost@@@?$set_info_rv@V?$error_info@Uthrow_file_@boost@@PEBD@boost@@@exception_detail@boost@@SAAEBV?$clone_impl@Ubad_alloc_@exception_detail@boost@@@12@AEBV312@$$QEAV?$error_info@Uthrow_file_@boost@@PEBD@2@@Z
	??$set@V?$clone_impl@Ubad_alloc_@exception_detail@boost@@@exception_detail@boost@@@?$set_info_rv@V?$error_info@Uthrow_function_@boost@@PEBD@boost@@@exception_detail@boost@@SAAEBV?$clone_impl@Ubad_alloc_@exception_detail@boost@@@12@AEBV312@$$QEAV?$error_info@Uthrow_function_@boost@@PEBD@2@@Z
	??$set@V?$clone_impl@Ubad_alloc_@exception_detail@boost@@@exception_detail@boost@@@?$set_info_rv@V?$error_info@Uthrow_line_@boost@@H@boost@@@exception_detail@boost@@SAAEBV?$clone_impl@Ubad_alloc_@exception_detail@boost@@@12@AEBV312@$$QEAV?$error_info@Uthrow_line_@boost@@H@2@@Z
	??$set@V?$clone_impl@Ubad_exception_@exception_detail@boost@@@exception_detail@boost@@@?$set_info_rv@V?$error_info@Uthrow_file_@boost@@PEBD@boost@@@exception_detail@boost@@SAAEBV?$clone_impl@Ubad_exception_@exception_detail@boost@@@12@AEBV312@$$QEAV?$error_info@Uthrow_file_@boost@@PEBD@2@@Z
	??$set@V?$clone_impl@Ubad_exception_@exception_detail@boost@@@exception_detail@boost@@@?$set_info_rv@V?$error_info@Uthrow_function_@boost@@PEBD@boost@@@exception_detail@boost@@SAAEBV?$clone_impl@Ubad_exception_@exception_detail@boost@@@12@AEBV312@$$QEAV?$error_info@Uthrow_function_@boost@@PEBD@2@@Z
	??$set@V?$clone_impl@Ubad_exception_@exception_detail@boost@@@exception_detail@boost@@@?$set_info_rv@V?$error_info@Uthrow_line_@boost@@H@boost@@@exception_detail@boost@@SAAEBV?$clone_impl@Ubad_exception_@exception_detail@boost@@@12@AEBV312@$$QEAV?$error_info@Uthrow_line_@boost@@H@2@@Z
	??$set_info@V?$clone_impl@Ubad_alloc_@exception_detail@boost@@@exception_detail@boost@@Uthrow_file_@3@PEBD@exception_detail@boost@@YAAEBV?$clone_impl@Ubad_alloc_@exception_detail@boost@@@01@AEBV201@$$QEAV?$error_info@Uthrow_file_@boost@@PEBD@1@@Z
	??$set_info@V?$clone_impl@Ubad_alloc_@exception_detail@boost@@@exception_detail@boost@@Uthrow_function_@3@PEBD@exception_detail@boost@@YAAEBV?$clone_impl@Ubad_alloc_@exception_detail@boost@@@01@AEBV201@$$QEAV?$error_info@Uthrow_function_@boost@@PEBD@1@@Z
	??$set_info@V?$clone_impl@Ubad_alloc_@exception_detail@boost@@@exception_detail@boost@@Uthrow_line_@3@H@exception_detail@boost@@YAAEBV?$clone_impl@Ubad_alloc_@exception_detail@boost@@@01@AEBV201@$$QEAV?$error_info@Uthrow_line_@boost@@H@1@@Z
	??$set_info@V?$clone_impl@Ubad_exception_@exception_detail@boost@@@exception_detail@boost@@Uthrow_file_@3@PEBD@exception_detail@boost@@YAAEBV?$clone_impl@Ubad_exception_@exception_detail@boost@@@01@AEBV201@$$QEAV?$error_info@Uthrow_file_@boost@@PEBD@1@@Z
	??$set_info@V?$clone_impl@Ubad_exception_@exception_detail@boost@@@exception_detail@boost@@Uthrow_function_@3@PEBD@exception_detail@boost@@YAAEBV?$clone_impl@Ubad_exception_@exception_detail@boost@@@01@AEBV201@$$QEAV?$error_info@Uthrow_function_@boost@@PEBD@1@@Z
	??$set_info@V?$clone_impl@Ubad_exception_@exception_detail@boost@@@exception_detail@boost@@Uthrow_line_@3@H@exception_detail@boost@@YAAEBV?$clone_impl@Ubad_exception_@exception_detail@boost@@@01@AEBV201@$$QEAV?$error_info@Uthrow_line_@boost@@H@1@@Z
	??$sp_assert_convertible@$$BY0A@E$$BY0A@E@detail@boost@@YAXXZ
	??$sp_assert_convertible@U?$Path_@V?$allocator@X@std@@@nav_msgs@@$$CBU12@@detail@boost@@YAXXZ
	??$sp_assert_convertible@U?$Path_@V?$allocator@X@std@@@nav_msgs@@$$CBX@detail@boost@@YAXXZ
	??$sp_assert_convertible@U?$PointStamped_@V?$allocator@X@std@@@geometry_msgs@@$$CBU12@@detail@boost@@YAXXZ
	??$sp_assert_convertible@U?$PointStamped_@V?$allocator@X@std@@@geometry_msgs@@$$CBX@detail@boost@@YAXXZ
	??$sp_assert_convertible@V?$SubscriptionCallbackHelperT@AEBV?$shared_ptr@$$CBU?$Path_@V?$allocator@X@std@@@nav_msgs@@@boost@@X@ros@@VSubscriptionCallbackHelper@2@@detail@boost@@YAXXZ
	??$sp_assert_convertible@V?$SubscriptionCallbackHelperT@AEBV?$shared_ptr@$$CBU?$PointStamped_@V?$allocator@X@std@@@geometry_msgs@@@boost@@X@ros@@VSubscriptionCallbackHelper@2@@detail@boost@@YAXXZ
	??$sp_assert_convertible@X$$CBX@detail@boost@@YAXXZ
	??$sp_deleter_construct@U?$Path_@V?$allocator@X@std@@@nav_msgs@@U12@@detail@boost@@YAXPEAV?$shared_ptr@U?$Path_@V?$allocator@X@std@@@nav_msgs@@@1@PEAU?$Path_@V?$allocator@X@std@@@nav_msgs@@@Z
	??$sp_deleter_construct@U?$PointStamped_@V?$allocator@X@std@@@geometry_msgs@@U12@@detail@boost@@YAXPEAV?$shared_ptr@U?$PointStamped_@V?$allocator@X@std@@@geometry_msgs@@@1@PEAU?$PointStamped_@V?$allocator@X@std@@@geometry_msgs@@@Z
	??$sp_deleter_construct@V?$SubscriptionCallbackHelperT@AEBV?$shared_ptr@$$CBU?$Path_@V?$allocator@X@std@@@nav_msgs@@@boost@@X@ros@@V12@@detail@boost@@YAXPEAV?$shared_ptr@V?$SubscriptionCallbackHelperT@AEBV?$shared_ptr@$$CBU?$Path_@V?$allocator@X@std@@@nav_msgs@@@boost@@X@ros@@@1@PEAV?$SubscriptionCallbackHelperT@AEBV?$shared_ptr@$$CBU?$Path_@V?$allocator@X@std@@@nav_msgs@@@boost@@X@ros@@@Z
	??$sp_deleter_construct@V?$SubscriptionCallbackHelperT@AEBV?$shared_ptr@$$CBU?$PointStamped_@V?$allocator@X@std@@@geometry_msgs@@@boost@@X@ros@@V12@@detail@boost@@YAXPEAV?$shared_ptr@V?$SubscriptionCallbackHelperT@AEBV?$shared_ptr@$$CBU?$PointStamped_@V?$allocator@X@std@@@geometry_msgs@@@boost@@X@ros@@@1@PEAV?$SubscriptionCallbackHelperT@AEBV?$shared_ptr@$$CBU?$PointStamped_@V?$allocator@X@std@@@geometry_msgs@@@boost@@X@ros@@@Z
	??$sp_forward@AEBV?$function@$$A6A?AV?$shared_ptr@U?$Path_@V?$allocator@X@std@@@nav_msgs@@@boost@@XZ@boost@@@detail@boost@@YAAEBV?$function@$$A6A?AV?$shared_ptr@U?$Path_@V?$allocator@X@std@@@nav_msgs@@@boost@@XZ@1@AEBV21@@Z
	??$sp_forward@AEBV?$function@$$A6A?AV?$shared_ptr@U?$PointStamped_@V?$allocator@X@std@@@geometry_msgs@@@boost@@XZ@boost@@@detail@boost@@YAAEBV?$function@$$A6A?AV?$shared_ptr@U?$PointStamped_@V?$allocator@X@std@@@geometry_msgs@@@boost@@XZ@1@AEBV21@@Z
	??$sp_forward@AEBV?$function@$$A6AXAEBV?$shared_ptr@$$CBU?$Path_@V?$allocator@X@std@@@nav_msgs@@@boost@@@Z@boost@@@detail@boost@@YAAEBV?$function@$$A6AXAEBV?$shared_ptr@$$CBU?$Path_@V?$allocator@X@std@@@nav_msgs@@@boost@@@Z@1@AEBV21@@Z
	??$sp_forward@AEBV?$function@$$A6AXAEBV?$shared_ptr@$$CBU?$PointStamped_@V?$allocator@X@std@@@geometry_msgs@@@boost@@@Z@boost@@@detail@boost@@YAAEBV?$function@$$A6AXAEBV?$shared_ptr@$$CBU?$PointStamped_@V?$allocator@X@std@@@geometry_msgs@@@boost@@@Z@1@AEBV21@@Z
	??$sp_pointer_construct@$$CBVclone_base@exception_detail@boost@@V?$clone_impl@Ubad_alloc_@exception_detail@boost@@@23@@detail@boost@@YAXPEAV?$shared_ptr@$$CBVclone_base@exception_detail@boost@@@1@PEAV?$clone_impl@Ubad_alloc_@exception_detail@boost@@@exception_detail@1@AEAVshared_count@01@@Z
	??$sp_pointer_construct@$$CBVclone_base@exception_detail@boost@@V?$clone_impl@Ubad_exception_@exception_detail@boost@@@23@@detail@boost@@YAXPEAV?$shared_ptr@$$CBVclone_base@exception_detail@boost@@@1@PEAV?$clone_impl@Ubad_exception_@exception_detail@boost@@@exception_detail@1@AEAVshared_count@01@@Z
	??$static_pointer_cast@$$CBU?$Path_@V?$allocator@X@std@@@nav_msgs@@$$CBX@boost@@YA?AV?$shared_ptr@$$CBU?$Path_@V?$allocator@X@std@@@nav_msgs@@@0@$$QEAV?$shared_ptr@$$CBX@0@@Z
	??$static_pointer_cast@$$CBU?$PointStamped_@V?$allocator@X@std@@@geometry_msgs@@$$CBX@boost@@YA?AV?$shared_ptr@$$CBU?$PointStamped_@V?$allocator@X@std@@@geometry_msgs@@@0@$$QEAV?$shared_ptr@$$CBX@0@@Z
	??$subscribe@U?$Path_@V?$allocator@X@std@@@nav_msgs@@VWaypointGlobalPlanner@waypoint_global_planner@@@NodeHandle@ros@@QEAA?AVSubscriber@1@AEBV?$basic_string@DU?$char_traits@D@std@@V?$allocator@D@2@@std@@IP8WaypointGlobalPlanner@waypoint_global_planner@@EAAXAEBV?$shared_ptr@$$CBU?$Path_@V?$allocator@X@std@@@nav_msgs@@@boost@@@ZPEAV56@AEBVTransportHints@1@@Z
	??$subscribe@U?$PointStamped_@V?$allocator@X@std@@@geometry_msgs@@VWaypointGlobalPlanner@waypoint_global_planner@@@NodeHandle@ros@@QEAA?AVSubscriber@1@AEBV?$basic_string@DU?$char_traits@D@std@@V?$allocator@D@2@@std@@IP8WaypointGlobalPlanner@waypoint_global_planner@@EAAXAEBV?$shared_ptr@$$CBU?$PointStamped_@V?$allocator@X@std@@@geometry_msgs@@@boost@@@ZPEAV56@AEBVTransportHints@1@@Z
	??$swap@PEAE$0A@@std@@YAXAEAPEAE0@Z
	??$swap@PEAU?$Path_@V?$allocator@X@std@@@nav_msgs@@$0A@@std@@YAXAEAPEAU?$Path_@V?$allocator@X@std@@@nav_msgs@@0@Z
	??$swap@PEAU?$PointStamped_@V?$allocator@X@std@@@geometry_msgs@@$0A@@std@@YAXAEAPEAU?$PointStamped_@V?$allocator@X@std@@@geometry_msgs@@0@Z
	??$swap@PEAV?$map@V?$basic_string@DU?$char_traits@D@std@@V?$allocator@D@2@@std@@V12@U?$less@V?$basic_string@DU?$char_traits@D@std@@V?$allocator@D@2@@std@@@2@V?$allocator@U?$pair@$$CBV?$basic_string@DU?$char_traits@D@std@@V?$allocator@D@2@@std@@V12@@std@@@2@@std@@$0A@@std@@YAXAEAPEAV?$map@V?$basic_string@DU?$char_traits@D@std@@V?$allocator@D@2@@std@@V12@U?$less@V?$basic_string@DU?$char_traits@D@std@@V?$allocator@D@2@@std@@@2@V?$allocator@U?$pair@$$CBV?$basic_string@DU?$char_traits@D@std@@V?$allocator@D@2@@std@@V12@@std@@@2@@0@0@Z
	??$swap@PEAVSubscriptionCallbackHelper@ros@@$0A@@std@@YAXAEAPEAVSubscriptionCallbackHelper@ros@@0@Z
	??$swap@PEBU?$Path_@V?$allocator@X@std@@@nav_msgs@@$0A@@std@@YAXAEAPEBU?$Path_@V?$allocator@X@std@@@nav_msgs@@0@Z
	??$swap@PEBU?$PointStamped_@V?$allocator@X@std@@@geometry_msgs@@$0A@@std@@YAXAEAPEBU?$PointStamped_@V?$allocator@X@std@@@geometry_msgs@@0@Z
	??$throw_exception@Vbad_function_call@boost@@@boost@@YAXAEBVbad_function_call@0@@Z
	??$throw_exception@Vthread_resource_error@boost@@@boost@@YAXAEBVthread_resource_error@0@@Z
	??$type_id@U?$DefaultMessageCreator@U?$Path_@V?$allocator@X@std@@@nav_msgs@@@ros@@@stl_type_index@typeindex@boost@@SA?AV012@XZ
	??$type_id@U?$DefaultMessageCreator@U?$Path_@V?$allocator@X@std@@@nav_msgs@@@ros@@@typeindex@boost@@YA?AVstl_type_index@01@XZ
	??$type_id@U?$DefaultMessageCreator@U?$PointStamped_@V?$allocator@X@std@@@geometry_msgs@@@ros@@@stl_type_index@typeindex@boost@@SA?AV012@XZ
	??$type_id@U?$DefaultMessageCreator@U?$PointStamped_@V?$allocator@X@std@@@geometry_msgs@@@ros@@@typeindex@boost@@YA?AVstl_type_index@01@XZ
	??$type_id@V?$bind_t@VSerializedMessage@ros@@P6A?AV12@AEBU?$MarkerArray_@V?$allocator@X@std@@@visualization_msgs@@@ZV?$list1@V?$reference_wrapper@$$CBU?$MarkerArray_@V?$allocator@X@std@@@visualization_msgs@@@boost@@@_bi@boost@@@_bi@boost@@@stl_type_index@typeindex@boost@@SA?AV012@XZ
	??$type_id@V?$bind_t@VSerializedMessage@ros@@P6A?AV12@AEBU?$MarkerArray_@V?$allocator@X@std@@@visualization_msgs@@@ZV?$list1@V?$reference_wrapper@$$CBU?$MarkerArray_@V?$allocator@X@std@@@visualization_msgs@@@boost@@@_bi@boost@@@_bi@boost@@@typeindex@boost@@YA?AVstl_type_index@01@XZ
	??$type_id@V?$bind_t@VSerializedMessage@ros@@P6A?AV12@AEBU?$Path_@V?$allocator@X@std@@@nav_msgs@@@ZV?$list1@V?$reference_wrapper@$$CBU?$Path_@V?$allocator@X@std@@@nav_msgs@@@boost@@@_bi@boost@@@_bi@boost@@@stl_type_index@typeindex@boost@@SA?AV012@XZ
	??$type_id@V?$bind_t@VSerializedMessage@ros@@P6A?AV12@AEBU?$Path_@V?$allocator@X@std@@@nav_msgs@@@ZV?$list1@V?$reference_wrapper@$$CBU?$Path_@V?$allocator@X@std@@@nav_msgs@@@boost@@@_bi@boost@@@_bi@boost@@@typeindex@boost@@YA?AVstl_type_index@01@XZ
	??$type_id@V?$bind_t@VSerializedMessage@ros@@P6A?AV12@AEBU?$PoseStamped_@V?$allocator@X@std@@@geometry_msgs@@@ZV?$list1@V?$reference_wrapper@$$CBU?$PoseStamped_@V?$allocator@X@std@@@geometry_msgs@@@boost@@@_bi@boost@@@_bi@boost@@@stl_type_index@typeindex@boost@@SA?AV012@XZ
	??$type_id@V?$bind_t@VSerializedMessage@ros@@P6A?AV12@AEBU?$PoseStamped_@V?$allocator@X@std@@@geometry_msgs@@@ZV?$list1@V?$reference_wrapper@$$CBU?$PoseStamped_@V?$allocator@X@std@@@geometry_msgs@@@boost@@@_bi@boost@@@_bi@boost@@@typeindex@boost@@YA?AVstl_type_index@01@XZ
	??$type_id@V?$bind_t@XV?$mf1@XVWaypointGlobalPlanner@waypoint_global_planner@@AEBV?$shared_ptr@$$CBU?$Path_@V?$allocator@X@std@@@nav_msgs@@@boost@@@_mfi@boost@@V?$list2@V?$value@PEAVWaypointGlobalPlanner@waypoint_global_planner@@@_bi@boost@@U?$arg@$00@3@@_bi@3@@_bi@boost@@@stl_type_index@typeindex@boost@@SA?AV012@XZ
	??$type_id@V?$bind_t@XV?$mf1@XVWaypointGlobalPlanner@waypoint_global_planner@@AEBV?$shared_ptr@$$CBU?$Path_@V?$allocator@X@std@@@nav_msgs@@@boost@@@_mfi@boost@@V?$list2@V?$value@PEAVWaypointGlobalPlanner@waypoint_global_planner@@@_bi@boost@@U?$arg@$00@3@@_bi@3@@_bi@boost@@@typeindex@boost@@YA?AVstl_type_index@01@XZ
	??$type_id@V?$bind_t@XV?$mf1@XVWaypointGlobalPlanner@waypoint_global_planner@@AEBV?$shared_ptr@$$CBU?$PointStamped_@V?$allocator@X@std@@@geometry_msgs@@@boost@@@_mfi@boost@@V?$list2@V?$value@PEAVWaypointGlobalPlanner@waypoint_global_planner@@@_bi@boost@@U?$arg@$00@3@@_bi@3@@_bi@boost@@@stl_type_index@typeindex@boost@@SA?AV012@XZ
	??$type_id@V?$bind_t@XV?$mf1@XVWaypointGlobalPlanner@waypoint_global_planner@@AEBV?$shared_ptr@$$CBU?$PointStamped_@V?$allocator@X@std@@@geometry_msgs@@@boost@@@_mfi@boost@@V?$list2@V?$value@PEAVWaypointGlobalPlanner@waypoint_global_planner@@@_bi@boost@@U?$arg@$00@3@@_bi@3@@_bi@boost@@@typeindex@boost@@YA?AVstl_type_index@01@XZ
	??$type_id@V?$function@$$A6AXAEBV?$shared_ptr@$$CBU?$Path_@V?$allocator@X@std@@@nav_msgs@@@boost@@@Z@boost@@@stl_type_index@typeindex@boost@@SA?AV012@XZ
	??$type_id@V?$function@$$A6AXAEBV?$shared_ptr@$$CBU?$Path_@V?$allocator@X@std@@@nav_msgs@@@boost@@@Z@boost@@@typeindex@boost@@YA?AVstl_type_index@01@XZ
	??$type_id@V?$function@$$A6AXAEBV?$shared_ptr@$$CBU?$PointStamped_@V?$allocator@X@std@@@geometry_msgs@@@boost@@@Z@boost@@@stl_type_index@typeindex@boost@@SA?AV012@XZ
	??$type_id@V?$function@$$A6AXAEBV?$shared_ptr@$$CBU?$PointStamped_@V?$allocator@X@std@@@geometry_msgs@@@boost@@@Z@boost@@@typeindex@boost@@YA?AVstl_type_index@01@XZ
	??$write@UOStream@serialization@ros@@@?$Serializer@E@serialization@ros@@SAXAEAUOStream@12@E@Z
	??$write@UOStream@serialization@ros@@@?$Serializer@H@serialization@ros@@SAXAEAUOStream@12@H@Z
	??$write@UOStream@serialization@ros@@@?$Serializer@I@serialization@ros@@SAXAEAUOStream@12@I@Z
	??$write@UOStream@serialization@ros@@@?$Serializer@M@serialization@ros@@SAXAEAUOStream@12@M@Z
	??$write@UOStream@serialization@ros@@@?$Serializer@N@serialization@ros@@SAXAEAUOStream@12@N@Z
	??$write@UOStream@serialization@ros@@@?$Serializer@V?$basic_string@DU?$char_traits@D@std@@V?$allocator@D@2@@std@@@serialization@ros@@SAXAEAUOStream@12@AEBV?$basic_string@DU?$char_traits@D@std@@V?$allocator@D@2@@std@@@Z
	??$write@UOStream@serialization@ros@@@?$Serializer@VDuration@ros@@@serialization@ros@@SAXAEAUOStream@12@AEBVDuration@2@@Z
	??$write@UOStream@serialization@ros@@@?$Serializer@VTime@ros@@@serialization@ros@@SAXAEAUOStream@12@AEBVTime@2@@Z
	??$write@UOStream@serialization@ros@@@?$VectorSerializer@U?$ColorRGBA_@V?$allocator@X@std@@@std_msgs@@V?$allocator@U?$ColorRGBA_@V?$allocator@X@std@@@std_msgs@@@std@@X@serialization@ros@@SAXAEAUOStream@12@AEBV?$vector@U?$ColorRGBA_@V?$allocator@X@std@@@std_msgs@@V?$allocator@U?$ColorRGBA_@V?$allocator@X@std@@@std_msgs@@@std@@@std@@@Z
	??$write@UOStream@serialization@ros@@@?$VectorSerializer@U?$Marker_@V?$allocator@X@std@@@visualization_msgs@@V?$allocator@U?$Marker_@V?$allocator@X@std@@@visualization_msgs@@@std@@X@serialization@ros@@SAXAEAUOStream@12@AEBV?$vector@U?$Marker_@V?$allocator@X@std@@@visualization_msgs@@V?$allocator@U?$Marker_@V?$allocator@X@std@@@visualization_msgs@@@std@@@std@@@Z
	??$write@UOStream@serialization@ros@@@?$VectorSerializer@U?$Point_@V?$allocator@X@std@@@geometry_msgs@@V?$allocator@U?$Point_@V?$allocator@X@std@@@geometry_msgs@@@std@@X@serialization@ros@@SAXAEAUOStream@12@AEBV?$vector@U?$Point_@V?$allocator@X@std@@@geometry_msgs@@V?$allocator@U?$Point_@V?$allocator@X@std@@@geometry_msgs@@@std@@@std@@@Z
	??$write@UOStream@serialization@ros@@@?$VectorSerializer@U?$PoseStamped_@V?$allocator@X@std@@@geometry_msgs@@V?$allocator@U?$PoseStamped_@V?$allocator@X@std@@@geometry_msgs@@@std@@X@serialization@ros@@SAXAEAUOStream@12@AEBV?$vector@U?$PoseStamped_@V?$allocator@X@std@@@geometry_msgs@@V?$allocator@U?$PoseStamped_@V?$allocator@X@std@@@geometry_msgs@@@std@@@std@@@Z
	??$write@UOStream@serialization@ros@@U?$ColorRGBA_@V?$allocator@X@std@@@std_msgs@@@?$Serializer@U?$ColorRGBA_@V?$allocator@X@std@@@std_msgs@@@serialization@ros@@SAXAEAUOStream@12@AEBU?$ColorRGBA_@V?$allocator@X@std@@@std_msgs@@@Z
	??$write@UOStream@serialization@ros@@U?$Header_@V?$allocator@X@std@@@std_msgs@@@?$Serializer@U?$Header_@V?$allocator@X@std@@@std_msgs@@@serialization@ros@@SAXAEAUOStream@12@AEBU?$Header_@V?$allocator@X@std@@@std_msgs@@@Z
	??$write@UOStream@serialization@ros@@U?$MarkerArray_@V?$allocator@X@std@@@visualization_msgs@@@?$Serializer@U?$MarkerArray_@V?$allocator@X@std@@@visualization_msgs@@@serialization@ros@@SAXAEAUOStream@12@AEBU?$MarkerArray_@V?$allocator@X@std@@@visualization_msgs@@@Z
	??$write@UOStream@serialization@ros@@U?$Marker_@V?$allocator@X@std@@@visualization_msgs@@@?$Serializer@U?$Marker_@V?$allocator@X@std@@@visualization_msgs@@@serialization@ros@@SAXAEAUOStream@12@AEBU?$Marker_@V?$allocator@X@std@@@visualization_msgs@@@Z
	??$write@UOStream@serialization@ros@@U?$Path_@V?$allocator@X@std@@@nav_msgs@@@?$Serializer@U?$Path_@V?$allocator@X@std@@@nav_msgs@@@serialization@ros@@SAXAEAUOStream@12@AEBU?$Path_@V?$allocator@X@std@@@nav_msgs@@@Z
	??$write@UOStream@serialization@ros@@U?$Point_@V?$allocator@X@std@@@geometry_msgs@@@?$Serializer@U?$Point_@V?$allocator@X@std@@@geometry_msgs@@@serialization@ros@@SAXAEAUOStream@12@AEBU?$Point_@V?$allocator@X@std@@@geometry_msgs@@@Z
	??$write@UOStream@serialization@ros@@U?$PoseStamped_@V?$allocator@X@std@@@geometry_msgs@@@?$Serializer@U?$PoseStamped_@V?$allocator@X@std@@@geometry_msgs@@@serialization@ros@@SAXAEAUOStream@12@AEBU?$PoseStamped_@V?$allocator@X@std@@@geometry_msgs@@@Z
	??$write@UOStream@serialization@ros@@U?$Pose_@V?$allocator@X@std@@@geometry_msgs@@@?$Serializer@U?$Pose_@V?$allocator@X@std@@@geometry_msgs@@@serialization@ros@@SAXAEAUOStream@12@AEBU?$Pose_@V?$allocator@X@std@@@geometry_msgs@@@Z
	??$write@UOStream@serialization@ros@@U?$Quaternion_@V?$allocator@X@std@@@geometry_msgs@@@?$Serializer@U?$Quaternion_@V?$allocator@X@std@@@geometry_msgs@@@serialization@ros@@SAXAEAUOStream@12@AEBU?$Quaternion_@V?$allocator@X@std@@@geometry_msgs@@@Z
	??$write@UOStream@serialization@ros@@U?$Vector3_@V?$allocator@X@std@@@geometry_msgs@@@?$Serializer@U?$Vector3_@V?$allocator@X@std@@@geometry_msgs@@@serialization@ros@@SAXAEAUOStream@12@AEBU?$Vector3_@V?$allocator@X@std@@@geometry_msgs@@@Z
	??0?$AbstractMetaObject@VBaseGlobalPlanner@nav_core@@@impl@class_loader@@QEAA@AEBV?$basic_string@DU?$char_traits@D@std@@V?$allocator@D@2@@std@@0@Z
	??0?$ColorRGBA_@V?$allocator@X@std@@@std_msgs@@QEAA@XZ
	??0?$Header_@V?$allocator@X@std@@@std_msgs@@QEAA@$$QEAU01@@Z
	??0?$Header_@V?$allocator@X@std@@@std_msgs@@QEAA@AEBU01@@Z
	??0?$Header_@V?$allocator@X@std@@@std_msgs@@QEAA@XZ
	??0?$MarkerArray_@V?$allocator@X@std@@@visualization_msgs@@QEAA@XZ
	??0?$Marker_@V?$allocator@X@std@@@visualization_msgs@@QEAA@$$QEAU01@@Z
	??0?$Marker_@V?$allocator@X@std@@@visualization_msgs@@QEAA@AEBU01@@Z
	??0?$Marker_@V?$allocator@X@std@@@visualization_msgs@@QEAA@XZ
	??0?$MessageEvent@$$CBU?$Path_@V?$allocator@X@std@@@nav_msgs@@@ros@@QEAA@AEBV?$MessageEvent@$$CBX@1@AEBV?$function@$$A6A?AV?$shared_ptr@U?$Path_@V?$allocator@X@std@@@nav_msgs@@@boost@@XZ@boost@@@Z
	??0?$MessageEvent@$$CBU?$PointStamped_@V?$allocator@X@std@@@geometry_msgs@@@ros@@QEAA@AEBV?$MessageEvent@$$CBX@1@AEBV?$function@$$A6A?AV?$shared_ptr@U?$PointStamped_@V?$allocator@X@std@@@geometry_msgs@@@boost@@XZ@boost@@@Z
	??0?$MetaObject@VWaypointGlobalPlanner@waypoint_global_planner@@VBaseGlobalPlanner@nav_core@@@impl@class_loader@@QEAA@AEBV?$basic_string@DU?$char_traits@D@std@@V?$allocator@D@2@@std@@0@Z
	??0?$Path_@V?$allocator@X@std@@@nav_msgs@@QEAA@XZ
	??0?$PointStamped_@V?$allocator@X@std@@@geometry_msgs@@QEAA@XZ
	??0?$Point_@V?$allocator@X@std@@@geometry_msgs@@QEAA@XZ
	??0?$PoseStamped_@V?$allocator@X@std@@@geometry_msgs@@QEAA@$$QEAU01@@Z
	??0?$PoseStamped_@V?$allocator@X@std@@@geometry_msgs@@QEAA@AEBU01@@Z
	??0?$PoseStamped_@V?$allocator@X@std@@@geometry_msgs@@QEAA@XZ
	??0?$Pose_@V?$allocator@X@std@@@geometry_msgs@@QEAA@XZ
	??0?$PreDeserializeParams@U?$Path_@V?$allocator@X@std@@@nav_msgs@@@serialization@ros@@QEAA@XZ
	??0?$PreDeserializeParams@U?$PointStamped_@V?$allocator@X@std@@@geometry_msgs@@@serialization@ros@@QEAA@XZ
	??0?$Quaternion_@V?$allocator@X@std@@@geometry_msgs@@QEAA@XZ
	??0?$SubscriptionCallbackHelperT@AEBV?$shared_ptr@$$CBU?$Path_@V?$allocator@X@std@@@nav_msgs@@@boost@@X@ros@@QEAA@AEBV?$function@$$A6AXV?$shared_ptr@$$CBU?$Path_@V?$allocator@X@std@@@nav_msgs@@@boost@@@Z@boost@@AEBV?$function@$$A6A?AV?$shared_ptr@U?$Path_@V?$allocator@X@std@@@nav_msgs@@@boost@@XZ@3@@Z
	??0?$SubscriptionCallbackHelperT@AEBV?$shared_ptr@$$CBU?$PointStamped_@V?$allocator@X@std@@@geometry_msgs@@@boost@@X@ros@@QEAA@AEBV?$function@$$A6AXV?$shared_ptr@$$CBU?$PointStamped_@V?$allocator@X@std@@@geometry_msgs@@@boost@@@Z@boost@@AEBV?$function@$$A6A?AV?$shared_ptr@U?$PointStamped_@V?$allocator@X@std@@@geometry_msgs@@@boost@@XZ@3@@Z
	??0?$Vector3_@V?$allocator@X@std@@@geometry_msgs@@QEAA@XZ
	??0?$_Alloc_construct_ptr@V?$allocator@U?$_Tree_node@U?$pair@$$CBV?$basic_string@DU?$char_traits@D@std@@V?$allocator@D@2@@std@@PEAVAbstractMetaObjectBase@impl@class_loader@@@std@@PEAX@std@@@std@@@std@@QEAA@AEAV?$allocator@U?$_Tree_node@U?$pair@$$CBV?$basic_string@DU?$char_traits@D@std@@V?$allocator@D@2@@std@@PEAVAbstractMetaObjectBase@impl@class_loader@@@std@@PEAX@std@@@1@@Z
	??0?$_Atomic_integral@H$03@std@@QEAA@H@Z
	??0?$_Atomic_integral_facade@H@std@@QEAA@H@Z
	??0?$_Atomic_storage@H$03@std@@QEAA@H@Z
	??0?$_String_val@U?$_Simple_types@D@std@@@std@@QEAA@XZ
	??0?$_Tree@V?$_Tmap_traits@V?$basic_string@DU?$char_traits@D@std@@V?$allocator@D@2@@std@@V12@U?$less@V?$basic_string@DU?$char_traits@D@std@@V?$allocator@D@2@@std@@@2@V?$allocator@U?$pair@$$CBV?$basic_string@DU?$char_traits@D@std@@V?$allocator@D@2@@std@@V12@@std@@@2@$0A@@std@@@std@@QEAA@AEBU?$less@V?$basic_string@DU?$char_traits@D@std@@V?$allocator@D@2@@std@@@1@@Z
	??0?$_Tree_const_iterator@V?$_Tree_val@U?$_Tree_simple_types@U?$pair@$$CBV?$basic_string@DU?$char_traits@D@std@@V?$allocator@D@2@@std@@PEAVAbstractMetaObjectBase@impl@class_loader@@@std@@@std@@@std@@@std@@QEAA@PEAU?$_Tree_node@U?$pair@$$CBV?$basic_string@DU?$char_traits@D@std@@V?$allocator@D@2@@std@@PEAVAbstractMetaObjectBase@impl@class_loader@@@std@@PEAX@1@PEBV?$_Tree_val@U?$_Tree_simple_types@U?$pair@$$CBV?$basic_string@DU?$char_traits@D@std@@V?$allocator@D@2@@std@@PEAVAbstractMetaObjectBase@impl@class_loader@@@std@@@std@@@1@@Z
	??0?$_Tree_iterator@V?$_Tree_val@U?$_Tree_simple_types@U?$pair@$$CBV?$basic_string@DU?$char_traits@D@std@@V?$allocator@D@2@@std@@PEAVAbstractMetaObjectBase@impl@class_loader@@@std@@@std@@@std@@@std@@QEAA@PEAU?$_Tree_node@U?$pair@$$CBV?$basic_string@DU?$char_traits@D@std@@V?$allocator@D@2@@std@@PEAVAbstractMetaObjectBase@impl@class_loader@@@std@@PEAX@1@PEBV?$_Tree_val@U?$_Tree_simple_types@U?$pair@$$CBV?$basic_string@DU?$char_traits@D@std@@V?$allocator@D@2@@std@@PEAVAbstractMetaObjectBase@impl@class_loader@@@std@@@std@@@1@@Z
	??0?$_Tree_temp_node_alloc@V?$allocator@U?$_Tree_node@U?$pair@$$CBV?$basic_string@DU?$char_traits@D@std@@V?$allocator@D@2@@std@@PEAVAbstractMetaObjectBase@impl@class_loader@@@std@@PEAX@std@@@std@@@std@@QEAA@AEAV?$allocator@U?$_Tree_node@U?$pair@$$CBV?$basic_string@DU?$char_traits@D@std@@V?$allocator@D@2@@std@@PEAVAbstractMetaObjectBase@impl@class_loader@@@std@@PEAX@std@@@1@@Z
	??0?$_Tree_unchecked_const_iterator@V?$_Tree_val@U?$_Tree_simple_types@U?$pair@$$CBV?$basic_string@DU?$char_traits@D@std@@V?$allocator@D@2@@std@@PEAVAbstractMetaObjectBase@impl@class_loader@@@std@@@std@@@std@@U_Iterator_base0@2@@std@@QEAA@PEAU?$_Tree_node@U?$pair@$$CBV?$basic_string@DU?$char_traits@D@std@@V?$allocator@D@2@@std@@PEAVAbstractMetaObjectBase@impl@class_loader@@@std@@PEAX@1@PEBV?$_Tree_val@U?$_Tree_simple_types@U?$pair@$$CBV?$basic_string@DU?$char_traits@D@std@@V?$allocator@D@2@@std@@PEAVAbstractMetaObjectBase@impl@class_loader@@@std@@@std@@@1@@Z
	??0?$_Tree_val@U?$_Tree_simple_types@U?$pair@$$CBV?$basic_string@DU?$char_traits@D@std@@V?$allocator@D@2@@std@@V12@@std@@@std@@@std@@QEAA@XZ
	??0?$_Uninitialized_backout_al@V?$allocator@U?$ColorRGBA_@V?$allocator@X@std@@@std_msgs@@@std@@@std@@QEAA@PEAU?$ColorRGBA_@V?$allocator@X@std@@@std_msgs@@AEAV?$allocator@U?$ColorRGBA_@V?$allocator@X@std@@@std_msgs@@@1@@Z
	??0?$_Uninitialized_backout_al@V?$allocator@U?$Marker_@V?$allocator@X@std@@@visualization_msgs@@@std@@@std@@QEAA@PEAU?$Marker_@V?$allocator@X@std@@@visualization_msgs@@AEAV?$allocator@U?$Marker_@V?$allocator@X@std@@@visualization_msgs@@@1@@Z
	??0?$_Uninitialized_backout_al@V?$allocator@U?$Point_@V?$allocator@X@std@@@geometry_msgs@@@std@@@std@@QEAA@PEAU?$Point_@V?$allocator@X@std@@@geometry_msgs@@AEAV?$allocator@U?$Point_@V?$allocator@X@std@@@geometry_msgs@@@1@@Z
	??0?$_Uninitialized_backout_al@V?$allocator@U?$PoseStamped_@V?$allocator@X@std@@@geometry_msgs@@@std@@@std@@QEAA@PEAU?$PoseStamped_@V?$allocator@X@std@@@geometry_msgs@@AEAV?$allocator@U?$PoseStamped_@V?$allocator@X@std@@@geometry_msgs@@@1@@Z
	??0?$_Vector_const_iterator@V?$_Vector_val@U?$_Simple_types@U?$ColorRGBA_@V?$allocator@X@std@@@std_msgs@@@std@@@std@@@std@@QEAA@PEAU?$ColorRGBA_@V?$allocator@X@std@@@std_msgs@@PEBU_Container_base0@1@@Z
	??0?$_Vector_const_iterator@V?$_Vector_val@U?$_Simple_types@U?$Marker_@V?$allocator@X@std@@@visualization_msgs@@@std@@@std@@@std@@QEAA@PEAU?$Marker_@V?$allocator@X@std@@@visualization_msgs@@PEBU_Container_base0@1@@Z
	??0?$_Vector_const_iterator@V?$_Vector_val@U?$_Simple_types@U?$Point_@V?$allocator@X@std@@@geometry_msgs@@@std@@@std@@@std@@QEAA@PEAU?$Point_@V?$allocator@X@std@@@geometry_msgs@@PEBU_Container_base0@1@@Z
	??0?$_Vector_const_iterator@V?$_Vector_val@U?$_Simple_types@U?$PoseStamped_@V?$allocator@X@std@@@geometry_msgs@@@std@@@std@@@std@@QEAA@PEAU?$PoseStamped_@V?$allocator@X@std@@@geometry_msgs@@PEBU_Container_base0@1@@Z
	??0?$_Vector_iterator@V?$_Vector_val@U?$_Simple_types@U?$PoseStamped_@V?$allocator@X@std@@@geometry_msgs@@@std@@@std@@@std@@QEAA@PEAU?$PoseStamped_@V?$allocator@X@std@@@geometry_msgs@@PEBU_Container_base0@1@@Z
	??0?$_Vector_val@U?$_Simple_types@U?$ColorRGBA_@V?$allocator@X@std@@@std_msgs@@@std@@@std@@QEAA@PEAU?$ColorRGBA_@V?$allocator@X@std@@@std_msgs@@00@Z
	??0?$_Vector_val@U?$_Simple_types@U?$ColorRGBA_@V?$allocator@X@std@@@std_msgs@@@std@@@std@@QEAA@XZ
	??0?$_Vector_val@U?$_Simple_types@U?$Marker_@V?$allocator@X@std@@@visualization_msgs@@@std@@@std@@QEAA@XZ
	??0?$_Vector_val@U?$_Simple_types@U?$Point_@V?$allocator@X@std@@@geometry_msgs@@@std@@@std@@QEAA@PEAU?$Point_@V?$allocator@X@std@@@geometry_msgs@@00@Z
	??0?$_Vector_val@U?$_Simple_types@U?$Point_@V?$allocator@X@std@@@geometry_msgs@@@std@@@std@@QEAA@XZ
	??0?$_Vector_val@U?$_Simple_types@U?$PoseStamped_@V?$allocator@X@std@@@geometry_msgs@@@std@@@std@@QEAA@XZ
	??0?$allocator@D@std@@QEAA@XZ
	??0?$allocator@U?$ColorRGBA_@V?$allocator@X@std@@@std_msgs@@@std@@QEAA@XZ
	??0?$allocator@U?$Marker_@V?$allocator@X@std@@@visualization_msgs@@@std@@QEAA@XZ
	??0?$allocator@U?$Point_@V?$allocator@X@std@@@geometry_msgs@@@std@@QEAA@XZ
	??0?$allocator@U?$PoseStamped_@V?$allocator@X@std@@@geometry_msgs@@@std@@QEAA@XZ
	??0?$allocator@U?$_Tree_node@U?$pair@$$CBV?$basic_string@DU?$char_traits@D@std@@V?$allocator@D@2@@std@@V12@@std@@PEAX@std@@@std@@QEAA@XZ
	??0?$arg@$00@boost@@QEAA@XZ
	??0?$atomic@H@std@@QEAA@H@Z
	??0?$basic_string@DU?$char_traits@D@std@@V?$allocator@D@2@@std@@QEAA@$$QEAV01@@Z
	??0?$basic_string@DU?$char_traits@D@std@@V?$allocator@D@2@@std@@QEAA@AEBV01@@Z
	??0?$basic_string@DU?$char_traits@D@std@@V?$allocator@D@2@@std@@QEAA@QEBD@Z
	??0?$basic_string@DU?$char_traits@D@std@@V?$allocator@D@2@@std@@QEAA@QEBD_K@Z
	??0?$basic_string@DU?$char_traits@D@std@@V?$allocator@D@2@@std@@QEAA@U_String_constructor_concat_tag@1@AEBV01@QEBD_K23@Z
	??0?$basic_string@DU?$char_traits@D@std@@V?$allocator@D@2@@std@@QEAA@XZ
	??0?$bind_t@VSerializedMessage@ros@@P6A?AV12@AEBU?$MarkerArray_@V?$allocator@X@std@@@visualization_msgs@@@ZV?$list1@V?$reference_wrapper@$$CBU?$MarkerArray_@V?$allocator@X@std@@@visualization_msgs@@@boost@@@_bi@boost@@@_bi@boost@@QEAA@P6A?AVSerializedMessage@ros@@AEBU?$MarkerArray_@V?$allocator@X@std@@@visualization_msgs@@@ZAEBV?$list1@V?$reference_wrapper@$$CBU?$MarkerArray_@V?$allocator@X@std@@@visualization_msgs@@@boost@@@12@@Z
	??0?$bind_t@VSerializedMessage@ros@@P6A?AV12@AEBU?$Path_@V?$allocator@X@std@@@nav_msgs@@@ZV?$list1@V?$reference_wrapper@$$CBU?$Path_@V?$allocator@X@std@@@nav_msgs@@@boost@@@_bi@boost@@@_bi@boost@@QEAA@P6A?AVSerializedMessage@ros@@AEBU?$Path_@V?$allocator@X@std@@@nav_msgs@@@ZAEBV?$list1@V?$reference_wrapper@$$CBU?$Path_@V?$allocator@X@std@@@nav_msgs@@@boost@@@12@@Z
	??0?$bind_t@VSerializedMessage@ros@@P6A?AV12@AEBU?$PoseStamped_@V?$allocator@X@std@@@geometry_msgs@@@ZV?$list1@V?$reference_wrapper@$$CBU?$PoseStamped_@V?$allocator@X@std@@@geometry_msgs@@@boost@@@_bi@boost@@@_bi@boost@@QEAA@P6A?AVSerializedMessage@ros@@AEBU?$PoseStamped_@V?$allocator@X@std@@@geometry_msgs@@@ZAEBV?$list1@V?$reference_wrapper@$$CBU?$PoseStamped_@V?$allocator@X@std@@@geometry_msgs@@@boost@@@12@@Z
	??0?$bind_t@XV?$mf1@XVWaypointGlobalPlanner@waypoint_global_planner@@AEBV?$shared_ptr@$$CBU?$Path_@V?$allocator@X@std@@@nav_msgs@@@boost@@@_mfi@boost@@V?$list2@V?$value@PEAVWaypointGlobalPlanner@waypoint_global_planner@@@_bi@boost@@U?$arg@$00@3@@_bi@3@@_bi@boost@@QEAA@V?$mf1@XVWaypointGlobalPlanner@waypoint_global_planner@@AEBV?$shared_ptr@$$CBU?$Path_@V?$allocator@X@std@@@nav_msgs@@@boost@@@_mfi@2@AEBV?$list2@V?$value@PEAVWaypointGlobalPlanner@waypoint_global_planner@@@_bi@boost@@U?$arg@$00@3@@12@@Z
	??0?$bind_t@XV?$mf1@XVWaypointGlobalPlanner@waypoint_global_planner@@AEBV?$shared_ptr@$$CBU?$PointStamped_@V?$allocator@X@std@@@geometry_msgs@@@boost@@@_mfi@boost@@V?$list2@V?$value@PEAVWaypointGlobalPlanner@waypoint_global_planner@@@_bi@boost@@U?$arg@$00@3@@_bi@3@@_bi@boost@@QEAA@V?$mf1@XVWaypointGlobalPlanner@waypoint_global_planner@@AEBV?$shared_ptr@$$CBU?$PointStamped_@V?$allocator@X@std@@@geometry_msgs@@@boost@@@_mfi@2@AEBV?$list2@V?$value@PEAVWaypointGlobalPlanner@waypoint_global_planner@@@_bi@boost@@U?$arg@$00@3@@12@@Z
	??0?$clone_impl@U?$error_info_injector@Vbad_function_call@boost@@@exception_detail@boost@@@exception_detail@boost@@AEAA@AEBV012@Uclone_tag@012@@Z
	??0?$clone_impl@U?$error_info_injector@Vbad_function_call@boost@@@exception_detail@boost@@@exception_detail@boost@@QEAA@AEBU?$error_info_injector@Vbad_function_call@boost@@@12@@Z
	??0?$clone_impl@U?$error_info_injector@Vbad_function_call@boost@@@exception_detail@boost@@@exception_detail@boost@@QEAA@AEBV012@@Z
	??0?$clone_impl@U?$error_info_injector@Vthread_resource_error@boost@@@exception_detail@boost@@@exception_detail@boost@@AEAA@AEBV012@Uclone_tag@012@@Z
	??0?$clone_impl@U?$error_info_injector@Vthread_resource_error@boost@@@exception_detail@boost@@@exception_detail@boost@@QEAA@AEBU?$error_info_injector@Vthread_resource_error@boost@@@12@@Z
	??0?$clone_impl@U?$error_info_injector@Vthread_resource_error@boost@@@exception_detail@boost@@@exception_detail@boost@@QEAA@AEBV012@@Z
	??0?$clone_impl@Ubad_alloc_@exception_detail@boost@@@exception_detail@boost@@AEAA@AEBV012@Uclone_tag@012@@Z
	??0?$clone_impl@Ubad_alloc_@exception_detail@boost@@@exception_detail@boost@@QEAA@AEBUbad_alloc_@12@@Z
	??0?$clone_impl@Ubad_alloc_@exception_detail@boost@@@exception_detail@boost@@QEAA@AEBV012@@Z
	??0?$clone_impl@Ubad_exception_@exception_detail@boost@@@exception_detail@boost@@AEAA@AEBV012@Uclone_tag@012@@Z
	??0?$clone_impl@Ubad_exception_@exception_detail@boost@@@exception_detail@boost@@QEAA@AEBUbad_exception_@12@@Z
	??0?$clone_impl@Ubad_exception_@exception_detail@boost@@@exception_detail@boost@@QEAA@AEBV012@@Z
	??0?$error_info@Uthrow_file_@boost@@PEBD@boost@@QEAA@PEBD@Z
	??0?$error_info@Uthrow_function_@boost@@PEBD@boost@@QEAA@PEBD@Z
	??0?$error_info@Uthrow_line_@boost@@H@boost@@QEAA@H@Z
	??0?$error_info_injector@Vbad_function_call@boost@@@exception_detail@boost@@QEAA@AEBU012@@Z
	??0?$error_info_injector@Vbad_function_call@boost@@@exception_detail@boost@@QEAA@AEBVbad_function_call@2@@Z
	??0?$error_info_injector@Vthread_resource_error@boost@@@exception_detail@boost@@QEAA@AEBU012@@Z
	??0?$error_info_injector@Vthread_resource_error@boost@@@exception_detail@boost@@QEAA@AEBVthread_resource_error@2@@Z
	??0?$function0@V?$shared_ptr@U?$Path_@V?$allocator@X@std@@@nav_msgs@@@boost@@@boost@@QEAA@AEBV01@@Z
	??0?$function0@V?$shared_ptr@U?$Path_@V?$allocator@X@std@@@nav_msgs@@@boost@@@boost@@QEAA@XZ
	??0?$function0@V?$shared_ptr@U?$PointStamped_@V?$allocator@X@std@@@geometry_msgs@@@boost@@@boost@@QEAA@AEBV01@@Z
	??0?$function0@V?$shared_ptr@U?$PointStamped_@V?$allocator@X@std@@@geometry_msgs@@@boost@@@boost@@QEAA@XZ
	??0?$function1@XAEBV?$shared_ptr@$$CBU?$Path_@V?$allocator@X@std@@@nav_msgs@@@boost@@@boost@@QEAA@AEBV01@@Z
	??0?$function1@XAEBV?$shared_ptr@$$CBU?$PointStamped_@V?$allocator@X@std@@@geometry_msgs@@@boost@@@boost@@QEAA@AEBV01@@Z
	??0?$function1@XAEBVSingleSubscriberPublisher@ros@@@boost@@QEAA@AEBV01@@Z
	??0?$function1@XAEBVSingleSubscriberPublisher@ros@@@boost@@QEAA@XZ
	??0?$function1@XV?$shared_ptr@$$CBU?$Path_@V?$allocator@X@std@@@nav_msgs@@@boost@@@boost@@QEAA@AEBV01@@Z
	??0?$function1@XV?$shared_ptr@$$CBU?$PointStamped_@V?$allocator@X@std@@@geometry_msgs@@@boost@@@boost@@QEAA@AEBV01@@Z
	??0?$function@$$A6A?AV?$shared_ptr@U?$Path_@V?$allocator@X@std@@@nav_msgs@@@boost@@XZ@boost@@QEAA@AEBV01@@Z
	??0?$function@$$A6A?AV?$shared_ptr@U?$Path_@V?$allocator@X@std@@@nav_msgs@@@boost@@XZ@boost@@QEAA@XZ
	??0?$function@$$A6A?AV?$shared_ptr@U?$PointStamped_@V?$allocator@X@std@@@geometry_msgs@@@boost@@XZ@boost@@QEAA@AEBV01@@Z
	??0?$function@$$A6A?AV?$shared_ptr@U?$PointStamped_@V?$allocator@X@std@@@geometry_msgs@@@boost@@XZ@boost@@QEAA@XZ
	??0?$function@$$A6AXAEBV?$shared_ptr@$$CBU?$Path_@V?$allocator@X@std@@@nav_msgs@@@boost@@@Z@boost@@QEAA@AEBV01@@Z
	??0?$function@$$A6AXAEBV?$shared_ptr@$$CBU?$PointStamped_@V?$allocator@X@std@@@geometry_msgs@@@boost@@@Z@boost@@QEAA@AEBV01@@Z
	??0?$function@$$A6AXAEBVSingleSubscriberPublisher@ros@@@Z@boost@@QEAA@AEBV01@@Z
	??0?$function@$$A6AXAEBVSingleSubscriberPublisher@ros@@@Z@boost@@QEAA@XZ
	??0?$function@$$A6AXV?$shared_ptr@$$CBU?$Path_@V?$allocator@X@std@@@nav_msgs@@@boost@@@Z@boost@@QEAA@AEBV01@@Z
	??0?$function@$$A6AXV?$shared_ptr@$$CBU?$PointStamped_@V?$allocator@X@std@@@geometry_msgs@@@boost@@@Z@boost@@QEAA@AEBV01@@Z
	??0?$list1@V?$reference_wrapper@$$CBU?$MarkerArray_@V?$allocator@X@std@@@visualization_msgs@@@boost@@@_bi@boost@@QEAA@V?$reference_wrapper@$$CBU?$MarkerArray_@V?$allocator@X@std@@@visualization_msgs@@@2@@Z
	??0?$list1@V?$reference_wrapper@$$CBU?$Path_@V?$allocator@X@std@@@nav_msgs@@@boost@@@_bi@boost@@QEAA@V?$reference_wrapper@$$CBU?$Path_@V?$allocator@X@std@@@nav_msgs@@@2@@Z
	??0?$list1@V?$reference_wrapper@$$CBU?$PoseStamped_@V?$allocator@X@std@@@geometry_msgs@@@boost@@@_bi@boost@@QEAA@V?$reference_wrapper@$$CBU?$PoseStamped_@V?$allocator@X@std@@@geometry_msgs@@@2@@Z
	??0?$list2@V?$value@PEAVWaypointGlobalPlanner@waypoint_global_planner@@@_bi@boost@@U?$arg@$00@3@@_bi@boost@@QEAA@V?$value@PEAVWaypointGlobalPlanner@waypoint_global_planner@@@12@U?$arg@$00@2@@Z
	??0?$map@V?$basic_string@DU?$char_traits@D@std@@V?$allocator@D@2@@std@@V12@U?$less@V?$basic_string@DU?$char_traits@D@std@@V?$allocator@D@2@@std@@@2@V?$allocator@U?$pair@$$CBV?$basic_string@DU?$char_traits@D@std@@V?$allocator@D@2@@std@@V12@@std@@@2@@std@@QEAA@XZ
	??0?$mf1@XVWaypointGlobalPlanner@waypoint_global_planner@@AEBV?$shared_ptr@$$CBU?$Path_@V?$allocator@X@std@@@nav_msgs@@@boost@@@_mfi@boost@@QEAA@P8WaypointGlobalPlanner@waypoint_global_planner@@EAAXAEBV?$shared_ptr@$$CBU?$Path_@V?$allocator@X@std@@@nav_msgs@@@2@@Z@Z
	??0?$mf1@XVWaypointGlobalPlanner@waypoint_global_planner@@AEBV?$shared_ptr@$$CBU?$PointStamped_@V?$allocator@X@std@@@geometry_msgs@@@boost@@@_mfi@boost@@QEAA@P8WaypointGlobalPlanner@waypoint_global_planner@@EAAXAEBV?$shared_ptr@$$CBU?$PointStamped_@V?$allocator@X@std@@@geometry_msgs@@@2@@Z@Z
	??0?$refcount_ptr@Uerror_info_container@exception_detail@boost@@@exception_detail@boost@@QEAA@AEBV012@@Z
	??0?$refcount_ptr@Uerror_info_container@exception_detail@boost@@@exception_detail@boost@@QEAA@XZ
	??0?$reference_wrapper@$$CBU?$MarkerArray_@V?$allocator@X@std@@@visualization_msgs@@@boost@@QEAA@AEBU?$MarkerArray_@V?$allocator@X@std@@@visualization_msgs@@@Z
	??0?$reference_wrapper@$$CBU?$Path_@V?$allocator@X@std@@@nav_msgs@@@boost@@QEAA@AEBU?$Path_@V?$allocator@X@std@@@nav_msgs@@@Z
	??0?$reference_wrapper@$$CBU?$PoseStamped_@V?$allocator@X@std@@@geometry_msgs@@@boost@@QEAA@AEBU?$PoseStamped_@V?$allocator@X@std@@@geometry_msgs@@@Z
	??0?$rrlist1@AEBV?$shared_ptr@$$CBU?$Path_@V?$allocator@X@std@@@nav_msgs@@@boost@@@_bi@boost@@QEAA@AEBV?$shared_ptr@$$CBU?$Path_@V?$allocator@X@std@@@nav_msgs@@@2@@Z
	??0?$rrlist1@AEBV?$shared_ptr@$$CBU?$PointStamped_@V?$allocator@X@std@@@geometry_msgs@@@boost@@@_bi@boost@@QEAA@AEBV?$shared_ptr@$$CBU?$PointStamped_@V?$allocator@X@std@@@geometry_msgs@@@2@@Z
	??0?$shared_ptr@$$CBU?$Path_@V?$allocator@X@std@@@nav_msgs@@@boost@@QEAA@$$QEAV01@@Z
	??0?$shared_ptr@$$CBU?$Path_@V?$allocator@X@std@@@nav_msgs@@@boost@@QEAA@AEBV01@@Z
	??0?$shared_ptr@$$CBU?$Path_@V?$allocator@X@std@@@nav_msgs@@@boost@@QEAA@XZ
	??0?$shared_ptr@$$CBU?$PointStamped_@V?$allocator@X@std@@@geometry_msgs@@@boost@@QEAA@$$QEAV01@@Z
	??0?$shared_ptr@$$CBU?$PointStamped_@V?$allocator@X@std@@@geometry_msgs@@@boost@@QEAA@AEBV01@@Z
	??0?$shared_ptr@$$CBU?$PointStamped_@V?$allocator@X@std@@@geometry_msgs@@@boost@@QEAA@XZ
	??0?$shared_ptr@$$CBVclone_base@exception_detail@boost@@@boost@@QEAA@AEBV01@@Z
	??0?$shared_ptr@$$CBX@boost@@QEAA@XZ
	??0?$shared_ptr@U?$Path_@V?$allocator@X@std@@@nav_msgs@@@boost@@QEAA@$$QEAV01@@Z
	??0?$shared_ptr@U?$Path_@V?$allocator@X@std@@@nav_msgs@@@boost@@QEAA@AEBV01@@Z
	??0?$shared_ptr@U?$Path_@V?$allocator@X@std@@@nav_msgs@@@boost@@QEAA@XZ
	??0?$shared_ptr@U?$PointStamped_@V?$allocator@X@std@@@geometry_msgs@@@boost@@QEAA@$$QEAV01@@Z
	??0?$shared_ptr@U?$PointStamped_@V?$allocator@X@std@@@geometry_msgs@@@boost@@QEAA@AEBV01@@Z
	??0?$shared_ptr@U?$PointStamped_@V?$allocator@X@std@@@geometry_msgs@@@boost@@QEAA@XZ
	??0?$shared_ptr@V?$map@V?$basic_string@DU?$char_traits@D@std@@V?$allocator@D@2@@std@@V12@U?$less@V?$basic_string@DU?$char_traits@D@std@@V?$allocator@D@2@@std@@@2@V?$allocator@U?$pair@$$CBV?$basic_string@DU?$char_traits@D@std@@V?$allocator@D@2@@std@@V12@@std@@@2@@std@@@boost@@QEAA@AEBV01@@Z
	??0?$shared_ptr@V?$map@V?$basic_string@DU?$char_traits@D@std@@V?$allocator@D@2@@std@@V12@U?$less@V?$basic_string@DU?$char_traits@D@std@@V?$allocator@D@2@@std@@@2@V?$allocator@U?$pair@$$CBV?$basic_string@DU?$char_traits@D@std@@V?$allocator@D@2@@std@@V12@@std@@@2@@std@@@boost@@QEAA@XZ
	??0?$sp_counted_impl_p@V?$clone_impl@Ubad_alloc_@exception_detail@boost@@@exception_detail@boost@@@detail@boost@@QEAA@PEAV?$clone_impl@Ubad_alloc_@exception_detail@boost@@@exception_detail@2@@Z
	??0?$sp_counted_impl_p@V?$clone_impl@Ubad_exception_@exception_detail@boost@@@exception_detail@boost@@@detail@boost@@QEAA@PEAV?$clone_impl@Ubad_exception_@exception_detail@boost@@@exception_detail@2@@Z
	??0?$sp_counted_impl_pd@PEAEU?$checked_array_deleter@E@boost@@@detail@boost@@QEAA@PEAEAEAU?$checked_array_deleter@E@2@@Z
	??0?$sp_counted_impl_pd@PEAU?$Path_@V?$allocator@X@std@@@nav_msgs@@V?$sp_ms_deleter@U?$Path_@V?$allocator@X@std@@@nav_msgs@@@detail@boost@@@detail@boost@@QEAA@PEAU?$Path_@V?$allocator@X@std@@@nav_msgs@@@Z
	??0?$sp_counted_impl_pd@PEAU?$PointStamped_@V?$allocator@X@std@@@geometry_msgs@@V?$sp_ms_deleter@U?$PointStamped_@V?$allocator@X@std@@@geometry_msgs@@@detail@boost@@@detail@boost@@QEAA@PEAU?$PointStamped_@V?$allocator@X@std@@@geometry_msgs@@@Z
	??0?$sp_counted_impl_pd@PEAV?$SubscriptionCallbackHelperT@AEBV?$shared_ptr@$$CBU?$Path_@V?$allocator@X@std@@@nav_msgs@@@boost@@X@ros@@V?$sp_ms_deleter@V?$SubscriptionCallbackHelperT@AEBV?$shared_ptr@$$CBU?$Path_@V?$allocator@X@std@@@nav_msgs@@@boost@@X@ros@@@detail@boost@@@detail@boost@@QEAA@PEAV?$SubscriptionCallbackHelperT@AEBV?$shared_ptr@$$CBU?$Path_@V?$allocator@X@std@@@nav_msgs@@@boost@@X@ros@@@Z
	??0?$sp_counted_impl_pd@PEAV?$SubscriptionCallbackHelperT@AEBV?$shared_ptr@$$CBU?$PointStamped_@V?$allocator@X@std@@@geometry_msgs@@@boost@@X@ros@@V?$sp_ms_deleter@V?$SubscriptionCallbackHelperT@AEBV?$shared_ptr@$$CBU?$PointStamped_@V?$allocator@X@std@@@geometry_msgs@@@boost@@X@ros@@@detail@boost@@@detail@boost@@QEAA@PEAV?$SubscriptionCallbackHelperT@AEBV?$shared_ptr@$$CBU?$PointStamped_@V?$allocator@X@std@@@geometry_msgs@@@boost@@X@ros@@@Z
	??0?$sp_ms_deleter@U?$Path_@V?$allocator@X@std@@@nav_msgs@@@detail@boost@@QEAA@XZ
	??0?$sp_ms_deleter@U?$PointStamped_@V?$allocator@X@std@@@geometry_msgs@@@detail@boost@@QEAA@XZ
	??0?$sp_ms_deleter@V?$SubscriptionCallbackHelperT@AEBV?$shared_ptr@$$CBU?$Path_@V?$allocator@X@std@@@nav_msgs@@@boost@@X@ros@@@detail@boost@@QEAA@XZ
	??0?$sp_ms_deleter@V?$SubscriptionCallbackHelperT@AEBV?$shared_ptr@$$CBU?$PointStamped_@V?$allocator@X@std@@@geometry_msgs@@@boost@@X@ros@@@detail@boost@@QEAA@XZ
	??0?$storage1@V?$reference_wrapper@$$CBU?$MarkerArray_@V?$allocator@X@std@@@visualization_msgs@@@boost@@@_bi@boost@@QEAA@V?$reference_wrapper@$$CBU?$MarkerArray_@V?$allocator@X@std@@@visualization_msgs@@@2@@Z
	??0?$storage1@V?$reference_wrapper@$$CBU?$Path_@V?$allocator@X@std@@@nav_msgs@@@boost@@@_bi@boost@@QEAA@V?$reference_wrapper@$$CBU?$Path_@V?$allocator@X@std@@@nav_msgs@@@2@@Z
	??0?$storage1@V?$reference_wrapper@$$CBU?$PoseStamped_@V?$allocator@X@std@@@geometry_msgs@@@boost@@@_bi@boost@@QEAA@V?$reference_wrapper@$$CBU?$PoseStamped_@V?$allocator@X@std@@@geometry_msgs@@@2@@Z
	??0?$storage1@V?$value@PEAVWaypointGlobalPlanner@waypoint_global_planner@@@_bi@boost@@@_bi@boost@@QEAA@V?$value@PEAVWaypointGlobalPlanner@waypoint_global_planner@@@12@@Z
	??0?$storage2@V?$value@PEAVWaypointGlobalPlanner@waypoint_global_planner@@@_bi@boost@@U?$arg@$00@3@@_bi@boost@@QEAA@V?$value@PEAVWaypointGlobalPlanner@waypoint_global_planner@@@12@U?$arg@$00@2@@Z
	??0?$tuple@$$V@std@@QEAA@AEBV01@@Z
	??0?$tuple@AEBV?$basic_string@DU?$char_traits@D@std@@V?$allocator@D@2@@std@@@std@@QEAA@$$QEAV01@@Z
	??0?$value@PEAVWaypointGlobalPlanner@waypoint_global_planner@@@_bi@boost@@QEAA@AEBQEAVWaypointGlobalPlanner@waypoint_global_planner@@@Z
	??0?$vector@U?$ColorRGBA_@V?$allocator@X@std@@@std_msgs@@V?$allocator@U?$ColorRGBA_@V?$allocator@X@std@@@std_msgs@@@std@@@std@@QEAA@$$QEAV01@@Z
	??0?$vector@U?$ColorRGBA_@V?$allocator@X@std@@@std_msgs@@V?$allocator@U?$ColorRGBA_@V?$allocator@X@std@@@std_msgs@@@std@@@std@@QEAA@AEBV01@@Z
	??0?$vector@U?$ColorRGBA_@V?$allocator@X@std@@@std_msgs@@V?$allocator@U?$ColorRGBA_@V?$allocator@X@std@@@std_msgs@@@std@@@std@@QEAA@XZ
	??0?$vector@U?$Marker_@V?$allocator@X@std@@@visualization_msgs@@V?$allocator@U?$Marker_@V?$allocator@X@std@@@visualization_msgs@@@std@@@std@@QEAA@XZ
	??0?$vector@U?$Point_@V?$allocator@X@std@@@geometry_msgs@@V?$allocator@U?$Point_@V?$allocator@X@std@@@geometry_msgs@@@std@@@std@@QEAA@$$QEAV01@@Z
	??0?$vector@U?$Point_@V?$allocator@X@std@@@geometry_msgs@@V?$allocator@U?$Point_@V?$allocator@X@std@@@geometry_msgs@@@std@@@std@@QEAA@AEBV01@@Z
	??0?$vector@U?$Point_@V?$allocator@X@std@@@geometry_msgs@@V?$allocator@U?$Point_@V?$allocator@X@std@@@geometry_msgs@@@std@@@std@@QEAA@XZ
	??0?$vector@U?$PoseStamped_@V?$allocator@X@std@@@geometry_msgs@@V?$allocator@U?$PoseStamped_@V?$allocator@X@std@@@geometry_msgs@@@std@@@std@@QEAA@XZ
	??0BaseGlobalPlanner@nav_core@@IEAA@XZ
	??0QuadWord@tf@@QEAA@XZ
	??0Quaternion@tf@@QEAA@XZ
	??0WaypointGlobalPlanner@waypoint_global_planner@@QEAA@V?$basic_string@DU?$char_traits@D@std@@V?$allocator@D@2@@std@@PEAVCostmap2DROS@costmap_2d@@@Z
	??0WaypointGlobalPlanner@waypoint_global_planner@@QEAA@XZ
	??0_Bxty@?$_String_val@U?$_Simple_types@D@std@@@std@@QEAA@XZ
	??0_Fake_proxy_ptr_impl@std@@QEAA@AEBU_Fake_allocator@1@AEBU_Container_base0@1@@Z
	??0bad_alloc@std@@AEAA@QEBD@Z
	??0bad_alloc@std@@QEAA@AEBV01@@Z
	??0bad_alloc@std@@QEAA@XZ
	??0bad_alloc_@exception_detail@boost@@QEAA@AEBU012@@Z
	??0bad_alloc_@exception_detail@boost@@QEAA@XZ
	??0bad_array_new_length@std@@QEAA@AEBV01@@Z
	??0bad_array_new_length@std@@QEAA@XZ
	??0bad_exception@std@@QEAA@AEBV01@@Z
	??0bad_exception@std@@QEAA@XZ
	??0bad_exception_@exception_detail@boost@@QEAA@AEBU012@@Z
	??0bad_exception_@exception_detail@boost@@QEAA@XZ
	??0bad_function_call@boost@@QEAA@AEBV01@@Z
	??0bad_function_call@boost@@QEAA@XZ
	??0clone_base@exception_detail@boost@@QEAA@AEBV012@@Z
	??0clone_base@exception_detail@boost@@QEAA@XZ
	??0error_code@system@boost@@QEAA@HAEBVerror_category@12@@Z
	??0exception@boost@@IEAA@XZ
	??0exception@boost@@QEAA@AEBV01@@Z
	??0exception@std@@QEAA@AEBV01@@Z
	??0exception@std@@QEAA@QEBD@Z
	??0exception@std@@QEAA@QEBDH@Z
	??0exception_ptr@boost@@QEAA@AEBV01@@Z
	??0exception_ptr@boost@@QEAA@AEBV?$shared_ptr@$$CBVclone_base@exception_detail@boost@@@1@@Z
	??0function_base@boost@@QEAA@XZ
	??0in_place_init_if_t@optional_ns@boost@@QEAA@Uinit_tag@012@@Z
	??0in_place_init_t@optional_ns@boost@@QEAA@Uinit_tag@012@@Z
	??0list0@_bi@boost@@QEAA@XZ
	??0none_t@boost@@QEAA@Uinit_tag@01@@Z
	??0runtime_error@std@@QEAA@AEBV01@@Z
	??0runtime_error@std@@QEAA@PEBD@Z
	??0shared_count@detail@boost@@QEAA@AEBV012@@Z
	??0shared_count@detail@boost@@QEAA@XZ
	??0sp_counted_base@detail@boost@@QEAA@XZ
	??0stl_type_index@typeindex@boost@@QEAA@AEBVtype_info@@@Z
	??0system_error@system@boost@@QEAA@AEBV012@@Z
	??0system_error@system@boost@@QEAA@Verror_code@12@PEBD@Z
	??0thread_exception@boost@@QEAA@AEBV01@@Z
	??0thread_exception@boost@@QEAA@HPEBD@Z
	??0thread_resource_error@boost@@QEAA@AEBV01@@Z
	??0thread_resource_error@boost@@QEAA@XZ
	??1?$AbstractMetaObject@VBaseGlobalPlanner@nav_core@@@impl@class_loader@@QEAA@XZ
	??1?$Header_@V?$allocator@X@std@@@std_msgs@@QEAA@XZ
	??1?$MarkerArray_@V?$allocator@X@std@@@visualization_msgs@@QEAA@XZ
	??1?$Marker_@V?$allocator@X@std@@@visualization_msgs@@QEAA@XZ
	??1?$MessageEvent@$$CBU?$Path_@V?$allocator@X@std@@@nav_msgs@@@ros@@QEAA@XZ
	??1?$MessageEvent@$$CBU?$PointStamped_@V?$allocator@X@std@@@geometry_msgs@@@ros@@QEAA@XZ
	??1?$Path_@V?$allocator@X@std@@@nav_msgs@@QEAA@XZ
	??1?$PointStamped_@V?$allocator@X@std@@@geometry_msgs@@QEAA@XZ
	??1?$PoseStamped_@V?$allocator@X@std@@@geometry_msgs@@QEAA@XZ
	??1?$PreDeserializeParams@U?$Path_@V?$allocator@X@std@@@nav_msgs@@@serialization@ros@@QEAA@XZ
	??1?$PreDeserializeParams@U?$PointStamped_@V?$allocator@X@std@@@geometry_msgs@@@serialization@ros@@QEAA@XZ
	??1?$SubscriptionCallbackHelperT@AEBV?$shared_ptr@$$CBU?$Path_@V?$allocator@X@std@@@nav_msgs@@@boost@@X@ros@@UEAA@XZ
	??1?$SubscriptionCallbackHelperT@AEBV?$shared_ptr@$$CBU?$PointStamped_@V?$allocator@X@std@@@geometry_msgs@@@boost@@X@ros@@UEAA@XZ
	??1?$_Alloc_construct_ptr@V?$allocator@U?$_Tree_node@U?$pair@$$CBV?$basic_string@DU?$char_traits@D@std@@V?$allocator@D@2@@std@@PEAVAbstractMetaObjectBase@impl@class_loader@@@std@@PEAX@std@@@std@@@std@@QEAA@XZ
	??1?$_Alloc_temporary2@V?$allocator@U?$PoseStamped_@V?$allocator@X@std@@@geometry_msgs@@@std@@@std@@QEAA@XZ
	??1?$_Compressed_pair@V?$allocator@D@std@@V?$_String_val@U?$_Simple_types@D@std@@@2@$00@std@@QEAA@XZ
	??1?$_String_val@U?$_Simple_types@D@std@@@std@@QEAA@XZ
	??1?$_Tidy_guard@V?$vector@U?$ColorRGBA_@V?$allocator@X@std@@@std_msgs@@V?$allocator@U?$ColorRGBA_@V?$allocator@X@std@@@std_msgs@@@std@@@std@@@std@@QEAA@XZ
	??1?$_Tidy_guard@V?$vector@U?$Point_@V?$allocator@X@std@@@geometry_msgs@@V?$allocator@U?$Point_@V?$allocator@X@std@@@geometry_msgs@@@std@@@std@@@std@@QEAA@XZ
	??1?$_Tree@V?$_Tmap_traits@V?$basic_string@DU?$char_traits@D@std@@V?$allocator@D@2@@std@@V12@U?$less@V?$basic_string@DU?$char_traits@D@std@@V?$allocator@D@2@@std@@@2@V?$allocator@U?$pair@$$CBV?$basic_string@DU?$char_traits@D@std@@V?$allocator@D@2@@std@@V12@@std@@@2@$0A@@std@@@std@@QEAA@XZ
	??1?$_Tree_temp_node@V?$allocator@U?$_Tree_node@U?$pair@$$CBV?$basic_string@DU?$char_traits@D@std@@V?$allocator@D@2@@std@@PEAVAbstractMetaObjectBase@impl@class_loader@@@std@@PEAX@std@@@std@@@std@@QEAA@XZ
	??1?$_Tree_temp_node_alloc@V?$allocator@U?$_Tree_node@U?$pair@$$CBV?$basic_string@DU?$char_traits@D@std@@V?$allocator@D@2@@std@@PEAVAbstractMetaObjectBase@impl@class_loader@@@std@@PEAX@std@@@std@@@std@@QEAA@XZ
	??1?$_Uninitialized_backout_al@V?$allocator@U?$ColorRGBA_@V?$allocator@X@std@@@std_msgs@@@std@@@std@@QEAA@XZ
	??1?$_Uninitialized_backout_al@V?$allocator@U?$Marker_@V?$allocator@X@std@@@visualization_msgs@@@std@@@std@@QEAA@XZ
	??1?$_Uninitialized_backout_al@V?$allocator@U?$Point_@V?$allocator@X@std@@@geometry_msgs@@@std@@@std@@QEAA@XZ
	??1?$_Uninitialized_backout_al@V?$allocator@U?$PoseStamped_@V?$allocator@X@std@@@geometry_msgs@@@std@@@std@@QEAA@XZ
	??1?$basic_string@DU?$char_traits@D@std@@V?$allocator@D@2@@std@@QEAA@XZ
	??1?$clone_impl@U?$error_info_injector@Vbad_function_call@boost@@@exception_detail@boost@@@exception_detail@boost@@UEAA@XZ
	??1?$clone_impl@U?$error_info_injector@Vthread_resource_error@boost@@@exception_detail@boost@@@exception_detail@boost@@UEAA@XZ
	??1?$clone_impl@Ubad_alloc_@exception_detail@boost@@@exception_detail@boost@@UEAA@XZ
	??1?$clone_impl@Ubad_exception_@exception_detail@boost@@@exception_detail@boost@@UEAA@XZ
	??1?$error_info_injector@Vbad_function_call@boost@@@exception_detail@boost@@UEAA@XZ
	??1?$error_info_injector@Vthread_resource_error@boost@@@exception_detail@boost@@UEAA@XZ
	??1?$function0@V?$shared_ptr@U?$Path_@V?$allocator@X@std@@@nav_msgs@@@boost@@@boost@@QEAA@XZ
	??1?$function0@V?$shared_ptr@U?$PointStamped_@V?$allocator@X@std@@@geometry_msgs@@@boost@@@boost@@QEAA@XZ
	??1?$function0@VSerializedMessage@ros@@@boost@@QEAA@XZ
	??1?$function1@XAEBV?$shared_ptr@$$CBU?$Path_@V?$allocator@X@std@@@nav_msgs@@@boost@@@boost@@QEAA@XZ
	??1?$function1@XAEBV?$shared_ptr@$$CBU?$PointStamped_@V?$allocator@X@std@@@geometry_msgs@@@boost@@@boost@@QEAA@XZ
	??1?$function1@XAEBVSingleSubscriberPublisher@ros@@@boost@@QEAA@XZ
	??1?$function1@XV?$shared_ptr@$$CBU?$Path_@V?$allocator@X@std@@@nav_msgs@@@boost@@@boost@@QEAA@XZ
	??1?$function1@XV?$shared_ptr@$$CBU?$PointStamped_@V?$allocator@X@std@@@geometry_msgs@@@boost@@@boost@@QEAA@XZ
	??1?$function@$$A6A?AV?$shared_ptr@U?$Path_@V?$allocator@X@std@@@nav_msgs@@@boost@@XZ@boost@@QEAA@XZ
	??1?$function@$$A6A?AV?$shared_ptr@U?$PointStamped_@V?$allocator@X@std@@@geometry_msgs@@@boost@@XZ@boost@@QEAA@XZ
	??1?$function@$$A6A?AVSerializedMessage@ros@@XZ@boost@@QEAA@XZ
	??1?$function@$$A6AXAEBV?$shared_ptr@$$CBU?$Path_@V?$allocator@X@std@@@nav_msgs@@@boost@@@Z@boost@@QEAA@XZ
	??1?$function@$$A6AXAEBV?$shared_ptr@$$CBU?$PointStamped_@V?$allocator@X@std@@@geometry_msgs@@@boost@@@Z@boost@@QEAA@XZ
	??1?$function@$$A6AXAEBVSingleSubscriberPublisher@ros@@@Z@boost@@QEAA@XZ
	??1?$function@$$A6AXV?$shared_ptr@$$CBU?$Path_@V?$allocator@X@std@@@nav_msgs@@@boost@@@Z@boost@@QEAA@XZ
	??1?$function@$$A6AXV?$shared_ptr@$$CBU?$PointStamped_@V?$allocator@X@std@@@geometry_msgs@@@boost@@@Z@boost@@QEAA@XZ
	??1?$map@V?$basic_string@DU?$char_traits@D@std@@V?$allocator@D@2@@std@@V12@U?$less@V?$basic_string@DU?$char_traits@D@std@@V?$allocator@D@2@@std@@@2@V?$allocator@U?$pair@$$CBV?$basic_string@DU?$char_traits@D@std@@V?$allocator@D@2@@std@@V12@@std@@@2@@std@@QEAA@XZ
	??1?$pair@$$CBV?$basic_string@DU?$char_traits@D@std@@V?$allocator@D@2@@std@@PEAVAbstractMetaObjectBase@impl@class_loader@@@std@@QEAA@XZ
	??1?$pair@$$CBV?$basic_string@DU?$char_traits@D@std@@V?$allocator@D@2@@std@@V12@@std@@QEAA@XZ
	??1?$refcount_ptr@Uerror_info_container@exception_detail@boost@@@exception_detail@boost@@QEAA@XZ
	??1?$shared_array@E@boost@@QEAA@XZ
	??1?$shared_ptr@$$CBU?$Path_@V?$allocator@X@std@@@nav_msgs@@@boost@@QEAA@XZ
	??1?$shared_ptr@$$CBU?$PointStamped_@V?$allocator@X@std@@@geometry_msgs@@@boost@@QEAA@XZ
	??1?$shared_ptr@$$CBVclone_base@exception_detail@boost@@@boost@@QEAA@XZ
	??1?$shared_ptr@$$CBX@boost@@QEAA@XZ
	??1?$shared_ptr@U?$Path_@V?$allocator@X@std@@@nav_msgs@@@boost@@QEAA@XZ
	??1?$shared_ptr@U?$PointStamped_@V?$allocator@X@std@@@geometry_msgs@@@boost@@QEAA@XZ
	??1?$shared_ptr@V?$SubscriptionCallbackHelperT@AEBV?$shared_ptr@$$CBU?$Path_@V?$allocator@X@std@@@nav_msgs@@@boost@@X@ros@@@boost@@QEAA@XZ
	??1?$shared_ptr@V?$SubscriptionCallbackHelperT@AEBV?$shared_ptr@$$CBU?$PointStamped_@V?$allocator@X@std@@@geometry_msgs@@@boost@@X@ros@@@boost@@QEAA@XZ
	??1?$shared_ptr@V?$map@V?$basic_string@DU?$char_traits@D@std@@V?$allocator@D@2@@std@@V12@U?$less@V?$basic_string@DU?$char_traits@D@std@@V?$allocator@D@2@@std@@@2@V?$allocator@U?$pair@$$CBV?$basic_string@DU?$char_traits@D@std@@V?$allocator@D@2@@std@@V12@@std@@@2@@std@@@boost@@QEAA@XZ
	??1?$shared_ptr@VSubscriptionCallbackHelper@ros@@@boost@@QEAA@XZ
	??1?$shared_ptr@X@boost@@QEAA@XZ
	??1?$sp_counted_impl_p@V?$clone_impl@Ubad_alloc_@exception_detail@boost@@@exception_detail@boost@@@detail@boost@@UEAA@XZ
	??1?$sp_counted_impl_p@V?$clone_impl@Ubad_exception_@exception_detail@boost@@@exception_detail@boost@@@detail@boost@@UEAA@XZ
	??1?$sp_counted_impl_pd@PEAEU?$checked_array_deleter@E@boost@@@detail@boost@@UEAA@XZ
	??1?$sp_counted_impl_pd@PEAU?$Path_@V?$allocator@X@std@@@nav_msgs@@V?$sp_ms_deleter@U?$Path_@V?$allocator@X@std@@@nav_msgs@@@detail@boost@@@detail@boost@@UEAA@XZ
	??1?$sp_counted_impl_pd@PEAU?$PointStamped_@V?$allocator@X@std@@@geometry_msgs@@V?$sp_ms_deleter@U?$PointStamped_@V?$allocator@X@std@@@geometry_msgs@@@detail@boost@@@detail@boost@@UEAA@XZ
	??1?$sp_counted_impl_pd@PEAV?$SubscriptionCallbackHelperT@AEBV?$shared_ptr@$$CBU?$Path_@V?$allocator@X@std@@@nav_msgs@@@boost@@X@ros@@V?$sp_ms_deleter@V?$SubscriptionCallbackHelperT@AEBV?$shared_ptr@$$CBU?$Path_@V?$allocator@X@std@@@nav_msgs@@@boost@@X@ros@@@detail@boost@@@detail@boost@@UEAA@XZ
	??1?$sp_counted_impl_pd@PEAV?$SubscriptionCallbackHelperT@AEBV?$shared_ptr@$$CBU?$PointStamped_@V?$allocator@X@std@@@geometry_msgs@@@boost@@X@ros@@V?$sp_ms_deleter@V?$SubscriptionCallbackHelperT@AEBV?$shared_ptr@$$CBU?$PointStamped_@V?$allocator@X@std@@@geometry_msgs@@@boost@@X@ros@@@detail@boost@@@detail@boost@@UEAA@XZ
	??1?$sp_ms_deleter@U?$Path_@V?$allocator@X@std@@@nav_msgs@@@detail@boost@@QEAA@XZ
	??1?$sp_ms_deleter@U?$PointStamped_@V?$allocator@X@std@@@geometry_msgs@@@detail@boost@@QEAA@XZ
	??1?$sp_ms_deleter@V?$SubscriptionCallbackHelperT@AEBV?$shared_ptr@$$CBU?$Path_@V?$allocator@X@std@@@nav_msgs@@@boost@@X@ros@@@detail@boost@@QEAA@XZ
	??1?$sp_ms_deleter@V?$SubscriptionCallbackHelperT@AEBV?$shared_ptr@$$CBU?$PointStamped_@V?$allocator@X@std@@@geometry_msgs@@@boost@@X@ros@@@detail@boost@@QEAA@XZ
	??1?$unique_lock@Vmutex@boost@@@boost@@QEAA@XZ
	??1?$vector@U?$ColorRGBA_@V?$allocator@X@std@@@std_msgs@@V?$allocator@U?$ColorRGBA_@V?$allocator@X@std@@@std_msgs@@@std@@@std@@QEAA@XZ
	??1?$vector@U?$Marker_@V?$allocator@X@std@@@visualization_msgs@@V?$allocator@U?$Marker_@V?$allocator@X@std@@@visualization_msgs@@@std@@@std@@QEAA@XZ
	??1?$vector@U?$Point_@V?$allocator@X@std@@@geometry_msgs@@V?$allocator@U?$Point_@V?$allocator@X@std@@@geometry_msgs@@@std@@@std@@QEAA@XZ
	??1?$vector@U?$PoseStamped_@V?$allocator@X@std@@@geometry_msgs@@V?$allocator@U?$PoseStamped_@V?$allocator@X@std@@@geometry_msgs@@@std@@@std@@QEAA@XZ
	??1BaseGlobalPlanner@nav_core@@UEAA@XZ
	??1WaypointGlobalPlanner@waypoint_global_planner@@UEAA@XZ
	??1_Bxty@?$_String_val@U?$_Simple_types@D@std@@@std@@QEAA@XZ
	??1bad_alloc@std@@UEAA@XZ
	??1bad_alloc_@exception_detail@boost@@UEAA@XZ
	??1bad_array_new_length@std@@UEAA@XZ
	??1bad_exception@std@@UEAA@XZ
	??1bad_exception_@exception_detail@boost@@UEAA@XZ
	??1bad_function_call@boost@@UEAA@XZ
	??1clone_base@exception_detail@boost@@UEAA@XZ
	??1exception@boost@@MEAA@XZ
	??1exception@std@@UEAA@XZ
	??1exception_ptr@boost@@QEAA@XZ
	??1runtime_error@std@@UEAA@XZ
	??1shared_count@detail@boost@@QEAA@XZ
	??1sp_counted_base@detail@boost@@UEAA@XZ
	??1system_error@system@boost@@UEAA@XZ
	??1thread_exception@boost@@UEAA@XZ
	??1thread_resource_error@boost@@UEAA@XZ
	??2@YAPEAX_KPEAX@Z
	??4?$Header_@V?$allocator@X@std@@@std_msgs@@QEAAAEAU01@$$QEAU01@@Z
	??4?$Header_@V?$allocator@X@std@@@std_msgs@@QEAAAEAU01@AEBU01@@Z
	??4?$Path_@V?$allocator@X@std@@@nav_msgs@@QEAAAEAU01@AEBU01@@Z
	??4?$PointStamped_@V?$allocator@X@std@@@geometry_msgs@@QEAAAEAU01@AEBU01@@Z
	??4?$PoseStamped_@V?$allocator@X@std@@@geometry_msgs@@QEAAAEAU01@$$QEAU01@@Z
	??4?$PoseStamped_@V?$allocator@X@std@@@geometry_msgs@@QEAAAEAU01@AEBU01@@Z
	??4?$basic_string@DU?$char_traits@D@std@@V?$allocator@D@2@@std@@QEAAAEAV01@$$QEAV01@@Z
	??4?$basic_string@DU?$char_traits@D@std@@V?$allocator@D@2@@std@@QEAAAEAV01@AEBV01@@Z
	??4?$basic_string@DU?$char_traits@D@std@@V?$allocator@D@2@@std@@QEAAAEAV01@QEBD@Z
	??4?$function@$$A6A?AV?$shared_ptr@U?$Path_@V?$allocator@X@std@@@nav_msgs@@@boost@@XZ@boost@@QEAAAEAV01@AEBV01@@Z
	??4?$function@$$A6A?AV?$shared_ptr@U?$PointStamped_@V?$allocator@X@std@@@geometry_msgs@@@boost@@XZ@boost@@QEAAAEAV01@AEBV01@@Z
	??4?$function@$$A6AXAEBVSingleSubscriberPublisher@ros@@@Z@boost@@QEAAAEAV01@AEBV01@@Z
	??4?$refcount_ptr@Uerror_info_container@exception_detail@boost@@@exception_detail@boost@@QEAAAEAV012@AEBV012@@Z
	??4?$shared_ptr@$$CBU?$Path_@V?$allocator@X@std@@@nav_msgs@@@boost@@QEAAAEAV01@AEBV01@@Z
	??4?$shared_ptr@$$CBU?$PointStamped_@V?$allocator@X@std@@@geometry_msgs@@@boost@@QEAAAEAV01@AEBV01@@Z
	??4?$shared_ptr@U?$Path_@V?$allocator@X@std@@@nav_msgs@@@boost@@QEAAAEAV01@$$QEAV01@@Z
	??4?$shared_ptr@U?$Path_@V?$allocator@X@std@@@nav_msgs@@@boost@@QEAAAEAV01@AEBV01@@Z
	??4?$shared_ptr@U?$PointStamped_@V?$allocator@X@std@@@geometry_msgs@@@boost@@QEAAAEAV01@$$QEAV01@@Z
	??4?$shared_ptr@U?$PointStamped_@V?$allocator@X@std@@@geometry_msgs@@@boost@@QEAAAEAV01@AEBV01@@Z
	??4?$shared_ptr@V?$map@V?$basic_string@DU?$char_traits@D@std@@V?$allocator@D@2@@std@@V12@U?$less@V?$basic_string@DU?$char_traits@D@std@@V?$allocator@D@2@@std@@@2@V?$allocator@U?$pair@$$CBV?$basic_string@DU?$char_traits@D@std@@V?$allocator@D@2@@std@@V12@@std@@@2@@std@@@boost@@QEAAAEAV01@AEBV01@@Z
	??4?$vector@U?$PoseStamped_@V?$allocator@X@std@@@geometry_msgs@@V?$allocator@U?$PoseStamped_@V?$allocator@X@std@@@geometry_msgs@@@std@@@std@@QEAAAEAV01@AEBV01@@Z
	??7?$shared_ptr@U?$Path_@V?$allocator@X@std@@@nav_msgs@@@boost@@QEBA_NXZ
	??7?$shared_ptr@U?$PointStamped_@V?$allocator@X@std@@@geometry_msgs@@@boost@@QEBA_NXZ
	??7?$shared_ptr@VImpl@Publisher@ros@@@boost@@QEBA_NXZ
	??8?$_Tree_const_iterator@V?$_Tree_val@U?$_Tree_simple_types@U?$pair@$$CBV?$basic_string@DU?$char_traits@D@std@@V?$allocator@D@2@@std@@PEAVAbstractMetaObjectBase@impl@class_loader@@@std@@@std@@@std@@@std@@QEBA_NAEBV01@@Z
	??8?$_Vector_const_iterator@V?$_Vector_val@U?$_Simple_types@U?$ColorRGBA_@V?$allocator@X@std@@@std_msgs@@@std@@@std@@@std@@QEBA_NAEBV01@@Z
	??8?$_Vector_const_iterator@V?$_Vector_val@U?$_Simple_types@U?$Marker_@V?$allocator@X@std@@@visualization_msgs@@@std@@@std@@@std@@QEBA_NAEBV01@@Z
	??8?$_Vector_const_iterator@V?$_Vector_val@U?$_Simple_types@U?$Point_@V?$allocator@X@std@@@geometry_msgs@@@std@@@std@@@std@@QEBA_NAEBV01@@Z
	??8?$_Vector_const_iterator@V?$_Vector_val@U?$_Simple_types@U?$PoseStamped_@V?$allocator@X@std@@@geometry_msgs@@@std@@@std@@@std@@QEBA_NAEBV01@@Z
	??8type_info@@QEBA_NAEBV0@@Z
	??9?$_Tree_const_iterator@V?$_Tree_val@U?$_Tree_simple_types@U?$pair@$$CBV?$basic_string@DU?$char_traits@D@std@@V?$allocator@D@2@@std@@PEAVAbstractMetaObjectBase@impl@class_loader@@@std@@@std@@@std@@@std@@QEBA_NAEBV01@@Z
	??9?$_Vector_const_iterator@V?$_Vector_val@U?$_Simple_types@U?$ColorRGBA_@V?$allocator@X@std@@@std_msgs@@@std@@@std@@@std@@QEBA_NAEBV01@@Z
	??9?$_Vector_const_iterator@V?$_Vector_val@U?$_Simple_types@U?$Marker_@V?$allocator@X@std@@@visualization_msgs@@@std@@@std@@@std@@QEBA_NAEBV01@@Z
	??9?$_Vector_const_iterator@V?$_Vector_val@U?$_Simple_types@U?$Point_@V?$allocator@X@std@@@geometry_msgs@@@std@@@std@@@std@@QEBA_NAEBV01@@Z
	??9?$_Vector_const_iterator@V?$_Vector_val@U?$_Simple_types@U?$PoseStamped_@V?$allocator@X@std@@@geometry_msgs@@@std@@@std@@@std@@QEBA_NAEBV01@@Z
	??A?$map@V?$basic_string@DU?$char_traits@D@std@@V?$allocator@D@2@@std@@PEAVAbstractMetaObjectBase@impl@class_loader@@U?$less@V?$basic_string@DU?$char_traits@D@std@@V?$allocator@D@2@@std@@@2@V?$allocator@U?$pair@$$CBV?$basic_string@DU?$char_traits@D@std@@V?$allocator@D@2@@std@@PEAVAbstractMetaObjectBase@impl@class_loader@@@std@@@2@@std@@QEAAAEAPEAVAbstractMetaObjectBase@impl@class_loader@@AEBV?$basic_string@DU?$char_traits@D@std@@V?$allocator@D@2@@1@@Z
	??A?$rrlist1@AEBV?$shared_ptr@$$CBU?$Path_@V?$allocator@X@std@@@nav_msgs@@@boost@@@_bi@boost@@QEBAAEBV?$shared_ptr@$$CBU?$Path_@V?$allocator@X@std@@@nav_msgs@@@2@P6A?AU?$arg@$00@2@XZ@Z
	??A?$rrlist1@AEBV?$shared_ptr@$$CBU?$PointStamped_@V?$allocator@X@std@@@geometry_msgs@@@boost@@@_bi@boost@@QEBAAEBV?$shared_ptr@$$CBU?$PointStamped_@V?$allocator@X@std@@@geometry_msgs@@@2@P6A?AU?$arg@$00@2@XZ@Z
	??A?$vector@U?$PoseStamped_@V?$allocator@X@std@@@geometry_msgs@@V?$allocator@U?$PoseStamped_@V?$allocator@X@std@@@geometry_msgs@@@std@@@std@@QEAAAEAU?$PoseStamped_@V?$allocator@X@std@@@geometry_msgs@@_K@Z
	??A?$vector@U?$PoseStamped_@V?$allocator@X@std@@@geometry_msgs@@V?$allocator@U?$PoseStamped_@V?$allocator@X@std@@@geometry_msgs@@@std@@@std@@QEBAAEBU?$PoseStamped_@V?$allocator@X@std@@@geometry_msgs@@_K@Z
	??B?$shared_ptr@U?$Path_@V?$allocator@X@std@@@nav_msgs@@@boost@@QEBA_NXZ
	??B?$shared_ptr@U?$PointStamped_@V?$allocator@X@std@@@geometry_msgs@@@boost@@QEBA_NXZ
	??C?$_Vector_iterator@V?$_Vector_val@U?$_Simple_types@U?$PoseStamped_@V?$allocator@X@std@@@geometry_msgs@@@std@@@std@@@std@@QEBAPEAU?$PoseStamped_@V?$allocator@X@std@@@geometry_msgs@@XZ
	??C?$shared_ptr@$$CBU?$Path_@V?$allocator@X@std@@@nav_msgs@@@boost@@QEBAPEBU?$Path_@V?$allocator@X@std@@@nav_msgs@@XZ
	??C?$shared_ptr@$$CBU?$PointStamped_@V?$allocator@X@std@@@geometry_msgs@@@boost@@QEBAPEBU?$PointStamped_@V?$allocator@X@std@@@geometry_msgs@@XZ
	??C?$shared_ptr@VImpl@Publisher@ros@@@boost@@QEBAPEAVImpl@Publisher@ros@@XZ
	??D?$_Vector_const_iterator@V?$_Vector_val@U?$_Simple_types@U?$ColorRGBA_@V?$allocator@X@std@@@std_msgs@@@std@@@std@@@std@@QEBAAEBU?$ColorRGBA_@V?$allocator@X@std@@@std_msgs@@XZ
	??D?$_Vector_const_iterator@V?$_Vector_val@U?$_Simple_types@U?$Marker_@V?$allocator@X@std@@@visualization_msgs@@@std@@@std@@@std@@QEBAAEBU?$Marker_@V?$allocator@X@std@@@visualization_msgs@@XZ
	??D?$_Vector_const_iterator@V?$_Vector_val@U?$_Simple_types@U?$Point_@V?$allocator@X@std@@@geometry_msgs@@@std@@@std@@@std@@QEBAAEBU?$Point_@V?$allocator@X@std@@@geometry_msgs@@XZ
	??D?$_Vector_const_iterator@V?$_Vector_val@U?$_Simple_types@U?$PoseStamped_@V?$allocator@X@std@@@geometry_msgs@@@std@@@std@@@std@@QEBAAEBU?$PoseStamped_@V?$allocator@X@std@@@geometry_msgs@@XZ
	??D?$_Vector_iterator@V?$_Vector_val@U?$_Simple_types@U?$PoseStamped_@V?$allocator@X@std@@@geometry_msgs@@@std@@@std@@@std@@QEBAAEAU?$PoseStamped_@V?$allocator@X@std@@@geometry_msgs@@XZ
	??D?$shared_ptr@$$CBU?$Path_@V?$allocator@X@std@@@nav_msgs@@@boost@@QEBAAEBU?$Path_@V?$allocator@X@std@@@nav_msgs@@XZ
	??D?$shared_ptr@$$CBU?$PointStamped_@V?$allocator@X@std@@@geometry_msgs@@@boost@@QEBAAEBU?$PointStamped_@V?$allocator@X@std@@@geometry_msgs@@XZ
	??D?$shared_ptr@U?$Path_@V?$allocator@X@std@@@nav_msgs@@@boost@@QEBAAEAU?$Path_@V?$allocator@X@std@@@nav_msgs@@XZ
	??D?$shared_ptr@U?$PointStamped_@V?$allocator@X@std@@@geometry_msgs@@@boost@@QEBAAEAU?$PointStamped_@V?$allocator@X@std@@@geometry_msgs@@XZ
	??E?$_Vector_const_iterator@V?$_Vector_val@U?$_Simple_types@U?$ColorRGBA_@V?$allocator@X@std@@@std_msgs@@@std@@@std@@@std@@QEAAAEAV01@XZ
	??E?$_Vector_const_iterator@V?$_Vector_val@U?$_Simple_types@U?$Marker_@V?$allocator@X@std@@@visualization_msgs@@@std@@@std@@@std@@QEAAAEAV01@XZ
	??E?$_Vector_const_iterator@V?$_Vector_val@U?$_Simple_types@U?$Point_@V?$allocator@X@std@@@geometry_msgs@@@std@@@std@@@std@@QEAAAEAV01@XZ
	??E?$_Vector_const_iterator@V?$_Vector_val@U?$_Simple_types@U?$PoseStamped_@V?$allocator@X@std@@@geometry_msgs@@@std@@@std@@@std@@QEAAAEAV01@XZ
	??E?$_Vector_iterator@V?$_Vector_val@U?$_Simple_types@U?$PoseStamped_@V?$allocator@X@std@@@geometry_msgs@@@std@@@std@@@std@@QEAAAEAV01@XZ
	??G?$_Vector_iterator@V?$_Vector_val@U?$_Simple_types@U?$PoseStamped_@V?$allocator@X@std@@@geometry_msgs@@@std@@@std@@@std@@QEBA?AV01@_J@Z
	??R<lambda_65e615be2a453ca0576c979606f46740>@@QEBA@QEADQEBD_K12@Z
	??R<lambda_66f57f934f28d61049862f64df852ff0>@@QEBA@QEAD_KQEBD@Z
	??R?$DefaultMessageCreator@U?$Path_@V?$allocator@X@std@@@nav_msgs@@@ros@@QEAA?AV?$shared_ptr@U?$Path_@V?$allocator@X@std@@@nav_msgs@@@boost@@XZ
	??R?$DefaultMessageCreator@U?$PointStamped_@V?$allocator@X@std@@@geometry_msgs@@@ros@@QEAA?AV?$shared_ptr@U?$PointStamped_@V?$allocator@X@std@@@geometry_msgs@@@boost@@XZ
	??R?$bind_t@VSerializedMessage@ros@@P6A?AV12@AEBU?$MarkerArray_@V?$allocator@X@std@@@visualization_msgs@@@ZV?$list1@V?$reference_wrapper@$$CBU?$MarkerArray_@V?$allocator@X@std@@@visualization_msgs@@@boost@@@_bi@boost@@@_bi@boost@@QEAA?AVSerializedMessage@ros@@XZ
	??R?$bind_t@VSerializedMessage@ros@@P6A?AV12@AEBU?$Path_@V?$allocator@X@std@@@nav_msgs@@@ZV?$list1@V?$reference_wrapper@$$CBU?$Path_@V?$allocator@X@std@@@nav_msgs@@@boost@@@_bi@boost@@@_bi@boost@@QEAA?AVSerializedMessage@ros@@XZ
	??R?$bind_t@VSerializedMessage@ros@@P6A?AV12@AEBU?$PoseStamped_@V?$allocator@X@std@@@geometry_msgs@@@ZV?$list1@V?$reference_wrapper@$$CBU?$PoseStamped_@V?$allocator@X@std@@@geometry_msgs@@@boost@@@_bi@boost@@@_bi@boost@@QEAA?AVSerializedMessage@ros@@XZ
	??R?$checked_array_deleter@E@boost@@QEBAXPEAE@Z
	??R?$function0@V?$shared_ptr@U?$Path_@V?$allocator@X@std@@@nav_msgs@@@boost@@@boost@@QEBA?AV?$shared_ptr@U?$Path_@V?$allocator@X@std@@@nav_msgs@@@1@XZ
	??R?$function0@V?$shared_ptr@U?$PointStamped_@V?$allocator@X@std@@@geometry_msgs@@@boost@@@boost@@QEBA?AV?$shared_ptr@U?$PointStamped_@V?$allocator@X@std@@@geometry_msgs@@@1@XZ
	??R?$function1@XAEBV?$shared_ptr@$$CBU?$Path_@V?$allocator@X@std@@@nav_msgs@@@boost@@@boost@@QEBAXAEBV?$shared_ptr@$$CBU?$Path_@V?$allocator@X@std@@@nav_msgs@@@1@@Z
	??R?$function1@XAEBV?$shared_ptr@$$CBU?$PointStamped_@V?$allocator@X@std@@@geometry_msgs@@@boost@@@boost@@QEBAXAEBV?$shared_ptr@$$CBU?$PointStamped_@V?$allocator@X@std@@@geometry_msgs@@@1@@Z
	??R?$function1@XV?$shared_ptr@$$CBU?$Path_@V?$allocator@X@std@@@nav_msgs@@@boost@@@boost@@QEBAXV?$shared_ptr@$$CBU?$Path_@V?$allocator@X@std@@@nav_msgs@@@1@@Z
	??R?$function1@XV?$shared_ptr@$$CBU?$PointStamped_@V?$allocator@X@std@@@geometry_msgs@@@boost@@@boost@@QEBAXV?$shared_ptr@$$CBU?$PointStamped_@V?$allocator@X@std@@@geometry_msgs@@@1@@Z
	??R?$less@V?$basic_string@DU?$char_traits@D@std@@V?$allocator@D@2@@std@@@std@@QEBA_NAEBV?$basic_string@DU?$char_traits@D@std@@V?$allocator@D@2@@1@0@Z
	??R?$mf1@XVWaypointGlobalPlanner@waypoint_global_planner@@AEBV?$shared_ptr@$$CBU?$Path_@V?$allocator@X@std@@@nav_msgs@@@boost@@@_mfi@boost@@QEBAXPEAVWaypointGlobalPlanner@waypoint_global_planner@@AEBV?$shared_ptr@$$CBU?$Path_@V?$allocator@X@std@@@nav_msgs@@@2@@Z
	??R?$mf1@XVWaypointGlobalPlanner@waypoint_global_planner@@AEBV?$shared_ptr@$$CBU?$PointStamped_@V?$allocator@X@std@@@geometry_msgs@@@boost@@@_mfi@boost@@QEBAXPEAVWaypointGlobalPlanner@waypoint_global_planner@@AEBV?$shared_ptr@$$CBU?$PointStamped_@V?$allocator@X@std@@@geometry_msgs@@@2@@Z
	??R?$sp_ms_deleter@U?$Path_@V?$allocator@X@std@@@nav_msgs@@@detail@boost@@QEAAXPEAU?$Path_@V?$allocator@X@std@@@nav_msgs@@@Z
	??R?$sp_ms_deleter@U?$PointStamped_@V?$allocator@X@std@@@geometry_msgs@@@detail@boost@@QEAAXPEAU?$PointStamped_@V?$allocator@X@std@@@geometry_msgs@@@Z
	??R?$sp_ms_deleter@V?$SubscriptionCallbackHelperT@AEBV?$shared_ptr@$$CBU?$Path_@V?$allocator@X@std@@@nav_msgs@@@boost@@X@ros@@@detail@boost@@QEAAXPEAV?$SubscriptionCallbackHelperT@AEBV?$shared_ptr@$$CBU?$Path_@V?$allocator@X@std@@@nav_msgs@@@boost@@X@ros@@@Z
	??R?$sp_ms_deleter@V?$SubscriptionCallbackHelperT@AEBV?$shared_ptr@$$CBU?$PointStamped_@V?$allocator@X@std@@@geometry_msgs@@@boost@@X@ros@@@detail@boost@@QEAAXPEAV?$SubscriptionCallbackHelperT@AEBV?$shared_ptr@$$CBU?$PointStamped_@V?$allocator@X@std@@@geometry_msgs@@@boost@@X@ros@@@Z
	??XQuaternion@tf@@QEAAAEAV01@AEBN@Z
	??Y?$_Vector_const_iterator@V?$_Vector_val@U?$_Simple_types@U?$PoseStamped_@V?$allocator@X@std@@@geometry_msgs@@@std@@@std@@@std@@QEAAAEAV01@_J@Z
	??Y?$basic_string@DU?$char_traits@D@std@@V?$allocator@D@2@@std@@QEAAAEAV01@AEBV01@@Z
	??Y?$basic_string@DU?$char_traits@D@std@@V?$allocator@D@2@@std@@QEAAAEAV01@QEBD@Z
	??Z?$_Vector_const_iterator@V?$_Vector_val@U?$_Simple_types@U?$PoseStamped_@V?$allocator@X@std@@@geometry_msgs@@@std@@@std@@@std@@QEAAAEAV01@_J@Z
	??Z?$_Vector_iterator@V?$_Vector_val@U?$_Simple_types@U?$PoseStamped_@V?$allocator@X@std@@@geometry_msgs@@@std@@@std@@@std@@QEAAAEAV01@_J@Z
	??_0Quaternion@tf@@QEAAAEAV01@AEBN@Z
	??_D?$clone_impl@U?$error_info_injector@Vbad_function_call@boost@@@exception_detail@boost@@@exception_detail@boost@@QEAAXXZ
	??_D?$clone_impl@U?$error_info_injector@Vthread_resource_error@boost@@@exception_detail@boost@@@exception_detail@boost@@QEAAXXZ
	??_D?$clone_impl@Ubad_alloc_@exception_detail@boost@@@exception_detail@boost@@QEAAXXZ
	??_D?$clone_impl@Ubad_exception_@exception_detail@boost@@@exception_detail@boost@@QEAAXXZ
	??_H@YAXPEAX_K1P6APEAX0@Z@Z
	?CreateEventA@winapi@boost@@YAPEAXPEAU_SECURITY_ATTRIBUTES@12@HHPEBD@Z
	?_Activate_SSO_buffer@?$_String_val@U?$_Simple_types@D@std@@@std@@QEAAXXZ
	?_Adjust_manually_vector_aligned@std@@YAXAEAPEAXAEA_K@Z
	?_Adopt@_Iterator_base0@std@@QEAAXPEBX@Z
	?_Alloc_proxy@_Container_base0@std@@QEAAXAEBU_Fake_allocator@2@@Z
	?_Alloc_sentinel_and_proxy@?$_Tree@V?$_Tmap_traits@V?$basic_string@DU?$char_traits@D@std@@V?$allocator@D@2@@std@@V12@U?$less@V?$basic_string@DU?$char_traits@D@std@@V?$allocator@D@2@@std@@@2@V?$allocator@U?$pair@$$CBV?$basic_string@DU?$char_traits@D@std@@V?$allocator@D@2@@std@@V12@@std@@@2@$0A@@std@@@std@@IEAAXXZ
	?_Allocate@?$_Alloc_construct_ptr@V?$allocator@U?$_Tree_node@U?$pair@$$CBV?$basic_string@DU?$char_traits@D@std@@V?$allocator@D@2@@std@@PEAVAbstractMetaObjectBase@impl@class_loader@@@std@@PEAX@std@@@std@@@std@@QEAAXXZ
	?_Allocate@_Default_allocate_traits@std@@SAPEAX_K@Z
	?_Buy_nonzero@?$vector@U?$ColorRGBA_@V?$allocator@X@std@@@std_msgs@@V?$allocator@U?$ColorRGBA_@V?$allocator@X@std@@@std_msgs@@@std@@@std@@AEAAX_K@Z
	?_Buy_nonzero@?$vector@U?$Point_@V?$allocator@X@std@@@geometry_msgs@@V?$allocator@U?$Point_@V?$allocator@X@std@@@geometry_msgs@@@std@@@std@@AEAAX_K@Z
	?_Buy_raw@?$vector@U?$ColorRGBA_@V?$allocator@X@std@@@std_msgs@@V?$allocator@U?$ColorRGBA_@V?$allocator@X@std@@@std_msgs@@@std@@@std@@AEAAX_K@Z
	?_Buy_raw@?$vector@U?$Point_@V?$allocator@X@std@@@geometry_msgs@@V?$allocator@U?$Point_@V?$allocator@X@std@@@geometry_msgs@@@std@@@std@@AEAAX_K@Z
	?_Buy_raw@?$vector@U?$PoseStamped_@V?$allocator@X@std@@@geometry_msgs@@V?$allocator@U?$PoseStamped_@V?$allocator@X@std@@@geometry_msgs@@@std@@@std@@AEAAX_K@Z
	?_Calculate_growth@?$basic_string@DU?$char_traits@D@std@@V?$allocator@D@2@@std@@AEBA_K_K@Z
	?_Calculate_growth@?$basic_string@DU?$char_traits@D@std@@V?$allocator@D@2@@std@@CA_K_K00@Z
	?_Calculate_growth@?$vector@U?$Marker_@V?$allocator@X@std@@@visualization_msgs@@V?$allocator@U?$Marker_@V?$allocator@X@std@@@visualization_msgs@@@std@@@std@@AEBA_K_K@Z
	?_Calculate_growth@?$vector@U?$PoseStamped_@V?$allocator@X@std@@@geometry_msgs@@V?$allocator@U?$PoseStamped_@V?$allocator@X@std@@@geometry_msgs@@@std@@@std@@AEBA_K_K@Z
	?_Change_array@?$vector@U?$Marker_@V?$allocator@X@std@@@visualization_msgs@@V?$allocator@U?$Marker_@V?$allocator@X@std@@@visualization_msgs@@@std@@@std@@AEAAXQEAU?$Marker_@V?$allocator@X@std@@@visualization_msgs@@_K1@Z
	?_Change_array@?$vector@U?$PoseStamped_@V?$allocator@X@std@@@geometry_msgs@@V?$allocator@U?$PoseStamped_@V?$allocator@X@std@@@geometry_msgs@@@std@@@std@@AEAAXQEAU?$PoseStamped_@V?$allocator@X@std@@@geometry_msgs@@_K1@Z
	?_Check_grow_by_1@?$_Tree@V?$_Tmap_traits@V?$basic_string@DU?$char_traits@D@std@@V?$allocator@D@2@@std@@PEAVAbstractMetaObjectBase@impl@class_loader@@U?$less@V?$basic_string@DU?$char_traits@D@std@@V?$allocator@D@2@@std@@@2@V?$allocator@U?$pair@$$CBV?$basic_string@DU?$char_traits@D@std@@V?$allocator@D@2@@std@@PEAVAbstractMetaObjectBase@impl@class_loader@@@std@@@2@$0A@@std@@@std@@IEAAXXZ
	?_Clear_and_reserve_geometric@?$vector@U?$PoseStamped_@V?$allocator@X@std@@@geometry_msgs@@V?$allocator@U?$PoseStamped_@V?$allocator@X@std@@@geometry_msgs@@@std@@@std@@AEAAX_K@Z
	?_Compat@?$_Vector_const_iterator@V?$_Vector_val@U?$_Simple_types@U?$ColorRGBA_@V?$allocator@X@std@@@std_msgs@@@std@@@std@@@std@@QEBAXAEBV12@@Z
	?_Compat@?$_Vector_const_iterator@V?$_Vector_val@U?$_Simple_types@U?$Marker_@V?$allocator@X@std@@@visualization_msgs@@@std@@@std@@@std@@QEBAXAEBV12@@Z
	?_Compat@?$_Vector_const_iterator@V?$_Vector_val@U?$_Simple_types@U?$Point_@V?$allocator@X@std@@@geometry_msgs@@@std@@@std@@@std@@QEBAXAEBV12@@Z
	?_Compat@?$_Vector_const_iterator@V?$_Vector_val@U?$_Simple_types@U?$PoseStamped_@V?$allocator@X@std@@@geometry_msgs@@@std@@@std@@@std@@QEBAXAEBV12@@Z
	?_Deallocate_for_capacity@?$basic_string@DU?$char_traits@D@std@@V?$allocator@D@2@@std@@CAXAEAV?$allocator@D@2@QEAD_K@Z
	?_Eos@?$basic_string@DU?$char_traits@D@std@@V?$allocator@D@2@@std@@AEAAX_K@Z
	?_Get_first@?$_Compressed_pair@U?$less@V?$basic_string@DU?$char_traits@D@std@@V?$allocator@D@2@@std@@@std@@V?$_Compressed_pair@V?$allocator@U?$_Tree_node@U?$pair@$$CBV?$basic_string@DU?$char_traits@D@std@@V?$allocator@D@2@@std@@PEAVAbstractMetaObjectBase@impl@class_loader@@@std@@PEAX@std@@@std@@V?$_Tree_val@U?$_Tree_simple_types@U?$pair@$$CBV?$basic_string@DU?$char_traits@D@std@@V?$allocator@D@2@@std@@PEAVAbstractMetaObjectBase@impl@class_loader@@@std@@@std@@@2@$00@2@$00@std@@QEBAAEBU?$less@V?$basic_string@DU?$char_traits@D@std@@V?$allocator@D@2@@std@@@2@XZ
	?_Get_first@?$_Compressed_pair@V?$allocator@D@std@@V?$_String_val@U?$_Simple_types@D@std@@@2@$00@std@@QEAAAEAV?$allocator@D@2@XZ
	?_Get_first@?$_Compressed_pair@V?$allocator@D@std@@V?$_String_val@U?$_Simple_types@D@std@@@2@$00@std@@QEBAAEBV?$allocator@D@2@XZ
	?_Get_first@?$_Compressed_pair@V?$allocator@U?$ColorRGBA_@V?$allocator@X@std@@@std_msgs@@@std@@V?$_Vector_val@U?$_Simple_types@U?$ColorRGBA_@V?$allocator@X@std@@@std_msgs@@@std@@@2@$00@std@@QEAAAEAV?$allocator@U?$ColorRGBA_@V?$allocator@X@std@@@std_msgs@@@2@XZ
	?_Get_first@?$_Compressed_pair@V?$allocator@U?$ColorRGBA_@V?$allocator@X@std@@@std_msgs@@@std@@V?$_Vector_val@U?$_Simple_types@U?$ColorRGBA_@V?$allocator@X@std@@@std_msgs@@@std@@@2@$00@std@@QEBAAEBV?$allocator@U?$ColorRGBA_@V?$allocator@X@std@@@std_msgs@@@2@XZ
	?_Get_first@?$_Compressed_pair@V?$allocator@U?$Marker_@V?$allocator@X@std@@@visualization_msgs@@@std@@V?$_Vector_val@U?$_Simple_types@U?$Marker_@V?$allocator@X@std@@@visualization_msgs@@@std@@@2@$00@std@@QEAAAEAV?$allocator@U?$Marker_@V?$allocator@X@std@@@visualization_msgs@@@2@XZ
	?_Get_first@?$_Compressed_pair@V?$allocator@U?$Marker_@V?$allocator@X@std@@@visualization_msgs@@@std@@V?$_Vector_val@U?$_Simple_types@U?$Marker_@V?$allocator@X@std@@@visualization_msgs@@@std@@@2@$00@std@@QEBAAEBV?$allocator@U?$Marker_@V?$allocator@X@std@@@visualization_msgs@@@2@XZ
	?_Get_first@?$_Compressed_pair@V?$allocator@U?$Point_@V?$allocator@X@std@@@geometry_msgs@@@std@@V?$_Vector_val@U?$_Simple_types@U?$Point_@V?$allocator@X@std@@@geometry_msgs@@@std@@@2@$00@std@@QEAAAEAV?$allocator@U?$Point_@V?$allocator@X@std@@@geometry_msgs@@@2@XZ
	?_Get_first@?$_Compressed_pair@V?$allocator@U?$Point_@V?$allocator@X@std@@@geometry_msgs@@@std@@V?$_Vector_val@U?$_Simple_types@U?$Point_@V?$allocator@X@std@@@geometry_msgs@@@std@@@2@$00@std@@QEBAAEBV?$allocator@U?$Point_@V?$allocator@X@std@@@geometry_msgs@@@2@XZ
	?_Get_first@?$_Compressed_pair@V?$allocator@U?$PoseStamped_@V?$allocator@X@std@@@geometry_msgs@@@std@@V?$_Vector_val@U?$_Simple_types@U?$PoseStamped_@V?$allocator@X@std@@@geometry_msgs@@@std@@@2@$00@std@@QEAAAEAV?$allocator@U?$PoseStamped_@V?$allocator@X@std@@@geometry_msgs@@@2@XZ
	?_Get_first@?$_Compressed_pair@V?$allocator@U?$PoseStamped_@V?$allocator@X@std@@@geometry_msgs@@@std@@V?$_Vector_val@U?$_Simple_types@U?$PoseStamped_@V?$allocator@X@std@@@geometry_msgs@@@std@@@2@$00@std@@QEBAAEBV?$allocator@U?$PoseStamped_@V?$allocator@X@std@@@geometry_msgs@@@2@XZ
	?_Get_first@?$_Compressed_pair@V?$allocator@U?$_Tree_node@U?$pair@$$CBV?$basic_string@DU?$char_traits@D@std@@V?$allocator@D@2@@std@@PEAVAbstractMetaObjectBase@impl@class_loader@@@std@@PEAX@std@@@std@@V?$_Tree_val@U?$_Tree_simple_types@U?$pair@$$CBV?$basic_string@DU?$char_traits@D@std@@V?$allocator@D@2@@std@@PEAVAbstractMetaObjectBase@impl@class_loader@@@std@@@std@@@2@$00@std@@QEAAAEAV?$allocator@U?$_Tree_node@U?$pair@$$CBV?$basic_string@DU?$char_traits@D@std@@V?$allocator@D@2@@std@@PEAVAbstractMetaObjectBase@impl@class_loader@@@std@@PEAX@std@@@2@XZ
	?_Get_first@?$_Compressed_pair@V?$allocator@U?$_Tree_node@U?$pair@$$CBV?$basic_string@DU?$char_traits@D@std@@V?$allocator@D@2@@std@@PEAVAbstractMetaObjectBase@impl@class_loader@@@std@@PEAX@std@@@std@@V?$_Tree_val@U?$_Tree_simple_types@U?$pair@$$CBV?$basic_string@DU?$char_traits@D@std@@V?$allocator@D@2@@std@@PEAVAbstractMetaObjectBase@impl@class_loader@@@std@@@std@@@2@$00@std@@QEBAAEBV?$allocator@U?$_Tree_node@U?$pair@$$CBV?$basic_string@DU?$char_traits@D@std@@V?$allocator@D@2@@std@@PEAVAbstractMetaObjectBase@impl@class_loader@@@std@@PEAX@std@@@2@XZ
	?_Get_first@?$_Compressed_pair@V?$allocator@U?$_Tree_node@U?$pair@$$CBV?$basic_string@DU?$char_traits@D@std@@V?$allocator@D@2@@std@@V12@@std@@PEAX@std@@@std@@V?$_Tree_val@U?$_Tree_simple_types@U?$pair@$$CBV?$basic_string@DU?$char_traits@D@std@@V?$allocator@D@2@@std@@V12@@std@@@std@@@2@$00@std@@QEAAAEAV?$allocator@U?$_Tree_node@U?$pair@$$CBV?$basic_string@DU?$char_traits@D@std@@V?$allocator@D@2@@std@@V12@@std@@PEAX@std@@@2@XZ
	?_Get_scary@?$_Tree@V?$_Tmap_traits@V?$basic_string@DU?$char_traits@D@std@@V?$allocator@D@2@@std@@PEAVAbstractMetaObjectBase@impl@class_loader@@U?$less@V?$basic_string@DU?$char_traits@D@std@@V?$allocator@D@2@@std@@@2@V?$allocator@U?$pair@$$CBV?$basic_string@DU?$char_traits@D@std@@V?$allocator@D@2@@std@@PEAVAbstractMetaObjectBase@impl@class_loader@@@std@@@2@$0A@@std@@@std@@IEAAPEAV?$_Tree_val@U?$_Tree_simple_types@U?$pair@$$CBV?$basic_string@DU?$char_traits@D@std@@V?$allocator@D@2@@std@@PEAVAbstractMetaObjectBase@impl@class_loader@@@std@@@std@@@2@XZ
	?_Get_scary@?$_Tree@V?$_Tmap_traits@V?$basic_string@DU?$char_traits@D@std@@V?$allocator@D@2@@std@@PEAVAbstractMetaObjectBase@impl@class_loader@@U?$less@V?$basic_string@DU?$char_traits@D@std@@V?$allocator@D@2@@std@@@2@V?$allocator@U?$pair@$$CBV?$basic_string@DU?$char_traits@D@std@@V?$allocator@D@2@@std@@PEAVAbstractMetaObjectBase@impl@class_loader@@@std@@@2@$0A@@std@@@std@@IEBAPEBV?$_Tree_val@U?$_Tree_simple_types@U?$pair@$$CBV?$basic_string@DU?$char_traits@D@std@@V?$allocator@D@2@@std@@PEAVAbstractMetaObjectBase@impl@class_loader@@@std@@@std@@@2@XZ
	?_Get_scary@?$_Tree@V?$_Tmap_traits@V?$basic_string@DU?$char_traits@D@std@@V?$allocator@D@2@@std@@V12@U?$less@V?$basic_string@DU?$char_traits@D@std@@V?$allocator@D@2@@std@@@2@V?$allocator@U?$pair@$$CBV?$basic_string@DU?$char_traits@D@std@@V?$allocator@D@2@@std@@V12@@std@@@2@$0A@@std@@@std@@IEAAPEAV?$_Tree_val@U?$_Tree_simple_types@U?$pair@$$CBV?$basic_string@DU?$char_traits@D@std@@V?$allocator@D@2@@std@@V12@@std@@@std@@@2@XZ
	?_Get_value@?$_Alloc_temporary2@V?$allocator@U?$PoseStamped_@V?$allocator@X@std@@@geometry_msgs@@@std@@@std@@QEAAAEAU?$PoseStamped_@V?$allocator@X@std@@@geometry_msgs@@XZ
	?_Getal@?$_Tree@V?$_Tmap_traits@V?$basic_string@DU?$char_traits@D@std@@V?$allocator@D@2@@std@@PEAVAbstractMetaObjectBase@impl@class_loader@@U?$less@V?$basic_string@DU?$char_traits@D@std@@V?$allocator@D@2@@std@@@2@V?$allocator@U?$pair@$$CBV?$basic_string@DU?$char_traits@D@std@@V?$allocator@D@2@@std@@PEAVAbstractMetaObjectBase@impl@class_loader@@@std@@@2@$0A@@std@@@std@@IEAAAEAV?$allocator@U?$_Tree_node@U?$pair@$$CBV?$basic_string@DU?$char_traits@D@std@@V?$allocator@D@2@@std@@PEAVAbstractMetaObjectBase@impl@class_loader@@@std@@PEAX@std@@@2@XZ
	?_Getal@?$_Tree@V?$_Tmap_traits@V?$basic_string@DU?$char_traits@D@std@@V?$allocator@D@2@@std@@PEAVAbstractMetaObjectBase@impl@class_loader@@U?$less@V?$basic_string@DU?$char_traits@D@std@@V?$allocator@D@2@@std@@@2@V?$allocator@U?$pair@$$CBV?$basic_string@DU?$char_traits@D@std@@V?$allocator@D@2@@std@@PEAVAbstractMetaObjectBase@impl@class_loader@@@std@@@2@$0A@@std@@@std@@IEBAAEBV?$allocator@U?$_Tree_node@U?$pair@$$CBV?$basic_string@DU?$char_traits@D@std@@V?$allocator@D@2@@std@@PEAVAbstractMetaObjectBase@impl@class_loader@@@std@@PEAX@std@@@2@XZ
	?_Getal@?$_Tree@V?$_Tmap_traits@V?$basic_string@DU?$char_traits@D@std@@V?$allocator@D@2@@std@@V12@U?$less@V?$basic_string@DU?$char_traits@D@std@@V?$allocator@D@2@@std@@@2@V?$allocator@U?$pair@$$CBV?$basic_string@DU?$char_traits@D@std@@V?$allocator@D@2@@std@@V12@@std@@@2@$0A@@std@@@std@@IEAAAEAV?$allocator@U?$_Tree_node@U?$pair@$$CBV?$basic_string@DU?$char_traits@D@std@@V?$allocator@D@2@@std@@V12@@std@@PEAX@std@@@2@XZ
	?_Getal@?$basic_string@DU?$char_traits@D@std@@V?$allocator@D@2@@std@@AEAAAEAV?$allocator@D@2@XZ
	?_Getal@?$basic_string@DU?$char_traits@D@std@@V?$allocator@D@2@@std@@AEBAAEBV?$allocator@D@2@XZ
	?_Getal@?$vector@U?$ColorRGBA_@V?$allocator@X@std@@@std_msgs@@V?$allocator@U?$ColorRGBA_@V?$allocator@X@std@@@std_msgs@@@std@@@std@@AEAAAEAV?$allocator@U?$ColorRGBA_@V?$allocator@X@std@@@std_msgs@@@2@XZ
	?_Getal@?$vector@U?$ColorRGBA_@V?$allocator@X@std@@@std_msgs@@V?$allocator@U?$ColorRGBA_@V?$allocator@X@std@@@std_msgs@@@std@@@std@@AEBAAEBV?$allocator@U?$ColorRGBA_@V?$allocator@X@std@@@std_msgs@@@2@XZ
	?_Getal@?$vector@U?$Marker_@V?$allocator@X@std@@@visualization_msgs@@V?$allocator@U?$Marker_@V?$allocator@X@std@@@visualization_msgs@@@std@@@std@@AEAAAEAV?$allocator@U?$Marker_@V?$allocator@X@std@@@visualization_msgs@@@2@XZ
	?_Getal@?$vector@U?$Marker_@V?$allocator@X@std@@@visualization_msgs@@V?$allocator@U?$Marker_@V?$allocator@X@std@@@visualization_msgs@@@std@@@std@@AEBAAEBV?$allocator@U?$Marker_@V?$allocator@X@std@@@visualization_msgs@@@2@XZ
	?_Getal@?$vector@U?$Point_@V?$allocator@X@std@@@geometry_msgs@@V?$allocator@U?$Point_@V?$allocator@X@std@@@geometry_msgs@@@std@@@std@@AEAAAEAV?$allocator@U?$Point_@V?$allocator@X@std@@@geometry_msgs@@@2@XZ
	?_Getal@?$vector@U?$Point_@V?$allocator@X@std@@@geometry_msgs@@V?$allocator@U?$Point_@V?$allocator@X@std@@@geometry_msgs@@@std@@@std@@AEBAAEBV?$allocator@U?$Point_@V?$allocator@X@std@@@geometry_msgs@@@2@XZ
	?_Getal@?$vector@U?$PoseStamped_@V?$allocator@X@std@@@geometry_msgs@@V?$allocator@U?$PoseStamped_@V?$allocator@X@std@@@geometry_msgs@@@std@@@std@@AEAAAEAV?$allocator@U?$PoseStamped_@V?$allocator@X@std@@@geometry_msgs@@@2@XZ
	?_Getal@?$vector@U?$PoseStamped_@V?$allocator@X@std@@@geometry_msgs@@V?$allocator@U?$PoseStamped_@V?$allocator@X@std@@@geometry_msgs@@@std@@@std@@AEBAAEBV?$allocator@U?$PoseStamped_@V?$allocator@X@std@@@geometry_msgs@@@2@XZ
	?_Getcomp@?$_Tree@V?$_Tmap_traits@V?$basic_string@DU?$char_traits@D@std@@V?$allocator@D@2@@std@@PEAVAbstractMetaObjectBase@impl@class_loader@@U?$less@V?$basic_string@DU?$char_traits@D@std@@V?$allocator@D@2@@std@@@2@V?$allocator@U?$pair@$$CBV?$basic_string@DU?$char_traits@D@std@@V?$allocator@D@2@@std@@PEAVAbstractMetaObjectBase@impl@class_loader@@@std@@@2@$0A@@std@@@std@@IEBAAEBU?$less@V?$basic_string@DU?$char_traits@D@std@@V?$allocator@D@2@@std@@@2@XZ
	?_Insert_node@?$_Tree_val@U?$_Tree_simple_types@U?$pair@$$CBV?$basic_string@DU?$char_traits@D@std@@V?$allocator@D@2@@std@@PEAVAbstractMetaObjectBase@impl@class_loader@@@std@@@std@@@std@@QEAAPEAU?$_Tree_node@U?$pair@$$CBV?$basic_string@DU?$char_traits@D@std@@V?$allocator@D@2@@std@@PEAVAbstractMetaObjectBase@impl@class_loader@@@std@@PEAX@2@U?$_Tree_id@PEAU?$_Tree_node@U?$pair@$$CBV?$basic_string@DU?$char_traits@D@std@@V?$allocator@D@2@@std@@PEAVAbstractMetaObjectBase@impl@class_loader@@@std@@PEAX@std@@@2@QEAU32@@Z
	?_Large_mode_engaged@?$_String_val@U?$_Simple_types@D@std@@@std@@QEBA_NXZ
	?_Lrotate@?$_Tree_val@U?$_Tree_simple_types@U?$pair@$$CBV?$basic_string@DU?$char_traits@D@std@@V?$allocator@D@2@@std@@PEAVAbstractMetaObjectBase@impl@class_loader@@@std@@@std@@@std@@QEAAXPEAU?$_Tree_node@U?$pair@$$CBV?$basic_string@DU?$char_traits@D@std@@V?$allocator@D@2@@std@@PEAVAbstractMetaObjectBase@impl@class_loader@@@std@@PEAX@2@@Z
	?_Make_iterator@?$vector@U?$PoseStamped_@V?$allocator@X@std@@@geometry_msgs@@V?$allocator@U?$PoseStamped_@V?$allocator@X@std@@@geometry_msgs@@@std@@@std@@AEAA?AV?$_Vector_iterator@V?$_Vector_val@U?$_Simple_types@U?$PoseStamped_@V?$allocator@X@std@@@geometry_msgs@@@std@@@std@@@2@QEAU?$PoseStamped_@V?$allocator@X@std@@@geometry_msgs@@@Z
	?_Make_iterator_offset@?$vector@U?$PoseStamped_@V?$allocator@X@std@@@geometry_msgs@@V?$allocator@U?$PoseStamped_@V?$allocator@X@std@@@geometry_msgs@@@std@@@std@@AEAA?AV?$_Vector_iterator@V?$_Vector_val@U?$_Simple_types@U?$PoseStamped_@V?$allocator@X@std@@@geometry_msgs@@@std@@@std@@@2@_K@Z
	?_Maklocwcs@std@@YAPEA_WPEB_W@Z
	?_Memcpy_val_from@?$basic_string@DU?$char_traits@D@std@@V?$allocator@D@2@@std@@AEAAXAEBV12@@Z
	?_Myptr@?$_String_val@U?$_Simple_types@D@std@@@std@@QEAAPEADXZ
	?_Myptr@?$_String_val@U?$_Simple_types@D@std@@@std@@QEBAPEBDXZ
	?_Negate@?$_Atomic_integral_facade@H@std@@SAHH@Z
	?_Orphan_all@_Container_base0@std@@QEAAXXZ
	?_Orphan_range@?$vector@U?$Marker_@V?$allocator@X@std@@@visualization_msgs@@V?$allocator@U?$Marker_@V?$allocator@X@std@@@visualization_msgs@@@std@@@std@@AEBAXPEAU?$Marker_@V?$allocator@X@std@@@visualization_msgs@@0@Z
	?_Orphan_range@?$vector@U?$PoseStamped_@V?$allocator@X@std@@@geometry_msgs@@V?$allocator@U?$PoseStamped_@V?$allocator@X@std@@@geometry_msgs@@@std@@@std@@AEBAXPEAU?$PoseStamped_@V?$allocator@X@std@@@geometry_msgs@@0@Z
	?_Release@?$_Alloc_construct_ptr@V?$allocator@U?$_Tree_node@U?$pair@$$CBV?$basic_string@DU?$char_traits@D@std@@V?$allocator@D@2@@std@@PEAVAbstractMetaObjectBase@impl@class_loader@@@std@@PEAX@std@@@std@@@std@@QEAAPEAU?$_Tree_node@U?$pair@$$CBV?$basic_string@DU?$char_traits@D@std@@V?$allocator@D@2@@std@@PEAVAbstractMetaObjectBase@impl@class_loader@@@std@@PEAX@2@XZ
	?_Release@?$_Uninitialized_backout_al@V?$allocator@U?$ColorRGBA_@V?$allocator@X@std@@@std_msgs@@@std@@@std@@QEAAPEAU?$ColorRGBA_@V?$allocator@X@std@@@std_msgs@@XZ
	?_Release@?$_Uninitialized_backout_al@V?$allocator@U?$Marker_@V?$allocator@X@std@@@visualization_msgs@@@std@@@std@@QEAAPEAU?$Marker_@V?$allocator@X@std@@@visualization_msgs@@XZ
	?_Release@?$_Uninitialized_backout_al@V?$allocator@U?$Point_@V?$allocator@X@std@@@geometry_msgs@@@std@@@std@@QEAAPEAU?$Point_@V?$allocator@X@std@@@geometry_msgs@@XZ
	?_Release@?$_Uninitialized_backout_al@V?$allocator@U?$PoseStamped_@V?$allocator@X@std@@@geometry_msgs@@@std@@@std@@QEAAPEAU?$PoseStamped_@V?$allocator@X@std@@@geometry_msgs@@XZ
	?_Release@_Fake_proxy_ptr_impl@std@@QEAAXXZ
	?_Rrotate@?$_Tree_val@U?$_Tree_simple_types@U?$pair@$$CBV?$basic_string@DU?$char_traits@D@std@@V?$allocator@D@2@@std@@PEAVAbstractMetaObjectBase@impl@class_loader@@@std@@@std@@@std@@QEAAXPEAU?$_Tree_node@U?$pair@$$CBV?$basic_string@DU?$char_traits@D@std@@V?$allocator@D@2@@std@@PEAVAbstractMetaObjectBase@impl@class_loader@@@std@@PEAX@2@@Z
	?_Swap_proxy_and_iterators@?$basic_string@DU?$char_traits@D@std@@V?$allocator@D@2@@std@@AEAAXAEAV12@@Z
	?_Swap_proxy_and_iterators@_Container_base0@std@@QEAAXAEAU12@@Z
	?_Take_contents@?$basic_string@DU?$char_traits@D@std@@V?$allocator@D@2@@std@@AEAAXAEAV12@@Z
	?_Throw_bad_array_new_length@std@@YAXXZ
	?_Throw_tree_length_error@std@@YAXXZ
	?_Tidy@?$vector@U?$ColorRGBA_@V?$allocator@X@std@@@std_msgs@@V?$allocator@U?$ColorRGBA_@V?$allocator@X@std@@@std_msgs@@@std@@@std@@AEAAXXZ
	?_Tidy@?$vector@U?$Marker_@V?$allocator@X@std@@@visualization_msgs@@V?$allocator@U?$Marker_@V?$allocator@X@std@@@visualization_msgs@@@std@@@std@@AEAAXXZ
	?_Tidy@?$vector@U?$Point_@V?$allocator@X@std@@@geometry_msgs@@V?$allocator@U?$Point_@V?$allocator@X@std@@@geometry_msgs@@@std@@@std@@AEAAXXZ
	?_Tidy@?$vector@U?$PoseStamped_@V?$allocator@X@std@@@geometry_msgs@@V?$allocator@U?$PoseStamped_@V?$allocator@X@std@@@geometry_msgs@@@std@@@std@@AEAAXXZ
	?_Tidy_deallocate@?$basic_string@DU?$char_traits@D@std@@V?$allocator@D@2@@std@@AEAAXXZ
	?_Tidy_init@?$basic_string@DU?$char_traits@D@std@@V?$allocator@D@2@@std@@AEAAXXZ
	?_Unwrapped@?$_Vector_iterator@V?$_Vector_val@U?$_Simple_types@U?$PoseStamped_@V?$allocator@X@std@@@geometry_msgs@@@std@@@std@@@std@@QEBAPEAU?$PoseStamped_@V?$allocator@X@std@@@geometry_msgs@@XZ
	?_Verify_offset@?$_Vector_const_iterator@V?$_Vector_val@U?$_Simple_types@U?$PoseStamped_@V?$allocator@X@std@@@geometry_msgs@@@std@@@std@@@std@@QEBAX_J@Z
	?_Xlen_string@std@@YAXXZ
	?_Xlength@?$vector@U?$ColorRGBA_@V?$allocator@X@std@@@std_msgs@@V?$allocator@U?$ColorRGBA_@V?$allocator@X@std@@@std_msgs@@@std@@@std@@CAXXZ
	?_Xlength@?$vector@U?$Marker_@V?$allocator@X@std@@@visualization_msgs@@V?$allocator@U?$Marker_@V?$allocator@X@std@@@visualization_msgs@@@std@@@std@@CAXXZ
	?_Xlength@?$vector@U?$Point_@V?$allocator@X@std@@@geometry_msgs@@V?$allocator@U?$Point_@V?$allocator@X@std@@@geometry_msgs@@@std@@@std@@CAXXZ
	?_Xlength@?$vector@U?$PoseStamped_@V?$allocator@X@std@@@geometry_msgs@@V?$allocator@U?$PoseStamped_@V?$allocator@X@std@@@geometry_msgs@@@std@@@std@@CAXXZ
	?_internal_get_untyped_deleter@?$shared_ptr@U?$Path_@V?$allocator@X@std@@@nav_msgs@@@boost@@QEBAPEAXXZ
	?_internal_get_untyped_deleter@?$shared_ptr@U?$PointStamped_@V?$allocator@X@std@@@geometry_msgs@@@boost@@QEBAPEAXXZ
	?_internal_get_untyped_deleter@?$shared_ptr@V?$SubscriptionCallbackHelperT@AEBV?$shared_ptr@$$CBU?$Path_@V?$allocator@X@std@@@nav_msgs@@@boost@@X@ros@@@boost@@QEBAPEAXXZ
	?_internal_get_untyped_deleter@?$shared_ptr@V?$SubscriptionCallbackHelperT@AEBV?$shared_ptr@$$CBU?$PointStamped_@V?$allocator@X@std@@@geometry_msgs@@@boost@@X@ros@@@boost@@QEBAPEAXXZ
	?a2_@?$storage2@V?$value@PEAVWaypointGlobalPlanner@waypoint_global_planner@@@_bi@boost@@U?$arg@$00@3@@_bi@boost@@SA?AU?$arg@$00@3@XZ
	?add_ref@?$refcount_ptr@Uerror_info_container@exception_detail@boost@@@exception_detail@boost@@AEAAXXZ
	?add_ref_copy@sp_counted_base@detail@boost@@QEAAXXZ
	?address@?$sp_ms_deleter@U?$Path_@V?$allocator@X@std@@@nav_msgs@@@detail@boost@@QEAAPEAXXZ
	?address@?$sp_ms_deleter@U?$PointStamped_@V?$allocator@X@std@@@geometry_msgs@@@detail@boost@@QEAAPEAXXZ
	?address@?$sp_ms_deleter@V?$SubscriptionCallbackHelperT@AEBV?$shared_ptr@$$CBU?$Path_@V?$allocator@X@std@@@nav_msgs@@@boost@@X@ros@@@detail@boost@@QEAAPEAXXZ
	?address@?$sp_ms_deleter@V?$SubscriptionCallbackHelperT@AEBV?$shared_ptr@$$CBU?$PointStamped_@V?$allocator@X@std@@@geometry_msgs@@@boost@@X@ros@@@detail@boost@@QEAAPEAXXZ
	?adopt@?$refcount_ptr@Uerror_info_container@exception_detail@boost@@@exception_detail@boost@@QEAAXPEAUerror_info_container@23@@Z
	?allocate@?$allocator@D@std@@QEAAPEAD_K@Z
	?allocate@?$allocator@U?$ColorRGBA_@V?$allocator@X@std@@@std_msgs@@@std@@QEAAPEAU?$ColorRGBA_@V?$allocator@X@std@@@std_msgs@@_K@Z
	?allocate@?$allocator@U?$Marker_@V?$allocator@X@std@@@visualization_msgs@@@std@@QEAAPEAU?$Marker_@V?$allocator@X@std@@@visualization_msgs@@_K@Z
	?allocate@?$allocator@U?$Point_@V?$allocator@X@std@@@geometry_msgs@@@std@@QEAAPEAU?$Point_@V?$allocator@X@std@@@geometry_msgs@@_K@Z
	?allocate@?$allocator@U?$PoseStamped_@V?$allocator@X@std@@@geometry_msgs@@@std@@QEAAPEAU?$PoseStamped_@V?$allocator@X@std@@@geometry_msgs@@_K@Z
	?allocate@?$allocator@U?$_Tree_node@U?$pair@$$CBV?$basic_string@DU?$char_traits@D@std@@V?$allocator@D@2@@std@@PEAVAbstractMetaObjectBase@impl@class_loader@@@std@@PEAX@std@@@std@@QEAAPEAU?$_Tree_node@U?$pair@$$CBV?$basic_string@DU?$char_traits@D@std@@V?$allocator@D@2@@std@@PEAVAbstractMetaObjectBase@impl@class_loader@@@std@@PEAX@2@_K@Z
	?allocate@?$allocator@U?$_Tree_node@U?$pair@$$CBV?$basic_string@DU?$char_traits@D@std@@V?$allocator@D@2@@std@@V12@@std@@PEAX@std@@@std@@QEAAPEAU?$_Tree_node@U?$pair@$$CBV?$basic_string@DU?$char_traits@D@std@@V?$allocator@D@2@@std@@V12@@std@@PEAX@2@_K@Z
	?append@?$basic_string@DU?$char_traits@D@std@@V?$allocator@D@2@@std@@QEAAAEAV12@AEBV12@@Z
	?append@?$basic_string@DU?$char_traits@D@std@@V?$allocator@D@2@@std@@QEAAAEAV12@QEBD@Z
	?append@?$basic_string@DU?$char_traits@D@std@@V?$allocator@D@2@@std@@QEAAAEAV12@QEBD_K@Z
	?assign@?$_Narrow_char_traits@DH@std@@SAXAEADAEBD@Z
	?assign@?$basic_string@DU?$char_traits@D@std@@V?$allocator@D@2@@std@@QEAAAEAV12@QEBD@Z
	?assign@?$basic_string@DU?$char_traits@D@std@@V?$allocator@D@2@@std@@QEAAAEAV12@QEBD_K@Z
	?assign_to_own@?$function0@V?$shared_ptr@U?$Path_@V?$allocator@X@std@@@nav_msgs@@@boost@@@boost@@AEAAXAEBV12@@Z
	?assign_to_own@?$function0@V?$shared_ptr@U?$PointStamped_@V?$allocator@X@std@@@geometry_msgs@@@boost@@@boost@@AEAAXAEBV12@@Z
	?assign_to_own@?$function1@XAEBV?$shared_ptr@$$CBU?$Path_@V?$allocator@X@std@@@nav_msgs@@@boost@@@boost@@AEAAXAEBV12@@Z
	?assign_to_own@?$function1@XAEBV?$shared_ptr@$$CBU?$PointStamped_@V?$allocator@X@std@@@geometry_msgs@@@boost@@@boost@@AEAAXAEBV12@@Z
	?assign_to_own@?$function1@XAEBVSingleSubscriberPublisher@ros@@@boost@@AEAAXAEBV12@@Z
	?assign_to_own@?$function1@XV?$shared_ptr@$$CBU?$Path_@V?$allocator@X@std@@@nav_msgs@@@boost@@@boost@@AEAAXAEBV12@@Z
	?assign_to_own@?$function1@XV?$shared_ptr@$$CBU?$PointStamped_@V?$allocator@X@std@@@geometry_msgs@@@boost@@@boost@@AEAAXAEBV12@@Z
	?atomic_decrement@detail@boost@@YAHPEAU?$atomic@H@std@@@Z
	?atomic_increment@detail@boost@@YAXPEAU?$atomic@H@std@@@Z
	?back@?$vector@U?$PoseStamped_@V?$allocator@X@std@@@geometry_msgs@@V?$allocator@U?$PoseStamped_@V?$allocator@X@std@@@geometry_msgs@@@std@@@std@@QEAAAEAU?$PoseStamped_@V?$allocator@X@std@@@geometry_msgs@@XZ
	?begin@?$vector@U?$ColorRGBA_@V?$allocator@X@std@@@std_msgs@@V?$allocator@U?$ColorRGBA_@V?$allocator@X@std@@@std_msgs@@@std@@@std@@QEBA?AV?$_Vector_const_iterator@V?$_Vector_val@U?$_Simple_types@U?$ColorRGBA_@V?$allocator@X@std@@@std_msgs@@@std@@@std@@@2@XZ
	?begin@?$vector@U?$Marker_@V?$allocator@X@std@@@visualization_msgs@@V?$allocator@U?$Marker_@V?$allocator@X@std@@@visualization_msgs@@@std@@@std@@QEBA?AV?$_Vector_const_iterator@V?$_Vector_val@U?$_Simple_types@U?$Marker_@V?$allocator@X@std@@@visualization_msgs@@@std@@@std@@@2@XZ
	?begin@?$vector@U?$Point_@V?$allocator@X@std@@@geometry_msgs@@V?$allocator@U?$Point_@V?$allocator@X@std@@@geometry_msgs@@@std@@@std@@QEBA?AV?$_Vector_const_iterator@V?$_Vector_val@U?$_Simple_types@U?$Point_@V?$allocator@X@std@@@geometry_msgs@@@std@@@std@@@2@XZ
	?begin@?$vector@U?$PoseStamped_@V?$allocator@X@std@@@geometry_msgs@@V?$allocator@U?$PoseStamped_@V?$allocator@X@std@@@geometry_msgs@@@std@@@std@@QEAA?AV?$_Vector_iterator@V?$_Vector_val@U?$_Simple_types@U?$PoseStamped_@V?$allocator@X@std@@@geometry_msgs@@@std@@@std@@@2@XZ
	?begin@?$vector@U?$PoseStamped_@V?$allocator@X@std@@@geometry_msgs@@V?$allocator@U?$PoseStamped_@V?$allocator@X@std@@@geometry_msgs@@@std@@@std@@QEBA?AV?$_Vector_const_iterator@V?$_Vector_val@U?$_Simple_types@U?$PoseStamped_@V?$allocator@X@std@@@geometry_msgs@@@std@@@std@@@2@XZ
	?c_str@?$basic_string@DU?$char_traits@D@std@@V?$allocator@D@2@@std@@QEBAPEBDXZ
	?call@?$SubscriptionCallbackHelperT@AEBV?$shared_ptr@$$CBU?$Path_@V?$allocator@X@std@@@nav_msgs@@@boost@@X@ros@@UEAAXAEAUSubscriptionCallbackHelperCallParams@2@@Z
	?call@?$SubscriptionCallbackHelperT@AEBV?$shared_ptr@$$CBU?$PointStamped_@V?$allocator@X@std@@@geometry_msgs@@@boost@@X@ros@@UEAAXAEAUSubscriptionCallbackHelperCallParams@2@@Z
	?capacity@?$vector@U?$Marker_@V?$allocator@X@std@@@visualization_msgs@@V?$allocator@U?$Marker_@V?$allocator@X@std@@@visualization_msgs@@@std@@@std@@QEBA_KXZ
	?capacity@?$vector@U?$PoseStamped_@V?$allocator@X@std@@@geometry_msgs@@V?$allocator@U?$PoseStamped_@V?$allocator@X@std@@@geometry_msgs@@@std@@@std@@QEBA_KXZ
	?clear@?$basic_string@DU?$char_traits@D@std@@V?$allocator@D@2@@std@@QEAAXXZ
	?clear@?$basic_vtable0@V?$shared_ptr@U?$Path_@V?$allocator@X@std@@@nav_msgs@@@boost@@@function@detail@boost@@QEBAXAEATfunction_buffer@234@@Z
	?clear@?$basic_vtable0@V?$shared_ptr@U?$PointStamped_@V?$allocator@X@std@@@geometry_msgs@@@boost@@@function@detail@boost@@QEBAXAEATfunction_buffer@234@@Z
	?clear@?$basic_vtable0@VSerializedMessage@ros@@@function@detail@boost@@QEBAXAEATfunction_buffer@234@@Z
	?clear@?$basic_vtable1@XAEBV?$shared_ptr@$$CBU?$Path_@V?$allocator@X@std@@@nav_msgs@@@boost@@@function@detail@boost@@QEBAXAEATfunction_buffer@234@@Z
	?clear@?$basic_vtable1@XAEBV?$shared_ptr@$$CBU?$PointStamped_@V?$allocator@X@std@@@geometry_msgs@@@boost@@@function@detail@boost@@QEBAXAEATfunction_buffer@234@@Z
	?clear@?$basic_vtable1@XAEBVSingleSubscriberPublisher@ros@@@function@detail@boost@@QEBAXAEATfunction_buffer@234@@Z
	?clear@?$basic_vtable1@XV?$shared_ptr@$$CBU?$Path_@V?$allocator@X@std@@@nav_msgs@@@boost@@@function@detail@boost@@QEBAXAEATfunction_buffer@234@@Z
	?clear@?$basic_vtable1@XV?$shared_ptr@$$CBU?$PointStamped_@V?$allocator@X@std@@@geometry_msgs@@@boost@@@function@detail@boost@@QEBAXAEATfunction_buffer@234@@Z
	?clear@?$function0@V?$shared_ptr@U?$Path_@V?$allocator@X@std@@@nav_msgs@@@boost@@@boost@@QEAAXXZ
	?clear@?$function0@V?$shared_ptr@U?$PointStamped_@V?$allocator@X@std@@@geometry_msgs@@@boost@@@boost@@QEAAXXZ
	?clear@?$function0@VSerializedMessage@ros@@@boost@@QEAAXXZ
	?clear@?$function1@XAEBV?$shared_ptr@$$CBU?$Path_@V?$allocator@X@std@@@nav_msgs@@@boost@@@boost@@QEAAXXZ
	?clear@?$function1@XAEBV?$shared_ptr@$$CBU?$PointStamped_@V?$allocator@X@std@@@geometry_msgs@@@boost@@@boost@@QEAAXXZ
	?clear@?$function1@XAEBVSingleSubscriberPublisher@ros@@@boost@@QEAAXXZ
	?clear@?$function1@XV?$shared_ptr@$$CBU?$Path_@V?$allocator@X@std@@@nav_msgs@@@boost@@@boost@@QEAAXXZ
	?clear@?$function1@XV?$shared_ptr@$$CBU?$PointStamped_@V?$allocator@X@std@@@geometry_msgs@@@boost@@@boost@@QEAAXXZ
	?clear@?$vector@U?$Marker_@V?$allocator@X@std@@@visualization_msgs@@V?$allocator@U?$Marker_@V?$allocator@X@std@@@visualization_msgs@@@std@@@std@@QEAAXXZ
	?clear@?$vector@U?$PoseStamped_@V?$allocator@X@std@@@geometry_msgs@@V?$allocator@U?$PoseStamped_@V?$allocator@X@std@@@geometry_msgs@@@std@@@std@@QEAAXXZ
	?clear_waiting_and_try_lock@basic_timed_mutex@detail@boost@@QEAAXAEAJ@Z
	?clone@?$clone_impl@U?$error_info_injector@Vbad_function_call@boost@@@exception_detail@boost@@@exception_detail@boost@@$0PPPPPPPM@A@EBAPEBVclone_base@23@XZ
	?clone@?$clone_impl@U?$error_info_injector@Vbad_function_call@boost@@@exception_detail@boost@@@exception_detail@boost@@EEBAPEBVclone_base@23@XZ
	?clone@?$clone_impl@U?$error_info_injector@Vthread_resource_error@boost@@@exception_detail@boost@@@exception_detail@boost@@$0PPPPPPPM@A@EBAPEBVclone_base@23@XZ
	?clone@?$clone_impl@U?$error_info_injector@Vthread_resource_error@boost@@@exception_detail@boost@@@exception_detail@boost@@EEBAPEBVclone_base@23@XZ
	?clone@?$clone_impl@Ubad_alloc_@exception_detail@boost@@@exception_detail@boost@@$0PPPPPPPM@A@EBAPEBVclone_base@23@XZ
	?clone@?$clone_impl@Ubad_alloc_@exception_detail@boost@@@exception_detail@boost@@EEBAPEBVclone_base@23@XZ
	?clone@?$clone_impl@Ubad_exception_@exception_detail@boost@@@exception_detail@boost@@$0PPPPPPPM@A@EBAPEBVclone_base@23@XZ
	?clone@?$clone_impl@Ubad_exception_@exception_detail@boost@@@exception_detail@boost@@EEBAPEBVclone_base@23@XZ
	?compare@?$_Narrow_char_traits@DH@std@@SAHQEBD0_K@Z
	?compare@?$basic_string@DU?$char_traits@D@std@@V?$allocator@D@2@@std@@QEBAHAEBV12@@Z
	?copy@?$_Char_traits@DH@std@@SAPEADQEADQEBD_K@Z
	?copy_boost_exception@exception_detail@boost@@YAXPEAVexception@2@PEBV32@@Z
	?create@?$MetaObject@VWaypointGlobalPlanner@waypoint_global_planner@@VBaseGlobalPlanner@nav_core@@@impl@class_loader@@UEBAPEAVBaseGlobalPlanner@nav_core@@XZ
	?createAndPublishMarkersFromPath@WaypointGlobalPlanner@waypoint_global_planner@@QEAAXAEBV?$vector@U?$PoseStamped_@V?$allocator@X@std@@@geometry_msgs@@V?$allocator@U?$PoseStamped_@V?$allocator@X@std@@@geometry_msgs@@@std@@@std@@@Z
	?create_anonymous_event@win32@detail@boost@@YAPEAXW4event_type@123@W4initial_event_state@123@@Z
	?create_event@win32@detail@boost@@YAPEAXPEBDW4event_type@123@W4initial_event_state@123@@Z
	?data@?$basic_string@DU?$char_traits@D@std@@V?$allocator@D@2@@std@@QEBAPEBDXZ
	?deallocate@?$_Default_allocator_traits@V?$allocator@U?$_Tree_node@U?$pair@$$CBV?$basic_string@DU?$char_traits@D@std@@V?$allocator@D@2@@std@@V12@@std@@PEAX@std@@@std@@@std@@SAXAEAV?$allocator@U?$_Tree_node@U?$pair@$$CBV?$basic_string@DU?$char_traits@D@std@@V?$allocator@D@2@@std@@V12@@std@@PEAX@std@@@2@QEAU?$_Tree_node@U?$pair@$$CBV?$basic_string@DU?$char_traits@D@std@@V?$allocator@D@2@@std@@V12@@std@@PEAX@2@_K@Z
	?deallocate@?$allocator@D@std@@QEAAXQEAD_K@Z
	?deallocate@?$allocator@U?$ColorRGBA_@V?$allocator@X@std@@@std_msgs@@@std@@QEAAXQEAU?$ColorRGBA_@V?$allocator@X@std@@@std_msgs@@_K@Z
	?deallocate@?$allocator@U?$Marker_@V?$allocator@X@std@@@visualization_msgs@@@std@@QEAAXQEAU?$Marker_@V?$allocator@X@std@@@visualization_msgs@@_K@Z
	?deallocate@?$allocator@U?$Point_@V?$allocator@X@std@@@geometry_msgs@@@std@@QEAAXQEAU?$Point_@V?$allocator@X@std@@@geometry_msgs@@_K@Z
	?deallocate@?$allocator@U?$PoseStamped_@V?$allocator@X@std@@@geometry_msgs@@@std@@QEAAXQEAU?$PoseStamped_@V?$allocator@X@std@@@geometry_msgs@@_K@Z
	?deallocate@?$allocator@U?$_Tree_node@U?$pair@$$CBV?$basic_string@DU?$char_traits@D@std@@V?$allocator@D@2@@std@@PEAVAbstractMetaObjectBase@impl@class_loader@@@std@@PEAX@std@@@std@@QEAAXQEAU?$_Tree_node@U?$pair@$$CBV?$basic_string@DU?$char_traits@D@std@@V?$allocator@D@2@@std@@PEAVAbstractMetaObjectBase@impl@class_loader@@@std@@PEAX@2@_K@Z
	?deserialize@?$SubscriptionCallbackHelperT@AEBV?$shared_ptr@$$CBU?$Path_@V?$allocator@X@std@@@nav_msgs@@@boost@@X@ros@@UEAA?AV?$shared_ptr@$$CBX@boost@@AEBUSubscriptionCallbackHelperDeserializeParams@2@@Z
	?deserialize@?$SubscriptionCallbackHelperT@AEBV?$shared_ptr@$$CBU?$PointStamped_@V?$allocator@X@std@@@geometry_msgs@@@boost@@X@ros@@UEAA?AV?$shared_ptr@$$CBX@boost@@AEBUSubscriptionCallbackHelperDeserializeParams@2@@Z
	?destroy@?$sp_ms_deleter@U?$Path_@V?$allocator@X@std@@@nav_msgs@@@detail@boost@@AEAAXXZ
	?destroy@?$sp_ms_deleter@U?$PointStamped_@V?$allocator@X@std@@@geometry_msgs@@@detail@boost@@AEAAXXZ
	?destroy@?$sp_ms_deleter@V?$SubscriptionCallbackHelperT@AEBV?$shared_ptr@$$CBU?$Path_@V?$allocator@X@std@@@nav_msgs@@@boost@@X@ros@@@detail@boost@@AEAAXXZ
	?destroy@?$sp_ms_deleter@V?$SubscriptionCallbackHelperT@AEBV?$shared_ptr@$$CBU?$PointStamped_@V?$allocator@X@std@@@geometry_msgs@@@boost@@X@ros@@@detail@boost@@AEAAXXZ
	?destroy@sp_counted_base@detail@boost@@UEAAXXZ
	?dispose@?$sp_counted_impl_p@V?$clone_impl@Ubad_alloc_@exception_detail@boost@@@exception_detail@boost@@@detail@boost@@UEAAXXZ
	?dispose@?$sp_counted_impl_p@V?$clone_impl@Ubad_exception_@exception_detail@boost@@@exception_detail@boost@@@detail@boost@@UEAAXXZ
	?dispose@?$sp_counted_impl_pd@PEAEU?$checked_array_deleter@E@boost@@@detail@boost@@UEAAXXZ
	?dispose@?$sp_counted_impl_pd@PEAU?$Path_@V?$allocator@X@std@@@nav_msgs@@V?$sp_ms_deleter@U?$Path_@V?$allocator@X@std@@@nav_msgs@@@detail@boost@@@detail@boost@@UEAAXXZ
	?dispose@?$sp_counted_impl_pd@PEAU?$PointStamped_@V?$allocator@X@std@@@geometry_msgs@@V?$sp_ms_deleter@U?$PointStamped_@V?$allocator@X@std@@@geometry_msgs@@@detail@boost@@@detail@boost@@UEAAXXZ
	?dispose@?$sp_counted_impl_pd@PEAV?$SubscriptionCallbackHelperT@AEBV?$shared_ptr@$$CBU?$Path_@V?$allocator@X@std@@@nav_msgs@@@boost@@X@ros@@V?$sp_ms_deleter@V?$SubscriptionCallbackHelperT@AEBV?$shared_ptr@$$CBU?$Path_@V?$allocator@X@std@@@nav_msgs@@@boost@@X@ros@@@detail@boost@@@detail@boost@@UEAAXXZ
	?dispose@?$sp_counted_impl_pd@PEAV?$SubscriptionCallbackHelperT@AEBV?$shared_ptr@$$CBU?$PointStamped_@V?$allocator@X@std@@@geometry_msgs@@@boost@@X@ros@@V?$sp_ms_deleter@V?$SubscriptionCallbackHelperT@AEBV?$shared_ptr@$$CBU?$PointStamped_@V?$allocator@X@std@@@geometry_msgs@@@boost@@X@ros@@@detail@boost@@@detail@boost@@UEAAXXZ
	?dot@Quaternion@tf@@QEBANAEBV12@@Z
	?empty@?$basic_string@DU?$char_traits@D@std@@V?$allocator@D@2@@std@@QEBA_NXZ
	?empty@?$vector@U?$ColorRGBA_@V?$allocator@X@std@@@std_msgs@@V?$allocator@U?$ColorRGBA_@V?$allocator@X@std@@@std_msgs@@@std@@@std@@QEBA_NXZ
	?empty@?$vector@U?$Point_@V?$allocator@X@std@@@geometry_msgs@@V?$allocator@U?$Point_@V?$allocator@X@std@@@geometry_msgs@@@std@@@std@@QEBA_NXZ
	?empty@function_base@boost@@QEBA_NXZ
	?end@?$_Tree@V?$_Tmap_traits@V?$basic_string@DU?$char_traits@D@std@@V?$allocator@D@2@@std@@PEAVAbstractMetaObjectBase@impl@class_loader@@U?$less@V?$basic_string@DU?$char_traits@D@std@@V?$allocator@D@2@@std@@@2@V?$allocator@U?$pair@$$CBV?$basic_string@DU?$char_traits@D@std@@V?$allocator@D@2@@std@@PEAVAbstractMetaObjectBase@impl@class_loader@@@std@@@2@$0A@@std@@@std@@QEAA?AV?$_Tree_iterator@V?$_Tree_val@U?$_Tree_simple_types@U?$pair@$$CBV?$basic_string@DU?$char_traits@D@std@@V?$allocator@D@2@@std@@PEAVAbstractMetaObjectBase@impl@class_loader@@@std@@@std@@@std@@@2@XZ
	?end@?$vector@U?$ColorRGBA_@V?$allocator@X@std@@@std_msgs@@V?$allocator@U?$ColorRGBA_@V?$allocator@X@std@@@std_msgs@@@std@@@std@@QEBA?AV?$_Vector_const_iterator@V?$_Vector_val@U?$_Simple_types@U?$ColorRGBA_@V?$allocator@X@std@@@std_msgs@@@std@@@std@@@2@XZ
	?end@?$vector@U?$Marker_@V?$allocator@X@std@@@visualization_msgs@@V?$allocator@U?$Marker_@V?$allocator@X@std@@@visualization_msgs@@@std@@@std@@QEBA?AV?$_Vector_const_iterator@V?$_Vector_val@U?$_Simple_types@U?$Marker_@V?$allocator@X@std@@@visualization_msgs@@@std@@@std@@@2@XZ
	?end@?$vector@U?$Point_@V?$allocator@X@std@@@geometry_msgs@@V?$allocator@U?$Point_@V?$allocator@X@std@@@geometry_msgs@@@std@@@std@@QEBA?AV?$_Vector_const_iterator@V?$_Vector_val@U?$_Simple_types@U?$Point_@V?$allocator@X@std@@@geometry_msgs@@@std@@@std@@@2@XZ
	?end@?$vector@U?$PoseStamped_@V?$allocator@X@std@@@geometry_msgs@@V?$allocator@U?$PoseStamped_@V?$allocator@X@std@@@geometry_msgs@@@std@@@std@@QEAA?AV?$_Vector_iterator@V?$_Vector_val@U?$_Simple_types@U?$PoseStamped_@V?$allocator@X@std@@@geometry_msgs@@@std@@@std@@@2@XZ
	?end@?$vector@U?$PoseStamped_@V?$allocator@X@std@@@geometry_msgs@@V?$allocator@U?$PoseStamped_@V?$allocator@X@std@@@geometry_msgs@@@std@@@std@@QEBA?AV?$_Vector_const_iterator@V?$_Vector_val@U?$_Simple_types@U?$PoseStamped_@V?$allocator@X@std@@@geometry_msgs@@@std@@@std@@@2@XZ
	?equal@stl_type_index@typeindex@boost@@QEBA_NAEBV123@@Z
	?externalPathCallback@WaypointGlobalPlanner@waypoint_global_planner@@QEAAXAEBV?$shared_ptr@$$CBU?$Path_@V?$allocator@X@std@@@nav_msgs@@@boost@@@Z
	?fetch_add@?$_Atomic_integral@H$03@std@@QEAAHHW4memory_order@2@@Z
	?fetch_sub@?$_Atomic_integral_facade@H@std@@QEAAHHW4memory_order@2@@Z
	?find@?$_Tree@V?$_Tmap_traits@V?$basic_string@DU?$char_traits@D@std@@V?$allocator@D@2@@std@@PEAVAbstractMetaObjectBase@impl@class_loader@@U?$less@V?$basic_string@DU?$char_traits@D@std@@V?$allocator@D@2@@std@@@2@V?$allocator@U?$pair@$$CBV?$basic_string@DU?$char_traits@D@std@@V?$allocator@D@2@@std@@PEAVAbstractMetaObjectBase@impl@class_loader@@@std@@@2@$0A@@std@@@std@@QEAA?AV?$_Tree_iterator@V?$_Tree_val@U?$_Tree_simple_types@U?$pair@$$CBV?$basic_string@DU?$char_traits@D@std@@V?$allocator@D@2@@std@@PEAVAbstractMetaObjectBase@impl@class_loader@@@std@@@std@@@std@@@2@AEBV?$basic_string@DU?$char_traits@D@std@@V?$allocator@D@2@@2@@Z
	?front@?$vector@U?$ColorRGBA_@V?$allocator@X@std@@@std_msgs@@V?$allocator@U?$ColorRGBA_@V?$allocator@X@std@@@std_msgs@@@std@@@std@@QEBAAEBU?$ColorRGBA_@V?$allocator@X@std@@@std_msgs@@XZ
	?front@?$vector@U?$Point_@V?$allocator@X@std@@@geometry_msgs@@V?$allocator@U?$Point_@V?$allocator@X@std@@@geometry_msgs@@@std@@@std@@QEBAAEBU?$Point_@V?$allocator@X@std@@@geometry_msgs@@XZ
	?get@?$refcount_ptr@Uerror_info_container@exception_detail@boost@@@exception_detail@boost@@QEBAPEAUerror_info_container@23@XZ
	?get@?$reference_wrapper@$$CBU?$MarkerArray_@V?$allocator@X@std@@@visualization_msgs@@@boost@@QEBAAEBU?$MarkerArray_@V?$allocator@X@std@@@visualization_msgs@@XZ
	?get@?$reference_wrapper@$$CBU?$Path_@V?$allocator@X@std@@@nav_msgs@@@boost@@QEBAAEBU?$Path_@V?$allocator@X@std@@@nav_msgs@@XZ
	?get@?$reference_wrapper@$$CBU?$PoseStamped_@V?$allocator@X@std@@@geometry_msgs@@@boost@@QEBAAEBU?$PoseStamped_@V?$allocator@X@std@@@geometry_msgs@@XZ
	?get@?$shared_array@E@boost@@QEBAPEAEXZ
	?get@?$shared_ptr@$$CBU?$Path_@V?$allocator@X@std@@@nav_msgs@@@boost@@QEBAPEBU?$Path_@V?$allocator@X@std@@@nav_msgs@@XZ
	?get@?$shared_ptr@$$CBU?$PointStamped_@V?$allocator@X@std@@@geometry_msgs@@@boost@@QEBAPEBU?$PointStamped_@V?$allocator@X@std@@@geometry_msgs@@XZ
	?get@?$shared_ptr@$$CBX@boost@@QEBAPEBXXZ
	?get@?$value@PEAVWaypointGlobalPlanner@waypoint_global_planner@@@_bi@boost@@QEAAAEAPEAVWaypointGlobalPlanner@waypoint_global_planner@@XZ
	?getConnectionHeaderPtr@?$MessageEvent@$$CBX@ros@@QEBAAEBV?$shared_ptr@V?$map@V?$basic_string@DU?$char_traits@D@std@@V?$allocator@D@2@@std@@V12@U?$less@V?$basic_string@DU?$char_traits@D@std@@V?$allocator@D@2@@std@@@2@V?$allocator@U?$pair@$$CBV?$basic_string@DU?$char_traits@D@std@@V?$allocator@D@2@@std@@V12@@std@@@2@@std@@@boost@@XZ
	?getCostmap@Costmap2DROS@costmap_2d@@QEAAPEAVCostmap2D@2@XZ
	?getCostmap@LayeredCostmap@costmap_2d@@QEAAPEAVCostmap2D@2@XZ
	?getMessage@?$MessageEvent@$$CBU?$Path_@V?$allocator@X@std@@@nav_msgs@@@ros@@QEBA?AV?$shared_ptr@$$CBU?$Path_@V?$allocator@X@std@@@nav_msgs@@@boost@@XZ
	?getMessage@?$MessageEvent@$$CBU?$PointStamped_@V?$allocator@X@std@@@geometry_msgs@@@ros@@QEBA?AV?$shared_ptr@$$CBU?$PointStamped_@V?$allocator@X@std@@@geometry_msgs@@@boost@@XZ
	?getMessage@?$MessageEvent@$$CBX@ros@@QEBA?AV?$shared_ptr@$$CBX@boost@@XZ
	?getParameter@?$ParameterAdapter@AEBV?$shared_ptr@$$CBU?$Path_@V?$allocator@X@std@@@nav_msgs@@@boost@@@ros@@SA?BV?$shared_ptr@$$CBU?$Path_@V?$allocator@X@std@@@nav_msgs@@@boost@@AEBV?$MessageEvent@$$CBU?$Path_@V?$allocator@X@std@@@nav_msgs@@@2@@Z
	?getParameter@?$ParameterAdapter@AEBV?$shared_ptr@$$CBU?$PointStamped_@V?$allocator@X@std@@@geometry_msgs@@@boost@@@ros@@SA?BV?$shared_ptr@$$CBU?$PointStamped_@V?$allocator@X@std@@@geometry_msgs@@@boost@@AEBV?$MessageEvent@$$CBU?$PointStamped_@V?$allocator@X@std@@@geometry_msgs@@@2@@Z
	?getReceiptTime@?$MessageEvent@$$CBX@ros@@QEBA?AVTime@2@XZ
	?getTypeInfo@?$SubscriptionCallbackHelperT@AEBV?$shared_ptr@$$CBU?$Path_@V?$allocator@X@std@@@nav_msgs@@@boost@@X@ros@@UEAAAEBVtype_info@@XZ
	?getTypeInfo@?$SubscriptionCallbackHelperT@AEBV?$shared_ptr@$$CBU?$PointStamped_@V?$allocator@X@std@@@geometry_msgs@@@boost@@X@ros@@UEAAAEBVtype_info@@XZ
	?get_deleter@?$sp_counted_impl_p@V?$clone_impl@Ubad_alloc_@exception_detail@boost@@@exception_detail@boost@@@detail@boost@@UEAAPEAXAEBVtype_info@@@Z
	?get_deleter@?$sp_counted_impl_p@V?$clone_impl@Ubad_exception_@exception_detail@boost@@@exception_detail@boost@@@detail@boost@@UEAAPEAXAEBVtype_info@@@Z
	?get_deleter@?$sp_counted_impl_pd@PEAEU?$checked_array_deleter@E@boost@@@detail@boost@@UEAAPEAXAEBVtype_info@@@Z
	?get_deleter@?$sp_counted_impl_pd@PEAU?$Path_@V?$allocator@X@std@@@nav_msgs@@V?$sp_ms_deleter@U?$Path_@V?$allocator@X@std@@@nav_msgs@@@detail@boost@@@detail@boost@@UEAAPEAXAEBVtype_info@@@Z
	?get_deleter@?$sp_counted_impl_pd@PEAU?$PointStamped_@V?$allocator@X@std@@@geometry_msgs@@V?$sp_ms_deleter@U?$PointStamped_@V?$allocator@X@std@@@geometry_msgs@@@detail@boost@@@detail@boost@@UEAAPEAXAEBVtype_info@@@Z
	?get_deleter@?$sp_counted_impl_pd@PEAV?$SubscriptionCallbackHelperT@AEBV?$shared_ptr@$$CBU?$Path_@V?$allocator@X@std@@@nav_msgs@@@boost@@X@ros@@V?$sp_ms_deleter@V?$SubscriptionCallbackHelperT@AEBV?$shared_ptr@$$CBU?$Path_@V?$allocator@X@std@@@nav_msgs@@@boost@@X@ros@@@detail@boost@@@detail@boost@@UEAAPEAXAEBVtype_info@@@Z
	?get_deleter@?$sp_counted_impl_pd@PEAV?$SubscriptionCallbackHelperT@AEBV?$shared_ptr@$$CBU?$PointStamped_@V?$allocator@X@std@@@geometry_msgs@@@boost@@X@ros@@V?$sp_ms_deleter@V?$SubscriptionCallbackHelperT@AEBV?$shared_ptr@$$CBU?$PointStamped_@V?$allocator@X@std@@@geometry_msgs@@@boost@@X@ros@@@detail@boost@@@detail@boost@@UEAAPEAXAEBVtype_info@@@Z
	?get_event@basic_timed_mutex@detail@boost@@AEAAPEAXXZ
	?get_local_deleter@?$sp_counted_impl_p@V?$clone_impl@Ubad_alloc_@exception_detail@boost@@@exception_detail@boost@@@detail@boost@@UEAAPEAXAEBVtype_info@@@Z
	?get_local_deleter@?$sp_counted_impl_p@V?$clone_impl@Ubad_exception_@exception_detail@boost@@@exception_detail@boost@@@detail@boost@@UEAAPEAXAEBVtype_info@@@Z
	?get_local_deleter@?$sp_counted_impl_pd@PEAEU?$checked_array_deleter@E@boost@@@detail@boost@@UEAAPEAXAEBVtype_info@@@Z
	?get_local_deleter@?$sp_counted_impl_pd@PEAU?$Path_@V?$allocator@X@std@@@nav_msgs@@V?$sp_ms_deleter@U?$Path_@V?$allocator@X@std@@@nav_msgs@@@detail@boost@@@detail@boost@@UEAAPEAXAEBVtype_info@@@Z
	?get_local_deleter@?$sp_counted_impl_pd@PEAU?$PointStamped_@V?$allocator@X@std@@@geometry_msgs@@V?$sp_ms_deleter@U?$PointStamped_@V?$allocator@X@std@@@geometry_msgs@@@detail@boost@@@detail@boost@@UEAAPEAXAEBVtype_info@@@Z
	?get_local_deleter@?$sp_counted_impl_pd@PEAV?$SubscriptionCallbackHelperT@AEBV?$shared_ptr@$$CBU?$Path_@V?$allocator@X@std@@@nav_msgs@@@boost@@X@ros@@V?$sp_ms_deleter@V?$SubscriptionCallbackHelperT@AEBV?$shared_ptr@$$CBU?$Path_@V?$allocator@X@std@@@nav_msgs@@@boost@@X@ros@@@detail@boost@@@detail@boost@@UEAAPEAXAEBVtype_info@@@Z
	?get_local_deleter@?$sp_counted_impl_pd@PEAV?$SubscriptionCallbackHelperT@AEBV?$shared_ptr@$$CBU?$PointStamped_@V?$allocator@X@std@@@geometry_msgs@@@boost@@X@ros@@V?$sp_ms_deleter@V?$SubscriptionCallbackHelperT@AEBV?$shared_ptr@$$CBU?$PointStamped_@V?$allocator@X@std@@@geometry_msgs@@@boost@@X@ros@@@detail@boost@@@detail@boost@@UEAAPEAXAEBVtype_info@@@Z
	?get_untyped_deleter@?$sp_counted_impl_p@V?$clone_impl@Ubad_alloc_@exception_detail@boost@@@exception_detail@boost@@@detail@boost@@UEAAPEAXXZ
	?get_untyped_deleter@?$sp_counted_impl_p@V?$clone_impl@Ubad_exception_@exception_detail@boost@@@exception_detail@boost@@@detail@boost@@UEAAPEAXXZ
	?get_untyped_deleter@?$sp_counted_impl_pd@PEAEU?$checked_array_deleter@E@boost@@@detail@boost@@UEAAPEAXXZ
	?get_untyped_deleter@?$sp_counted_impl_pd@PEAU?$Path_@V?$allocator@X@std@@@nav_msgs@@V?$sp_ms_deleter@U?$Path_@V?$allocator@X@std@@@nav_msgs@@@detail@boost@@@detail@boost@@UEAAPEAXXZ
	?get_untyped_deleter@?$sp_counted_impl_pd@PEAU?$PointStamped_@V?$allocator@X@std@@@geometry_msgs@@V?$sp_ms_deleter@U?$PointStamped_@V?$allocator@X@std@@@geometry_msgs@@@detail@boost@@@detail@boost@@UEAAPEAXXZ
	?get_untyped_deleter@?$sp_counted_impl_pd@PEAV?$SubscriptionCallbackHelperT@AEBV?$shared_ptr@$$CBU?$Path_@V?$allocator@X@std@@@nav_msgs@@@boost@@X@ros@@V?$sp_ms_deleter@V?$SubscriptionCallbackHelperT@AEBV?$shared_ptr@$$CBU?$Path_@V?$allocator@X@std@@@nav_msgs@@@boost@@X@ros@@@detail@boost@@@detail@boost@@UEAAPEAXXZ
	?get_untyped_deleter@?$sp_counted_impl_pd@PEAV?$SubscriptionCallbackHelperT@AEBV?$shared_ptr@$$CBU?$PointStamped_@V?$allocator@X@std@@@geometry_msgs@@@boost@@X@ros@@V?$sp_ms_deleter@V?$SubscriptionCallbackHelperT@AEBV?$shared_ptr@$$CBU?$PointStamped_@V?$allocator@X@std@@@geometry_msgs@@@boost@@X@ros@@@detail@boost@@@detail@boost@@UEAAPEAXXZ
	?get_untyped_deleter@shared_count@detail@boost@@QEBAPEAXXZ
	?get_vtable@?$function0@V?$shared_ptr@U?$Path_@V?$allocator@X@std@@@nav_msgs@@@boost@@@boost@@AEBAPEAU?$basic_vtable0@V?$shared_ptr@U?$Path_@V?$allocator@X@std@@@nav_msgs@@@boost@@@function@detail@2@XZ
	?get_vtable@?$function0@V?$shared_ptr@U?$PointStamped_@V?$allocator@X@std@@@geometry_msgs@@@boost@@@boost@@AEBAPEAU?$basic_vtable0@V?$shared_ptr@U?$PointStamped_@V?$allocator@X@std@@@geometry_msgs@@@boost@@@function@detail@2@XZ
	?get_vtable@?$function0@VSerializedMessage@ros@@@boost@@AEBAPEAU?$basic_vtable0@VSerializedMessage@ros@@@function@detail@2@XZ
	?get_vtable@?$function1@XAEBV?$shared_ptr@$$CBU?$Path_@V?$allocator@X@std@@@nav_msgs@@@boost@@@boost@@AEBAPEAU?$basic_vtable1@XAEBV?$shared_ptr@$$CBU?$Path_@V?$allocator@X@std@@@nav_msgs@@@boost@@@function@detail@2@XZ
	?get_vtable@?$function1@XAEBV?$shared_ptr@$$CBU?$PointStamped_@V?$allocator@X@std@@@geometry_msgs@@@boost@@@boost@@AEBAPEAU?$basic_vtable1@XAEBV?$shared_ptr@$$CBU?$PointStamped_@V?$allocator@X@std@@@geometry_msgs@@@boost@@@function@detail@2@XZ
	?get_vtable@?$function1@XAEBVSingleSubscriberPublisher@ros@@@boost@@AEBAPEAU?$basic_vtable1@XAEBVSingleSubscriberPublisher@ros@@@function@detail@2@XZ
	?get_vtable@?$function1@XV?$shared_ptr@$$CBU?$Path_@V?$allocator@X@std@@@nav_msgs@@@boost@@@boost@@AEBAPEAU?$basic_vtable1@XV?$shared_ptr@$$CBU?$Path_@V?$allocator@X@std@@@nav_msgs@@@boost@@@function@detail@2@XZ
	?get_vtable@?$function1@XV?$shared_ptr@$$CBU?$PointStamped_@V?$allocator@X@std@@@geometry_msgs@@@boost@@@boost@@AEBAPEAU?$basic_vtable1@XV?$shared_ptr@$$CBU?$PointStamped_@V?$allocator@X@std@@@geometry_msgs@@@boost@@@function@detail@2@XZ
	?hasHeader@?$SubscriptionCallbackHelperT@AEBV?$shared_ptr@$$CBU?$Path_@V?$allocator@X@std@@@nav_msgs@@@boost@@X@ros@@UEAA_NXZ
	?hasHeader@?$SubscriptionCallbackHelperT@AEBV?$shared_ptr@$$CBU?$PointStamped_@V?$allocator@X@std@@@geometry_msgs@@@boost@@X@ros@@UEAA_NXZ
	?has_empty_target@function@detail@boost@@YA_NPEBVfunction_base@3@@Z
	?has_empty_target@function@detail@boost@@YA_NZZ
	?has_trivial_copy_and_destroy@function_base@boost@@QEBA_NXZ
	?init@?$MessageEvent@$$CBU?$Path_@V?$allocator@X@std@@@nav_msgs@@@ros@@QEAAXAEBV?$shared_ptr@$$CBU?$Path_@V?$allocator@X@std@@@nav_msgs@@@boost@@AEBV?$shared_ptr@V?$map@V?$basic_string@DU?$char_traits@D@std@@V?$allocator@D@2@@std@@V12@U?$less@V?$basic_string@DU?$char_traits@D@std@@V?$allocator@D@2@@std@@@2@V?$allocator@U?$pair@$$CBV?$basic_string@DU?$char_traits@D@std@@V?$allocator@D@2@@std@@V12@@std@@@2@@std@@@4@VTime@2@_NAEBV?$function@$$A6A?AV?$shared_ptr@U?$Path_@V?$allocator@X@std@@@nav_msgs@@@boost@@XZ@4@@Z
	?init@?$MessageEvent@$$CBU?$PointStamped_@V?$allocator@X@std@@@geometry_msgs@@@ros@@QEAAXAEBV?$shared_ptr@$$CBU?$PointStamped_@V?$allocator@X@std@@@geometry_msgs@@@boost@@AEBV?$shared_ptr@V?$map@V?$basic_string@DU?$char_traits@D@std@@V?$allocator@D@2@@std@@V12@U?$less@V?$basic_string@DU?$char_traits@D@std@@V?$allocator@D@2@@std@@@2@V?$allocator@U?$pair@$$CBV?$basic_string@DU?$char_traits@D@std@@V?$allocator@D@2@@std@@V12@@std@@@2@@std@@@4@VTime@2@_NAEBV?$function@$$A6A?AV?$shared_ptr@U?$PointStamped_@V?$allocator@X@std@@@geometry_msgs@@@boost@@XZ@4@@Z
	?initialize@WaypointGlobalPlanner@waypoint_global_planner@@UEAAXV?$basic_string@DU?$char_traits@D@std@@V?$allocator@D@2@@std@@PEAVCostmap2DROS@costmap_2d@@@Z
	?insert@?$vector@U?$PoseStamped_@V?$allocator@X@std@@@geometry_msgs@@V?$allocator@U?$PoseStamped_@V?$allocator@X@std@@@geometry_msgs@@@std@@@std@@QEAA?AV?$_Vector_iterator@V?$_Vector_val@U?$_Simple_types@U?$PoseStamped_@V?$allocator@X@std@@@geometry_msgs@@@std@@@std@@@2@V?$_Vector_const_iterator@V?$_Vector_val@U?$_Simple_types@U?$PoseStamped_@V?$allocator@X@std@@@geometry_msgs@@@std@@@std@@@2@AEBU?$PoseStamped_@V?$allocator@X@std@@@geometry_msgs@@@Z
	?interlocked_bit_test_and_set@win32@detail@boost@@YA_NPEAJJ@Z
	?interlocked_read_acquire@detail@boost@@YAJPECJ@Z
	?interlocked_read_acquire@detail@boost@@YAPEAXPECREAX@Z
	?interpolatePath@WaypointGlobalPlanner@waypoint_global_planner@@QEAAXAEAU?$Path_@V?$allocator@X@std@@@nav_msgs@@@Z
	?invoke@?$function_obj_invoker0@U?$DefaultMessageCreator@U?$Path_@V?$allocator@X@std@@@nav_msgs@@@ros@@V?$shared_ptr@U?$Path_@V?$allocator@X@std@@@nav_msgs@@@boost@@@function@detail@boost@@SA?AV?$shared_ptr@U?$Path_@V?$allocator@X@std@@@nav_msgs@@@4@AEATfunction_buffer@234@@Z
	?invoke@?$function_obj_invoker0@U?$DefaultMessageCreator@U?$PointStamped_@V?$allocator@X@std@@@geometry_msgs@@@ros@@V?$shared_ptr@U?$PointStamped_@V?$allocator@X@std@@@geometry_msgs@@@boost@@@function@detail@boost@@SA?AV?$shared_ptr@U?$PointStamped_@V?$allocator@X@std@@@geometry_msgs@@@4@AEATfunction_buffer@234@@Z
	?invoke@?$function_obj_invoker0@V?$bind_t@VSerializedMessage@ros@@P6A?AV12@AEBU?$MarkerArray_@V?$allocator@X@std@@@visualization_msgs@@@ZV?$list1@V?$reference_wrapper@$$CBU?$MarkerArray_@V?$allocator@X@std@@@visualization_msgs@@@boost@@@_bi@boost@@@_bi@boost@@VSerializedMessage@ros@@@function@detail@boost@@SA?AVSerializedMessage@ros@@AEATfunction_buffer@234@@Z
	?invoke@?$function_obj_invoker0@V?$bind_t@VSerializedMessage@ros@@P6A?AV12@AEBU?$Path_@V?$allocator@X@std@@@nav_msgs@@@ZV?$list1@V?$reference_wrapper@$$CBU?$Path_@V?$allocator@X@std@@@nav_msgs@@@boost@@@_bi@boost@@@_bi@boost@@VSerializedMessage@ros@@@function@detail@boost@@SA?AVSerializedMessage@ros@@AEATfunction_buffer@234@@Z
	?invoke@?$function_obj_invoker0@V?$bind_t@VSerializedMessage@ros@@P6A?AV12@AEBU?$PoseStamped_@V?$allocator@X@std@@@geometry_msgs@@@ZV?$list1@V?$reference_wrapper@$$CBU?$PoseStamped_@V?$allocator@X@std@@@geometry_msgs@@@boost@@@_bi@boost@@@_bi@boost@@VSerializedMessage@ros@@@function@detail@boost@@SA?AVSerializedMessage@ros@@AEATfunction_buffer@234@@Z
	?invoke@?$void_function_obj_invoker1@V?$bind_t@XV?$mf1@XVWaypointGlobalPlanner@waypoint_global_planner@@AEBV?$shared_ptr@$$CBU?$Path_@V?$allocator@X@std@@@nav_msgs@@@boost@@@_mfi@boost@@V?$list2@V?$value@PEAVWaypointGlobalPlanner@waypoint_global_planner@@@_bi@boost@@U?$arg@$00@3@@_bi@3@@_bi@boost@@XAEBV?$shared_ptr@$$CBU?$Path_@V?$allocator@X@std@@@nav_msgs@@@3@@function@detail@boost@@SAXAEATfunction_buffer@234@AEBV?$shared_ptr@$$CBU?$Path_@V?$allocator@X@std@@@nav_msgs@@@4@@Z
	?invoke@?$void_function_obj_invoker1@V?$bind_t@XV?$mf1@XVWaypointGlobalPlanner@waypoint_global_planner@@AEBV?$shared_ptr@$$CBU?$PointStamped_@V?$allocator@X@std@@@geometry_msgs@@@boost@@@_mfi@boost@@V?$list2@V?$value@PEAVWaypointGlobalPlanner@waypoint_global_planner@@@_bi@boost@@U?$arg@$00@3@@_bi@3@@_bi@boost@@XAEBV?$shared_ptr@$$CBU?$PointStamped_@V?$allocator@X@std@@@geometry_msgs@@@3@@function@detail@boost@@SAXAEATfunction_buffer@234@AEBV?$shared_ptr@$$CBU?$PointStamped_@V?$allocator@X@std@@@geometry_msgs@@@4@@Z
	?invoke@?$void_function_obj_invoker1@V?$function@$$A6AXAEBV?$shared_ptr@$$CBU?$Path_@V?$allocator@X@std@@@nav_msgs@@@boost@@@Z@boost@@XV?$shared_ptr@$$CBU?$Path_@V?$allocator@X@std@@@nav_msgs@@@2@@function@detail@boost@@SAXAEATfunction_buffer@234@V?$shared_ptr@$$CBU?$Path_@V?$allocator@X@std@@@nav_msgs@@@4@@Z
	?invoke@?$void_function_obj_invoker1@V?$function@$$A6AXAEBV?$shared_ptr@$$CBU?$PointStamped_@V?$allocator@X@std@@@geometry_msgs@@@boost@@@Z@boost@@XV?$shared_ptr@$$CBU?$PointStamped_@V?$allocator@X@std@@@geometry_msgs@@@2@@function@detail@boost@@SAXAEATfunction_buffer@234@V?$shared_ptr@$$CBU?$PointStamped_@V?$allocator@X@std@@@geometry_msgs@@@4@@Z
	?isConst@?$SubscriptionCallbackHelperT@AEBV?$shared_ptr@$$CBU?$Path_@V?$allocator@X@std@@@nav_msgs@@@boost@@X@ros@@UEAA_NXZ
	?isConst@?$SubscriptionCallbackHelperT@AEBV?$shared_ptr@$$CBU?$PointStamped_@V?$allocator@X@std@@@geometry_msgs@@@boost@@X@ros@@UEAA_NXZ
	?length2@Quaternion@tf@@QEBANXZ
	?length@?$_Narrow_char_traits@DH@std@@SA_KQEBD@Z
	?length@Quaternion@tf@@QEBANXZ
	?lock@?$basic_recursive_mutex_impl@Ubasic_timed_mutex@detail@boost@@@detail@boost@@QEAAXXZ
	?lock@basic_timed_mutex@detail@boost@@QEAAXXZ
	?makePlan@BaseGlobalPlanner@nav_core@@UEAA_NAEBU?$PoseStamped_@V?$allocator@X@std@@@geometry_msgs@@0AEAV?$vector@U?$PoseStamped_@V?$allocator@X@std@@@geometry_msgs@@V?$allocator@U?$PoseStamped_@V?$allocator@X@std@@@geometry_msgs@@@std@@@std@@AEAN@Z
	?makePlan@WaypointGlobalPlanner@waypoint_global_planner@@UEAA_NAEBU?$PoseStamped_@V?$allocator@X@std@@@geometry_msgs@@0AEAV?$vector@U?$PoseStamped_@V?$allocator@X@std@@@geometry_msgs@@V?$allocator@U?$PoseStamped_@V?$allocator@X@std@@@geometry_msgs@@@std@@@std@@@Z
	?manage@?$functor_manager@U?$DefaultMessageCreator@U?$Path_@V?$allocator@X@std@@@nav_msgs@@@ros@@@function@detail@boost@@SAXAEBTfunction_buffer@234@AEAT5234@W4functor_manager_operation_type@234@@Z
	?manage@?$functor_manager@U?$DefaultMessageCreator@U?$PointStamped_@V?$allocator@X@std@@@geometry_msgs@@@ros@@@function@detail@boost@@SAXAEBTfunction_buffer@234@AEAT5234@W4functor_manager_operation_type@234@@Z
	?manage@?$functor_manager@V?$bind_t@VSerializedMessage@ros@@P6A?AV12@AEBU?$MarkerArray_@V?$allocator@X@std@@@visualization_msgs@@@ZV?$list1@V?$reference_wrapper@$$CBU?$MarkerArray_@V?$allocator@X@std@@@visualization_msgs@@@boost@@@_bi@boost@@@_bi@boost@@@function@detail@boost@@SAXAEBTfunction_buffer@234@AEAT5234@W4functor_manager_operation_type@234@@Z
	?manage@?$functor_manager@V?$bind_t@VSerializedMessage@ros@@P6A?AV12@AEBU?$Path_@V?$allocator@X@std@@@nav_msgs@@@ZV?$list1@V?$reference_wrapper@$$CBU?$Path_@V?$allocator@X@std@@@nav_msgs@@@boost@@@_bi@boost@@@_bi@boost@@@function@detail@boost@@SAXAEBTfunction_buffer@234@AEAT5234@W4functor_manager_operation_type@234@@Z
	?manage@?$functor_manager@V?$bind_t@VSerializedMessage@ros@@P6A?AV12@AEBU?$PoseStamped_@V?$allocator@X@std@@@geometry_msgs@@@ZV?$list1@V?$reference_wrapper@$$CBU?$PoseStamped_@V?$allocator@X@std@@@geometry_msgs@@@boost@@@_bi@boost@@@_bi@boost@@@function@detail@boost@@SAXAEBTfunction_buffer@234@AEAT5234@W4functor_manager_operation_type@234@@Z
	?manage@?$functor_manager@V?$bind_t@XV?$mf1@XVWaypointGlobalPlanner@waypoint_global_planner@@AEBV?$shared_ptr@$$CBU?$Path_@V?$allocator@X@std@@@nav_msgs@@@boost@@@_mfi@boost@@V?$list2@V?$value@PEAVWaypointGlobalPlanner@waypoint_global_planner@@@_bi@boost@@U?$arg@$00@3@@_bi@3@@_bi@boost@@@function@detail@boost@@SAXAEBTfunction_buffer@234@AEAT5234@W4functor_manager_operation_type@234@@Z
	?manage@?$functor_manager@V?$bind_t@XV?$mf1@XVWaypointGlobalPlanner@waypoint_global_planner@@AEBV?$shared_ptr@$$CBU?$PointStamped_@V?$allocator@X@std@@@geometry_msgs@@@boost@@@_mfi@boost@@V?$list2@V?$value@PEAVWaypointGlobalPlanner@waypoint_global_planner@@@_bi@boost@@U?$arg@$00@3@@_bi@3@@_bi@boost@@@function@detail@boost@@SAXAEBTfunction_buffer@234@AEAT5234@W4functor_manager_operation_type@234@@Z
	?manage@?$functor_manager@V?$function@$$A6AXAEBV?$shared_ptr@$$CBU?$Path_@V?$allocator@X@std@@@nav_msgs@@@boost@@@Z@boost@@@function@detail@boost@@SAXAEBTfunction_buffer@234@AEAT5234@W4functor_manager_operation_type@234@@Z
	?manage@?$functor_manager@V?$function@$$A6AXAEBV?$shared_ptr@$$CBU?$PointStamped_@V?$allocator@X@std@@@geometry_msgs@@@boost@@@Z@boost@@@function@detail@boost@@SAXAEBTfunction_buffer@234@AEAT5234@W4functor_manager_operation_type@234@@Z
	?manage_small@?$functor_manager_common@U?$DefaultMessageCreator@U?$Path_@V?$allocator@X@std@@@nav_msgs@@@ros@@@function@detail@boost@@SAXAEBTfunction_buffer@234@AEAT5234@W4functor_manager_operation_type@234@@Z
	?manage_small@?$functor_manager_common@U?$DefaultMessageCreator@U?$PointStamped_@V?$allocator@X@std@@@geometry_msgs@@@ros@@@function@detail@boost@@SAXAEBTfunction_buffer@234@AEAT5234@W4functor_manager_operation_type@234@@Z
	?manage_small@?$functor_manager_common@V?$bind_t@VSerializedMessage@ros@@P6A?AV12@AEBU?$MarkerArray_@V?$allocator@X@std@@@visualization_msgs@@@ZV?$list1@V?$reference_wrapper@$$CBU?$MarkerArray_@V?$allocator@X@std@@@visualization_msgs@@@boost@@@_bi@boost@@@_bi@boost@@@function@detail@boost@@SAXAEBTfunction_buffer@234@AEAT5234@W4functor_manager_operation_type@234@@Z
	?manage_small@?$functor_manager_common@V?$bind_t@VSerializedMessage@ros@@P6A?AV12@AEBU?$Path_@V?$allocator@X@std@@@nav_msgs@@@ZV?$list1@V?$reference_wrapper@$$CBU?$Path_@V?$allocator@X@std@@@nav_msgs@@@boost@@@_bi@boost@@@_bi@boost@@@function@detail@boost@@SAXAEBTfunction_buffer@234@AEAT5234@W4functor_manager_operation_type@234@@Z
	?manage_small@?$functor_manager_common@V?$bind_t@VSerializedMessage@ros@@P6A?AV12@AEBU?$PoseStamped_@V?$allocator@X@std@@@geometry_msgs@@@ZV?$list1@V?$reference_wrapper@$$CBU?$PoseStamped_@V?$allocator@X@std@@@geometry_msgs@@@boost@@@_bi@boost@@@_bi@boost@@@function@detail@boost@@SAXAEBTfunction_buffer@234@AEAT5234@W4functor_manager_operation_type@234@@Z
	?manage_small@?$functor_manager_common@V?$bind_t@XV?$mf1@XVWaypointGlobalPlanner@waypoint_global_planner@@AEBV?$shared_ptr@$$CBU?$Path_@V?$allocator@X@std@@@nav_msgs@@@boost@@@_mfi@boost@@V?$list2@V?$value@PEAVWaypointGlobalPlanner@waypoint_global_planner@@@_bi@boost@@U?$arg@$00@3@@_bi@3@@_bi@boost@@@function@detail@boost@@SAXAEBTfunction_buffer@234@AEAT5234@W4functor_manager_operation_type@234@@Z
	?manage_small@?$functor_manager_common@V?$bind_t@XV?$mf1@XVWaypointGlobalPlanner@waypoint_global_planner@@AEBV?$shared_ptr@$$CBU?$PointStamped_@V?$allocator@X@std@@@geometry_msgs@@@boost@@@_mfi@boost@@V?$list2@V?$value@PEAVWaypointGlobalPlanner@waypoint_global_planner@@@_bi@boost@@U?$arg@$00@3@@_bi@3@@_bi@boost@@@function@detail@boost@@SAXAEBTfunction_buffer@234@AEAT5234@W4functor_manager_operation_type@234@@Z
	?manager@?$functor_manager@U?$DefaultMessageCreator@U?$Path_@V?$allocator@X@std@@@nav_msgs@@@ros@@@function@detail@boost@@CAXAEBTfunction_buffer@234@AEAT5234@W4functor_manager_operation_type@234@U?$bool_@$00@mpl@4@@Z
	?manager@?$functor_manager@U?$DefaultMessageCreator@U?$Path_@V?$allocator@X@std@@@nav_msgs@@@ros@@@function@detail@boost@@CAXAEBTfunction_buffer@234@AEAT5234@W4functor_manager_operation_type@234@Ufunction_obj_tag@234@@Z
	?manager@?$functor_manager@U?$DefaultMessageCreator@U?$PointStamped_@V?$allocator@X@std@@@geometry_msgs@@@ros@@@function@detail@boost@@CAXAEBTfunction_buffer@234@AEAT5234@W4functor_manager_operation_type@234@U?$bool_@$00@mpl@4@@Z
	?manager@?$functor_manager@U?$DefaultMessageCreator@U?$PointStamped_@V?$allocator@X@std@@@geometry_msgs@@@ros@@@function@detail@boost@@CAXAEBTfunction_buffer@234@AEAT5234@W4functor_manager_operation_type@234@Ufunction_obj_tag@234@@Z
	?manager@?$functor_manager@V?$bind_t@VSerializedMessage@ros@@P6A?AV12@AEBU?$MarkerArray_@V?$allocator@X@std@@@visualization_msgs@@@ZV?$list1@V?$reference_wrapper@$$CBU?$MarkerArray_@V?$allocator@X@std@@@visualization_msgs@@@boost@@@_bi@boost@@@_bi@boost@@@function@detail@boost@@CAXAEBTfunction_buffer@234@AEAT5234@W4functor_manager_operation_type@234@U?$bool_@$00@mpl@4@@Z
	?manager@?$functor_manager@V?$bind_t@VSerializedMessage@ros@@P6A?AV12@AEBU?$MarkerArray_@V?$allocator@X@std@@@visualization_msgs@@@ZV?$list1@V?$reference_wrapper@$$CBU?$MarkerArray_@V?$allocator@X@std@@@visualization_msgs@@@boost@@@_bi@boost@@@_bi@boost@@@function@detail@boost@@CAXAEBTfunction_buffer@234@AEAT5234@W4functor_manager_operation_type@234@Ufunction_obj_tag@234@@Z
	?manager@?$functor_manager@V?$bind_t@VSerializedMessage@ros@@P6A?AV12@AEBU?$Path_@V?$allocator@X@std@@@nav_msgs@@@ZV?$list1@V?$reference_wrapper@$$CBU?$Path_@V?$allocator@X@std@@@nav_msgs@@@boost@@@_bi@boost@@@_bi@boost@@@function@detail@boost@@CAXAEBTfunction_buffer@234@AEAT5234@W4functor_manager_operation_type@234@U?$bool_@$00@mpl@4@@Z
	?manager@?$functor_manager@V?$bind_t@VSerializedMessage@ros@@P6A?AV12@AEBU?$Path_@V?$allocator@X@std@@@nav_msgs@@@ZV?$list1@V?$reference_wrapper@$$CBU?$Path_@V?$allocator@X@std@@@nav_msgs@@@boost@@@_bi@boost@@@_bi@boost@@@function@detail@boost@@CAXAEBTfunction_buffer@234@AEAT5234@W4functor_manager_operation_type@234@Ufunction_obj_tag@234@@Z
	?manager@?$functor_manager@V?$bind_t@VSerializedMessage@ros@@P6A?AV12@AEBU?$PoseStamped_@V?$allocator@X@std@@@geometry_msgs@@@ZV?$list1@V?$reference_wrapper@$$CBU?$PoseStamped_@V?$allocator@X@std@@@geometry_msgs@@@boost@@@_bi@boost@@@_bi@boost@@@function@detail@boost@@CAXAEBTfunction_buffer@234@AEAT5234@W4functor_manager_operation_type@234@U?$bool_@$00@mpl@4@@Z
	?manager@?$functor_manager@V?$bind_t@VSerializedMessage@ros@@P6A?AV12@AEBU?$PoseStamped_@V?$allocator@X@std@@@geometry_msgs@@@ZV?$list1@V?$reference_wrapper@$$CBU?$PoseStamped_@V?$allocator@X@std@@@geometry_msgs@@@boost@@@_bi@boost@@@_bi@boost@@@function@detail@boost@@CAXAEBTfunction_buffer@234@AEAT5234@W4functor_manager_operation_type@234@Ufunction_obj_tag@234@@Z
	?manager@?$functor_manager@V?$bind_t@XV?$mf1@XVWaypointGlobalPlanner@waypoint_global_planner@@AEBV?$shared_ptr@$$CBU?$Path_@V?$allocator@X@std@@@nav_msgs@@@boost@@@_mfi@boost@@V?$list2@V?$value@PEAVWaypointGlobalPlanner@waypoint_global_planner@@@_bi@boost@@U?$arg@$00@3@@_bi@3@@_bi@boost@@@function@detail@boost@@CAXAEBTfunction_buffer@234@AEAT5234@W4functor_manager_operation_type@234@U?$bool_@$00@mpl@4@@Z
	?manager@?$functor_manager@V?$bind_t@XV?$mf1@XVWaypointGlobalPlanner@waypoint_global_planner@@AEBV?$shared_ptr@$$CBU?$Path_@V?$allocator@X@std@@@nav_msgs@@@boost@@@_mfi@boost@@V?$list2@V?$value@PEAVWaypointGlobalPlanner@waypoint_global_planner@@@_bi@boost@@U?$arg@$00@3@@_bi@3@@_bi@boost@@@function@detail@boost@@CAXAEBTfunction_buffer@234@AEAT5234@W4functor_manager_operation_type@234@Ufunction_obj_tag@234@@Z
	?manager@?$functor_manager@V?$bind_t@XV?$mf1@XVWaypointGlobalPlanner@waypoint_global_planner@@AEBV?$shared_ptr@$$CBU?$PointStamped_@V?$allocator@X@std@@@geometry_msgs@@@boost@@@_mfi@boost@@V?$list2@V?$value@PEAVWaypointGlobalPlanner@waypoint_global_planner@@@_bi@boost@@U?$arg@$00@3@@_bi@3@@_bi@boost@@@function@detail@boost@@CAXAEBTfunction_buffer@234@AEAT5234@W4functor_manager_operation_type@234@U?$bool_@$00@mpl@4@@Z
	?manager@?$functor_manager@V?$bind_t@XV?$mf1@XVWaypointGlobalPlanner@waypoint_global_planner@@AEBV?$shared_ptr@$$CBU?$PointStamped_@V?$allocator@X@std@@@geometry_msgs@@@boost@@@_mfi@boost@@V?$list2@V?$value@PEAVWaypointGlobalPlanner@waypoint_global_planner@@@_bi@boost@@U?$arg@$00@3@@_bi@3@@_bi@boost@@@function@detail@boost@@CAXAEBTfunction_buffer@234@AEAT5234@W4functor_manager_operation_type@234@Ufunction_obj_tag@234@@Z
	?manager@?$functor_manager@V?$function@$$A6AXAEBV?$shared_ptr@$$CBU?$Path_@V?$allocator@X@std@@@nav_msgs@@@boost@@@Z@boost@@@function@detail@boost@@CAXAEBTfunction_buffer@234@AEAT5234@W4functor_manager_operation_type@234@U?$bool_@$0A@@mpl@4@@Z
	?manager@?$functor_manager@V?$function@$$A6AXAEBV?$shared_ptr@$$CBU?$Path_@V?$allocator@X@std@@@nav_msgs@@@boost@@@Z@boost@@@function@detail@boost@@CAXAEBTfunction_buffer@234@AEAT5234@W4functor_manager_operation_type@234@Ufunction_obj_tag@234@@Z
	?manager@?$functor_manager@V?$function@$$A6AXAEBV?$shared_ptr@$$CBU?$PointStamped_@V?$allocator@X@std@@@geometry_msgs@@@boost@@@Z@boost@@@function@detail@boost@@CAXAEBTfunction_buffer@234@AEAT5234@W4functor_manager_operation_type@234@U?$bool_@$0A@@mpl@4@@Z
	?manager@?$functor_manager@V?$function@$$A6AXAEBV?$shared_ptr@$$CBU?$PointStamped_@V?$allocator@X@std@@@geometry_msgs@@@boost@@@Z@boost@@@function@detail@boost@@CAXAEBTfunction_buffer@234@AEAT5234@W4functor_manager_operation_type@234@Ufunction_obj_tag@234@@Z
	?mark_waiting_and_try_lock@basic_timed_mutex@detail@boost@@QEAAXAEAJ@Z
	?max@?$numeric_limits@_J@std@@SA_JXZ
	?max_size@?$_Default_allocator_traits@V?$allocator@D@std@@@std@@SA_KAEBV?$allocator@D@2@@Z
	?max_size@?$_Default_allocator_traits@V?$allocator@U?$ColorRGBA_@V?$allocator@X@std@@@std_msgs@@@std@@@std@@SA_KAEBV?$allocator@U?$ColorRGBA_@V?$allocator@X@std@@@std_msgs@@@2@@Z
	?max_size@?$_Default_allocator_traits@V?$allocator@U?$Marker_@V?$allocator@X@std@@@visualization_msgs@@@std@@@std@@SA_KAEBV?$allocator@U?$Marker_@V?$allocator@X@std@@@visualization_msgs@@@2@@Z
	?max_size@?$_Default_allocator_traits@V?$allocator@U?$Point_@V?$allocator@X@std@@@geometry_msgs@@@std@@@std@@SA_KAEBV?$allocator@U?$Point_@V?$allocator@X@std@@@geometry_msgs@@@2@@Z
	?max_size@?$_Default_allocator_traits@V?$allocator@U?$PoseStamped_@V?$allocator@X@std@@@geometry_msgs@@@std@@@std@@SA_KAEBV?$allocator@U?$PoseStamped_@V?$allocator@X@std@@@geometry_msgs@@@2@@Z
	?max_size@?$_Default_allocator_traits@V?$allocator@U?$_Tree_node@U?$pair@$$CBV?$basic_string@DU?$char_traits@D@std@@V?$allocator@D@2@@std@@PEAVAbstractMetaObjectBase@impl@class_loader@@@std@@PEAX@std@@@std@@@std@@SA_KAEBV?$allocator@U?$_Tree_node@U?$pair@$$CBV?$basic_string@DU?$char_traits@D@std@@V?$allocator@D@2@@std@@PEAVAbstractMetaObjectBase@impl@class_loader@@@std@@PEAX@std@@@2@@Z
	?max_size@?$_Tree@V?$_Tmap_traits@V?$basic_string@DU?$char_traits@D@std@@V?$allocator@D@2@@std@@PEAVAbstractMetaObjectBase@impl@class_loader@@U?$less@V?$basic_string@DU?$char_traits@D@std@@V?$allocator@D@2@@std@@@2@V?$allocator@U?$pair@$$CBV?$basic_string@DU?$char_traits@D@std@@V?$allocator@D@2@@std@@PEAVAbstractMetaObjectBase@impl@class_loader@@@std@@@2@$0A@@std@@@std@@QEBA_KXZ
	?max_size@?$basic_string@DU?$char_traits@D@std@@V?$allocator@D@2@@std@@QEBA_KXZ
	?max_size@?$vector@U?$ColorRGBA_@V?$allocator@X@std@@@std_msgs@@V?$allocator@U?$ColorRGBA_@V?$allocator@X@std@@@std_msgs@@@std@@@std@@QEBA_KXZ
	?max_size@?$vector@U?$Marker_@V?$allocator@X@std@@@visualization_msgs@@V?$allocator@U?$Marker_@V?$allocator@X@std@@@visualization_msgs@@@std@@@std@@QEBA_KXZ
	?max_size@?$vector@U?$Point_@V?$allocator@X@std@@@geometry_msgs@@V?$allocator@U?$Point_@V?$allocator@X@std@@@geometry_msgs@@@std@@@std@@QEBA_KXZ
	?max_size@?$vector@U?$PoseStamped_@V?$allocator@X@std@@@geometry_msgs@@V?$allocator@U?$PoseStamped_@V?$allocator@X@std@@@geometry_msgs@@@std@@@std@@QEBA_KXZ
	?message@error_code@system@boost@@QEBA?AV?$basic_string@DU?$char_traits@D@std@@V?$allocator@D@2@@std@@XZ
	?move@?$_Char_traits@DH@std@@SAPEADQEADQEBD_K@Z
	?move_assign@?$function0@V?$shared_ptr@U?$Path_@V?$allocator@X@std@@@nav_msgs@@@boost@@@boost@@AEAAXAEAV12@@Z
	?move_assign@?$function0@V?$shared_ptr@U?$PointStamped_@V?$allocator@X@std@@@geometry_msgs@@@boost@@@boost@@AEAAXAEAV12@@Z
	?move_assign@?$function1@XAEBVSingleSubscriberPublisher@ros@@@boost@@AEAAXAEAV12@@Z
	?name@type_info@@QEBAPEBDXZ
	?nonConstWillCopy@?$MessageEvent@$$CBX@ros@@QEBA_NXZ
	?normalize@Quaternion@tf@@QEAAAEAV12@XZ
	?notify@?$PreDeserialize@U?$Path_@V?$allocator@X@std@@@nav_msgs@@@serialization@ros@@SAXAEBU?$PreDeserializeParams@U?$Path_@V?$allocator@X@std@@@nav_msgs@@@23@@Z
	?notify@?$PreDeserialize@U?$PointStamped_@V?$allocator@X@std@@@geometry_msgs@@@serialization@ros@@SAXAEBU?$PreDeserializeParams@U?$PointStamped_@V?$allocator@X@std@@@geometry_msgs@@@23@@Z
	?operator_fn@?$sp_ms_deleter@U?$Path_@V?$allocator@X@std@@@nav_msgs@@@detail@boost@@SAXPEAU?$Path_@V?$allocator@X@std@@@nav_msgs@@@Z
	?operator_fn@?$sp_ms_deleter@U?$PointStamped_@V?$allocator@X@std@@@geometry_msgs@@@detail@boost@@SAXPEAU?$PointStamped_@V?$allocator@X@std@@@geometry_msgs@@@Z
	?operator_fn@?$sp_ms_deleter@V?$SubscriptionCallbackHelperT@AEBV?$shared_ptr@$$CBU?$Path_@V?$allocator@X@std@@@nav_msgs@@@boost@@X@ros@@@detail@boost@@SAXPEAV?$SubscriptionCallbackHelperT@AEBV?$shared_ptr@$$CBU?$Path_@V?$allocator@X@std@@@nav_msgs@@@boost@@X@ros@@@Z
	?operator_fn@?$sp_ms_deleter@V?$SubscriptionCallbackHelperT@AEBV?$shared_ptr@$$CBU?$PointStamped_@V?$allocator@X@std@@@geometry_msgs@@@boost@@X@ros@@@detail@boost@@SAXPEAV?$SubscriptionCallbackHelperT@AEBV?$shared_ptr@$$CBU?$PointStamped_@V?$allocator@X@std@@@geometry_msgs@@@boost@@X@ros@@@Z
	?owns_lock@?$unique_lock@Vmutex@boost@@@boost@@QEBA_NXZ
	?push_back@?$vector@U?$Marker_@V?$allocator@X@std@@@visualization_msgs@@V?$allocator@U?$Marker_@V?$allocator@X@std@@@visualization_msgs@@@std@@@std@@QEAAXAEBU?$Marker_@V?$allocator@X@std@@@visualization_msgs@@@Z
	?push_back@?$vector@U?$PoseStamped_@V?$allocator@X@std@@@geometry_msgs@@V?$allocator@U?$PoseStamped_@V?$allocator@X@std@@@geometry_msgs@@@std@@@std@@QEAAX$$QEAU?$PoseStamped_@V?$allocator@X@std@@@geometry_msgs@@@Z
	?push_back@?$vector@U?$PoseStamped_@V?$allocator@X@std@@@geometry_msgs@@V?$allocator@U?$PoseStamped_@V?$allocator@X@std@@@geometry_msgs@@@std@@@std@@QEAAXAEBU?$PoseStamped_@V?$allocator@X@std@@@geometry_msgs@@@Z
	?release@?$refcount_ptr@Uerror_info_container@exception_detail@boost@@@exception_detail@boost@@AEAAXXZ
	?release@sp_counted_base@detail@boost@@QEAAXXZ
	?resize@?$vector@U?$PoseStamped_@V?$allocator@X@std@@@geometry_msgs@@V?$allocator@U?$PoseStamped_@V?$allocator@X@std@@@geometry_msgs@@@std@@@std@@QEAAX_K@Z
	?rethrow@?$clone_impl@U?$error_info_injector@Vbad_function_call@boost@@@exception_detail@boost@@@exception_detail@boost@@$0PPPPPPPM@A@EBAXXZ
	?rethrow@?$clone_impl@U?$error_info_injector@Vbad_function_call@boost@@@exception_detail@boost@@@exception_detail@boost@@EEBAXXZ
	?rethrow@?$clone_impl@U?$error_info_injector@Vthread_resource_error@boost@@@exception_detail@boost@@@exception_detail@boost@@$0PPPPPPPM@A@EBAXXZ
	?rethrow@?$clone_impl@U?$error_info_injector@Vthread_resource_error@boost@@@exception_detail@boost@@@exception_detail@boost@@EEBAXXZ
	?rethrow@?$clone_impl@Ubad_alloc_@exception_detail@boost@@@exception_detail@boost@@$0PPPPPPPM@A@EBAXXZ
	?rethrow@?$clone_impl@Ubad_alloc_@exception_detail@boost@@@exception_detail@boost@@EEBAXXZ
	?rethrow@?$clone_impl@Ubad_exception_@exception_detail@boost@@@exception_detail@boost@@$0PPPPPPPM@A@EBAXXZ
	?rethrow@?$clone_impl@Ubad_exception_@exception_detail@boost@@@exception_detail@boost@@EEBAXXZ
	?select_on_container_copy_construction@?$_Default_allocator_traits@V?$allocator@D@std@@@std@@SA?AV?$allocator@D@2@AEBV32@@Z
	?select_on_container_copy_construction@?$_Default_allocator_traits@V?$allocator@U?$ColorRGBA_@V?$allocator@X@std@@@std_msgs@@@std@@@std@@SA?AV?$allocator@U?$ColorRGBA_@V?$allocator@X@std@@@std_msgs@@@2@AEBV32@@Z
	?select_on_container_copy_construction@?$_Default_allocator_traits@V?$allocator@U?$Point_@V?$allocator@X@std@@@geometry_msgs@@@std@@@std@@SA?AV?$allocator@U?$Point_@V?$allocator@X@std@@@geometry_msgs@@@2@AEBV32@@Z
	?serializedLength@?$Serializer@E@serialization@ros@@SAIAEBE@Z
	?serializedLength@?$Serializer@H@serialization@ros@@SAIAEBH@Z
	?serializedLength@?$Serializer@I@serialization@ros@@SAIAEBI@Z
	?serializedLength@?$Serializer@M@serialization@ros@@SAIAEBM@Z
	?serializedLength@?$Serializer@N@serialization@ros@@SAIAEBN@Z
	?serializedLength@?$Serializer@V?$basic_string@DU?$char_traits@D@std@@V?$allocator@D@2@@std@@@serialization@ros@@SAIAEBV?$basic_string@DU?$char_traits@D@std@@V?$allocator@D@2@@std@@@Z
	?serializedLength@?$Serializer@VDuration@ros@@@serialization@ros@@SAIAEBVDuration@3@@Z
	?serializedLength@?$Serializer@VTime@ros@@@serialization@ros@@SAIAEBVTime@3@@Z
	?serializedLength@?$VectorSerializer@U?$ColorRGBA_@V?$allocator@X@std@@@std_msgs@@V?$allocator@U?$ColorRGBA_@V?$allocator@X@std@@@std_msgs@@@std@@X@serialization@ros@@SAIAEBV?$vector@U?$ColorRGBA_@V?$allocator@X@std@@@std_msgs@@V?$allocator@U?$ColorRGBA_@V?$allocator@X@std@@@std_msgs@@@std@@@std@@@Z
	?serializedLength@?$VectorSerializer@U?$Marker_@V?$allocator@X@std@@@visualization_msgs@@V?$allocator@U?$Marker_@V?$allocator@X@std@@@visualization_msgs@@@std@@X@serialization@ros@@SAIAEBV?$vector@U?$Marker_@V?$allocator@X@std@@@visualization_msgs@@V?$allocator@U?$Marker_@V?$allocator@X@std@@@visualization_msgs@@@std@@@std@@@Z
	?serializedLength@?$VectorSerializer@U?$Point_@V?$allocator@X@std@@@geometry_msgs@@V?$allocator@U?$Point_@V?$allocator@X@std@@@geometry_msgs@@@std@@X@serialization@ros@@SAIAEBV?$vector@U?$Point_@V?$allocator@X@std@@@geometry_msgs@@V?$allocator@U?$Point_@V?$allocator@X@std@@@geometry_msgs@@@std@@@std@@@Z
	?serializedLength@?$VectorSerializer@U?$PoseStamped_@V?$allocator@X@std@@@geometry_msgs@@V?$allocator@U?$PoseStamped_@V?$allocator@X@std@@@geometry_msgs@@@std@@X@serialization@ros@@SAIAEBV?$vector@U?$PoseStamped_@V?$allocator@X@std@@@geometry_msgs@@V?$allocator@U?$PoseStamped_@V?$allocator@X@std@@@geometry_msgs@@@std@@@std@@@Z
	?setRPY@Quaternion@tf@@QEAAXAEBN00@Z
	?setValue@QuadWord@tf@@QEAAXAEBN000@Z
	?set_initialized@?$sp_ms_deleter@U?$Path_@V?$allocator@X@std@@@nav_msgs@@@detail@boost@@QEAAXXZ
	?set_initialized@?$sp_ms_deleter@U?$PointStamped_@V?$allocator@X@std@@@geometry_msgs@@@detail@boost@@QEAAXXZ
	?set_initialized@?$sp_ms_deleter@V?$SubscriptionCallbackHelperT@AEBV?$shared_ptr@$$CBU?$Path_@V?$allocator@X@std@@@nav_msgs@@@boost@@X@ros@@@detail@boost@@QEAAXXZ
	?set_initialized@?$sp_ms_deleter@V?$SubscriptionCallbackHelperT@AEBV?$shared_ptr@$$CBU?$PointStamped_@V?$allocator@X@std@@@geometry_msgs@@@boost@@X@ros@@@detail@boost@@QEAAXXZ
	?size@?$basic_string@DU?$char_traits@D@std@@V?$allocator@D@2@@std@@QEBA_KXZ
	?size@?$vector@U?$ColorRGBA_@V?$allocator@X@std@@@std_msgs@@V?$allocator@U?$ColorRGBA_@V?$allocator@X@std@@@std_msgs@@@std@@@std@@QEBA_KXZ
	?size@?$vector@U?$Marker_@V?$allocator@X@std@@@visualization_msgs@@V?$allocator@U?$Marker_@V?$allocator@X@std@@@visualization_msgs@@@std@@@std@@QEBA_KXZ
	?size@?$vector@U?$Point_@V?$allocator@X@std@@@geometry_msgs@@V?$allocator@U?$Point_@V?$allocator@X@std@@@geometry_msgs@@@std@@@std@@QEBA_KXZ
	?size@?$vector@U?$PoseStamped_@V?$allocator@X@std@@@geometry_msgs@@V?$allocator@U?$PoseStamped_@V?$allocator@X@std@@@geometry_msgs@@@std@@@std@@QEBA_KXZ
	?sp_enable_shared_from_this@detail@boost@@YAXZZ
	?swap@?$function0@V?$shared_ptr@U?$Path_@V?$allocator@X@std@@@nav_msgs@@@boost@@@boost@@QEAAXAEAV12@@Z
	?swap@?$function0@V?$shared_ptr@U?$PointStamped_@V?$allocator@X@std@@@geometry_msgs@@@boost@@@boost@@QEAAXAEAV12@@Z
	?swap@?$function1@XAEBVSingleSubscriberPublisher@ros@@@boost@@QEAAXAEAV12@@Z
	?swap@?$shared_array@E@boost@@QEAAXAEAV12@@Z
	?swap@?$shared_ptr@$$CBU?$Path_@V?$allocator@X@std@@@nav_msgs@@@boost@@QEAAXAEAV12@@Z
	?swap@?$shared_ptr@$$CBU?$PointStamped_@V?$allocator@X@std@@@geometry_msgs@@@boost@@QEAAXAEAV12@@Z
	?swap@?$shared_ptr@U?$Path_@V?$allocator@X@std@@@nav_msgs@@@boost@@QEAAXAEAV12@@Z
	?swap@?$shared_ptr@U?$PointStamped_@V?$allocator@X@std@@@geometry_msgs@@@boost@@QEAAXAEAV12@@Z
	?swap@?$shared_ptr@V?$map@V?$basic_string@DU?$char_traits@D@std@@V?$allocator@D@2@@std@@V12@U?$less@V?$basic_string@DU?$char_traits@D@std@@V?$allocator@D@2@@std@@@2@V?$allocator@U?$pair@$$CBV?$basic_string@DU?$char_traits@D@std@@V?$allocator@D@2@@std@@V12@@std@@@2@@std@@@boost@@QEAAXAEAV12@@Z
	?swap@?$shared_ptr@VSubscriptionCallbackHelper@ros@@@boost@@QEAAXAEAV12@@Z
	?swap@shared_count@detail@boost@@QEAAXAEAV123@@Z
	?tfCos@@YANN@Z
	?tfSin@@YANN@Z
	?tfSqrt@@YANN@Z
	?throw_exception_assert_compatibility@boost@@YAXAEBVexception@std@@@Z
	?try_lock@basic_timed_mutex@detail@boost@@QEAA_NXZ
	?try_recursive_lock@?$basic_recursive_mutex_impl@Ubasic_timed_mutex@detail@boost@@@detail@boost@@AEAA_NJ@Z
	?type_info@stl_type_index@typeindex@boost@@QEBAAEBV0@XZ
	?unlock@?$basic_recursive_mutex_impl@Ubasic_timed_mutex@detail@boost@@@detail@boost@@QEAAXXZ
	?unlock@basic_timed_mutex@detail@boost@@QEAAXXZ
	?unwrap@?$unwrapper@P6A?AVSerializedMessage@ros@@AEBU?$MarkerArray_@V?$allocator@X@std@@@visualization_msgs@@@Z@_bi@boost@@SAAEAP6A?AVSerializedMessage@ros@@AEBU?$MarkerArray_@V?$allocator@X@std@@@visualization_msgs@@@ZAEAP6A?AV45@0@ZJ@Z
	?unwrap@?$unwrapper@P6A?AVSerializedMessage@ros@@AEBU?$Path_@V?$allocator@X@std@@@nav_msgs@@@Z@_bi@boost@@SAAEAP6A?AVSerializedMessage@ros@@AEBU?$Path_@V?$allocator@X@std@@@nav_msgs@@@ZAEAP6A?AV45@0@ZJ@Z
	?unwrap@?$unwrapper@P6A?AVSerializedMessage@ros@@AEBU?$PoseStamped_@V?$allocator@X@std@@@geometry_msgs@@@Z@_bi@boost@@SAAEAP6A?AVSerializedMessage@ros@@AEBU?$PoseStamped_@V?$allocator@X@std@@@geometry_msgs@@@ZAEAP6A?AV45@0@ZJ@Z
	?unwrap@?$unwrapper@V?$mf1@XVWaypointGlobalPlanner@waypoint_global_planner@@AEBV?$shared_ptr@$$CBU?$Path_@V?$allocator@X@std@@@nav_msgs@@@boost@@@_mfi@boost@@@_bi@boost@@SAAEAV?$mf1@XVWaypointGlobalPlanner@waypoint_global_planner@@AEBV?$shared_ptr@$$CBU?$Path_@V?$allocator@X@std@@@nav_msgs@@@boost@@@_mfi@3@AEAV453@J@Z
	?unwrap@?$unwrapper@V?$mf1@XVWaypointGlobalPlanner@waypoint_global_planner@@AEBV?$shared_ptr@$$CBU?$PointStamped_@V?$allocator@X@std@@@geometry_msgs@@@boost@@@_mfi@boost@@@_bi@boost@@SAAEAV?$mf1@XVWaypointGlobalPlanner@waypoint_global_planner@@AEBV?$shared_ptr@$$CBU?$PointStamped_@V?$allocator@X@std@@@geometry_msgs@@@boost@@@_mfi@3@AEAV453@J@Z
	?value@?$DataType@U?$MarkerArray_@V?$allocator@X@std@@@visualization_msgs@@@message_traits@ros@@SAPEBDXZ
	?value@?$DataType@U?$Path_@V?$allocator@X@std@@@nav_msgs@@@message_traits@ros@@SAPEBDXZ
	?value@?$DataType@U?$PointStamped_@V?$allocator@X@std@@@geometry_msgs@@@message_traits@ros@@SAPEBDXZ
	?value@?$DataType@U?$PoseStamped_@V?$allocator@X@std@@@geometry_msgs@@@message_traits@ros@@SAPEBDXZ
	?value@?$Definition@U?$MarkerArray_@V?$allocator@X@std@@@visualization_msgs@@@message_traits@ros@@SAPEBDXZ
	?value@?$Definition@U?$Path_@V?$allocator@X@std@@@nav_msgs@@@message_traits@ros@@SAPEBDXZ
	?value@?$Definition@U?$PoseStamped_@V?$allocator@X@std@@@geometry_msgs@@@message_traits@ros@@SAPEBDXZ
	?value@?$MD5Sum@U?$MarkerArray_@V?$allocator@X@std@@@visualization_msgs@@@message_traits@ros@@SAPEBDXZ
	?value@?$MD5Sum@U?$Path_@V?$allocator@X@std@@@nav_msgs@@@message_traits@ros@@SAPEBDXZ
	?value@?$MD5Sum@U?$PointStamped_@V?$allocator@X@std@@@geometry_msgs@@@message_traits@ros@@SAPEBDXZ
	?value@?$MD5Sum@U?$PoseStamped_@V?$allocator@X@std@@@geometry_msgs@@@message_traits@ros@@SAPEBDXZ
	?value@error_code@system@boost@@QEBAHXZ
	?w@QuadWord@tf@@QEBAAEBNXZ
	?waypointCallback@WaypointGlobalPlanner@waypoint_global_planner@@QEAAXAEBV?$shared_ptr@$$CBU?$PointStamped_@V?$allocator@X@std@@@geometry_msgs@@@boost@@@Z
	?weak_release@sp_counted_base@detail@boost@@QEAAXXZ
	?what@exception@std@@UEBAPEBDXZ
	?what@system_error@system@boost@@UEBAPEBDXZ
	?x@QuadWord@tf@@QEBAAEBNXZ
	?y@QuadWord@tf@@QEBAAEBNXZ
	?z@QuadWord@tf@@QEBAAEBNXZ
	_Check_memory_order
	wmemcpy
