EXPORTS 
	?$TSS0@?1???$get_static_exception_object@Ubad_alloc_@exception_detail@boost@@@exception_detail@boost@@YA?AVexception_ptr@2@XZ@4HA 	 DATA
	?$TSS0@?1???$get_static_exception_object@Ubad_exception_@exception_detail@boost@@@exception_detail@boost@@YA?AVexception_ptr@2@XZ@4HA 	 DATA
	??_R0?AU?$error_info_injector@Vthread_resource_error@boost@@@exception_detail@boost@@@8 	 DATA
	??_R0?AUbad_alloc_@exception_detail@boost@@@8 	 DATA
	??_R0?AUbad_exception_@exception_detail@boost@@@8 	 DATA
	??_R0?AV?$AbstractMetaObject@VBaseGlobalPlanner@nav_core@@@impl@class_loader@@@8 	 DATA
	??_R0?AV?$MetaObject@VCarrotPlanner@carrot_planner@@VBaseGlobalPlanner@nav_core@@@impl@class_loader@@@8 	 DATA
	??_R0?AV?$clone_impl@U?$error_info_injector@Vthread_resource_error@boost@@@exception_detail@boost@@@exception_detail@boost@@@8 	 DATA
	??_R0?AV?$clone_impl@Ubad_alloc_@exception_detail@boost@@@exception_detail@boost@@@8 	 DATA
	??_R0?AV?$clone_impl@Ubad_exception_@exception_detail@boost@@@exception_detail@boost@@@8 	 DATA
	??_R0?AV?$sp_counted_impl_p@V?$clone_impl@Ubad_alloc_@exception_detail@boost@@@exception_detail@boost@@@detail@boost@@@8 	 DATA
	??_R0?AV?$sp_counted_impl_p@V?$clone_impl@Ubad_exception_@exception_detail@boost@@@exception_detail@boost@@@detail@boost@@@8 	 DATA
	??_R0?AVAbstractMetaObjectBase@impl@class_loader@@@8 	 DATA
	??_R0?AVBaseGlobalPlanner@nav_core@@@8 	 DATA
	??_R0?AVCarrotPlanner@carrot_planner@@@8 	 DATA
	??_R0?AVbad_alloc@std@@@8 	 DATA
	??_R0?AVbad_array_new_length@std@@@8 	 DATA
	??_R0?AVbad_exception@std@@@8 	 DATA
	??_R0?AVclone_base@exception_detail@boost@@@8 	 DATA
	??_R0?AVexception@boost@@@8 	 DATA
	??_R0?AVexception@std@@@8 	 DATA
	??_R0?AVruntime_error@std@@@8 	 DATA
	??_R0?AVsp_counted_base@detail@boost@@@8 	 DATA
	??_R0?AVsystem_error@system@boost@@@8 	 DATA
	??_R0?AVthread_exception@boost@@@8 	 DATA
	??_R0?AVthread_resource_error@boost@@@8 	 DATA
	?e@?$exception_ptr_static_exception_object@Ubad_alloc_@exception_detail@boost@@@exception_detail@boost@@2Vexception_ptr@3@B 	 DATA
	?e@?$exception_ptr_static_exception_object@Ubad_exception_@exception_detail@boost@@@exception_detail@boost@@2Vexception_ptr@3@B 	 DATA
	?ep@?1???$get_static_exception_object@Ubad_alloc_@exception_detail@boost@@@exception_detail@boost@@YA?AVexception_ptr@2@XZ@4V32@A 	 DATA
	?ep@?1???$get_static_exception_object@Ubad_exception_@exception_detail@boost@@@exception_detail@boost@@YA?AVexception_ptr@2@XZ@4V32@A 	 DATA
	??$?0$$V@?$_Compressed_pair@V?$allocator@D@std@@V?$_String_val@U?$_Simple_types@D@std@@@2@$00@std@@QEAA@U_Zero_then_variadic_args_t@1@@Z
	??$?0$$V@?$_Compressed_pair@V?$allocator@H@std@@V?$_Vector_val@U?$_Simple_types@H@std@@@2@$00@std@@QEAA@U_Zero_then_variadic_args_t@1@@Z
	??$?0$$V@?$_Compressed_pair@V?$allocator@PEAUNode@carrot_planner@@@std@@V?$_Vector_val@U?$_Simple_types@PEAUNode@carrot_planner@@@std@@@2@$00@std@@QEAA@U_Zero_then_variadic_args_t@1@@Z
	??$?0$$V@?$_Compressed_pair@V?$allocator@U?$Point_@V?$allocator@X@std@@@geometry_msgs@@@std@@V?$_Vector_val@U?$_Simple_types@U?$Point_@V?$allocator@X@std@@@geometry_msgs@@@std@@@2@$00@std@@QEAA@U_Zero_then_variadic_args_t@1@@Z
	??$?0$$V@?$_Compressed_pair@V?$allocator@U?$_Tree_node@U?$pair@$$CBV?$basic_string@DU?$char_traits@D@std@@V?$allocator@D@2@@std@@V12@@std@@PEAX@std@@@std@@V?$_Tree_val@U?$_Tree_simple_types@U?$pair@$$CBV?$basic_string@DU?$char_traits@D@std@@V?$allocator@D@2@@std@@V12@@std@@@std@@@2@$00@std@@QEAA@U_Zero_then_variadic_args_t@1@@Z
	??$?0AEAPEAU?$_List_node@U?$pair@$$CBHPEAUNode@carrot_planner@@@std@@PEAX@std@@_N$0A@@?$pair@PEAU?$_List_node@U?$pair@$$CBHPEAUNode@carrot_planner@@@std@@PEAX@std@@_N@std@@QEAA@AEAPEAU?$_List_node@U?$pair@$$CBHPEAUNode@carrot_planner@@@std@@PEAX@1@$$QEA_N@Z
	??$?0AEBH$$Z$$V@?$pair@$$CBHPEAUNode@carrot_planner@@@std@@QEAA@Upiecewise_construct_t@1@V?$tuple@AEBH@1@V?$tuple@$$V@1@@Z
	??$?0AEBH$0A@@?$tuple@AEBH@std@@QEAA@AEBH@Z
	??$?0AEBH@?$_List_node_emplace_op2@V?$allocator@U?$_List_node@HPEAX@std@@@std@@@std@@QEAA@AEAV?$allocator@U?$_List_node@HPEAX@std@@@1@AEBH@Z
	??$?0AEBH@?$_Tuple_val@AEBH@std@@QEAA@AEBH@Z
	??$?0AEBQEAU?$_Tree_node@U?$pair@$$CBV?$basic_string@DU?$char_traits@D@std@@V?$allocator@D@2@@std@@PEAVAbstractMetaObjectBase@impl@class_loader@@@std@@PEAX@std@@_N$0A@@?$pair@PEAU?$_Tree_node@U?$pair@$$CBV?$basic_string@DU?$char_traits@D@std@@V?$allocator@D@2@@std@@PEAVAbstractMetaObjectBase@impl@class_loader@@@std@@PEAX@std@@_N@std@@QEAA@AEBQEAU?$_Tree_node@U?$pair@$$CBV?$basic_string@DU?$char_traits@D@std@@V?$allocator@D@2@@std@@PEAVAbstractMetaObjectBase@impl@class_loader@@@std@@PEAX@1@$$QEA_N@Z
	??$?0AEBU?$less@V?$basic_string@DU?$char_traits@D@std@@V?$allocator@D@2@@std@@@std@@U_Zero_then_variadic_args_t@1@@?$_Compressed_pair@U?$less@V?$basic_string@DU?$char_traits@D@std@@V?$allocator@D@2@@std@@@std@@V?$_Compressed_pair@V?$allocator@U?$_Tree_node@U?$pair@$$CBV?$basic_string@DU?$char_traits@D@std@@V?$allocator@D@2@@std@@V12@@std@@PEAX@std@@@std@@V?$_Tree_val@U?$_Tree_simple_types@U?$pair@$$CBV?$basic_string@DU?$char_traits@D@std@@V?$allocator@D@2@@std@@V12@@std@@@std@@@2@$00@2@$00@std@@QEAA@U_One_then_variadic_args_t@1@AEBU?$less@V?$basic_string@DU?$char_traits@D@std@@V?$allocator@D@2@@std@@@1@$$QEAU_Zero_then_variadic_args_t@1@@Z
	??$?0AEBUpiecewise_construct_t@std@@V?$tuple@AEBH@1@V?$tuple@$$V@1@@?$_List_node_emplace_op2@V?$allocator@U?$_List_node@U?$pair@$$CBHPEAUNode@carrot_planner@@@std@@PEAX@std@@@std@@@std@@QEAA@AEAV?$allocator@U?$_List_node@U?$pair@$$CBHPEAUNode@carrot_planner@@@std@@PEAX@std@@@1@AEBUpiecewise_construct_t@1@$$QEAV?$tuple@AEBH@1@$$QEAV?$tuple@$$V@1@@Z
	??$?0AEBUpiecewise_construct_t@std@@V?$tuple@AEBV?$basic_string@DU?$char_traits@D@std@@V?$allocator@D@2@@std@@@1@V?$tuple@$$V@1@@?$_Tree_temp_node@V?$allocator@U?$_Tree_node@U?$pair@$$CBV?$basic_string@DU?$char_traits@D@std@@V?$allocator@D@2@@std@@PEAVAbstractMetaObjectBase@impl@class_loader@@@std@@PEAX@std@@@std@@@std@@QEAA@AEAV?$allocator@U?$_Tree_node@U?$pair@$$CBV?$basic_string@DU?$char_traits@D@std@@V?$allocator@D@2@@std@@PEAVAbstractMetaObjectBase@impl@class_loader@@@std@@PEAX@std@@@1@PEAU?$_Tree_node@U?$pair@$$CBV?$basic_string@DU?$char_traits@D@std@@V?$allocator@D@2@@std@@PEAVAbstractMetaObjectBase@impl@class_loader@@@std@@PEAX@1@AEBUpiecewise_construct_t@1@$$QEAV?$tuple@AEBV?$basic_string@DU?$char_traits@D@std@@V?$allocator@D@2@@std@@@1@$$QEAV?$tuple@$$V@1@@Z
	??$?0AEBV?$allocator@H@std@@$$V@?$_Compressed_pair@V?$allocator@U?$_List_node@HPEAX@std@@@std@@V?$_List_val@U?$_List_simple_types@H@std@@@2@$00@std@@QEAA@U_One_then_variadic_args_t@1@AEBV?$allocator@H@1@@Z
	??$?0AEBV?$allocator@H@std@@$$V@?$_Compressed_pair@V?$allocator@V?$_List_unchecked_const_iterator@V?$_List_val@U?$_List_simple_types@H@std@@@std@@U_Iterator_base0@2@@std@@@std@@V?$_Vector_val@U?$_Simple_types@V?$_List_unchecked_const_iterator@V?$_List_val@U?$_List_simple_types@H@std@@@std@@U_Iterator_base0@2@@std@@@std@@@2@$00@std@@QEAA@U_One_then_variadic_args_t@1@AEBV?$allocator@H@1@@Z
	??$?0AEBV?$allocator@H@std@@$0A@@?$_Hash_vec@V?$allocator@V?$_List_unchecked_const_iterator@V?$_List_val@U?$_List_simple_types@H@std@@@std@@U_Iterator_base0@2@@std@@@std@@@std@@QEAA@AEBV?$allocator@H@1@@Z
	??$?0AEBV?$allocator@U?$pair@$$CBHPEAUNode@carrot_planner@@@std@@@std@@$$V@?$_Compressed_pair@V?$allocator@U?$_List_node@U?$pair@$$CBHPEAUNode@carrot_planner@@@std@@PEAX@std@@@std@@V?$_List_val@U?$_List_simple_types@U?$pair@$$CBHPEAUNode@carrot_planner@@@std@@@std@@@2@$00@std@@QEAA@U_One_then_variadic_args_t@1@AEBV?$allocator@U?$pair@$$CBHPEAUNode@carrot_planner@@@std@@@1@@Z
	??$?0AEBV?$allocator@U?$pair@$$CBHPEAUNode@carrot_planner@@@std@@@std@@$$V@?$_Compressed_pair@V?$allocator@V?$_List_unchecked_iterator@V?$_List_val@U?$_List_simple_types@U?$pair@$$CBHPEAUNode@carrot_planner@@@std@@@std@@@std@@@std@@@std@@V?$_Vector_val@U?$_Simple_types@V?$_List_unchecked_iterator@V?$_List_val@U?$_List_simple_types@U?$pair@$$CBHPEAUNode@carrot_planner@@@std@@@std@@@std@@@std@@@std@@@2@$00@std@@QEAA@U_One_then_variadic_args_t@1@AEBV?$allocator@U?$pair@$$CBHPEAUNode@carrot_planner@@@std@@@1@@Z
	??$?0AEBV?$allocator@U?$pair@$$CBHPEAUNode@carrot_planner@@@std@@@std@@$0A@@?$_Hash_vec@V?$allocator@V?$_List_unchecked_iterator@V?$_List_val@U?$_List_simple_types@U?$pair@$$CBHPEAUNode@carrot_planner@@@std@@@std@@@std@@@std@@@std@@@std@@QEAA@AEBV?$allocator@U?$pair@$$CBHPEAUNode@carrot_planner@@@std@@@1@@Z
	??$?0AEBV?$basic_string@DU?$char_traits@D@std@@V?$allocator@D@2@@std@@$$Z$$V@?$pair@$$CBV?$basic_string@DU?$char_traits@D@std@@V?$allocator@D@2@@std@@PEAVAbstractMetaObjectBase@impl@class_loader@@@std@@QEAA@Upiecewise_construct_t@1@V?$tuple@AEBV?$basic_string@DU?$char_traits@D@std@@V?$allocator@D@2@@std@@@1@V?$tuple@$$V@1@@Z
	??$?0AEBV?$basic_string@DU?$char_traits@D@std@@V?$allocator@D@2@@std@@$0A@@?$tuple@AEBV?$basic_string@DU?$char_traits@D@std@@V?$allocator@D@2@@std@@@std@@QEAA@AEBV?$basic_string@DU?$char_traits@D@std@@V?$allocator@D@2@@1@@Z
	??$?0AEBV?$basic_string@DU?$char_traits@D@std@@V?$allocator@D@2@@std@@@?$_Tuple_val@AEBV?$basic_string@DU?$char_traits@D@std@@V?$allocator@D@2@@std@@@std@@QEAA@AEBV?$basic_string@DU?$char_traits@D@std@@V?$allocator@D@2@@1@@Z
	??$?0H@?$allocator@U?$_List_node@HPEAX@std@@@std@@QEAA@AEBV?$allocator@H@1@@Z
	??$?0H@?$allocator@V?$_List_unchecked_const_iterator@V?$_List_val@U?$_List_simple_types@H@std@@@std@@U_Iterator_base0@2@@std@@@std@@QEAA@AEBV?$allocator@H@1@@Z
	??$?0M@?$_Compressed_pair@U?$equal_to@H@std@@M$00@std@@QEAA@U_Zero_then_variadic_args_t@1@$$QEAM@Z
	??$?0PEAU?$_List_node@U?$pair@$$CBHPEAUNode@carrot_planner@@@std@@PEAX@std@@_N$0A@@?$pair@PEAU?$_List_node@U?$pair@$$CBHPEAUNode@carrot_planner@@@std@@PEAX@std@@_N@std@@QEAA@$$QEAPEAU?$_List_node@U?$pair@$$CBHPEAUNode@carrot_planner@@@std@@PEAX@1@$$QEA_N@Z
	??$?0PEAU?$_Tree_node@U?$pair@$$CBV?$basic_string@DU?$char_traits@D@std@@V?$allocator@D@2@@std@@PEAVAbstractMetaObjectBase@impl@class_loader@@@std@@PEAX@std@@_N$0A@@?$pair@PEAU?$_Tree_node@U?$pair@$$CBV?$basic_string@DU?$char_traits@D@std@@V?$allocator@D@2@@std@@PEAVAbstractMetaObjectBase@impl@class_loader@@@std@@PEAX@std@@_N@std@@QEAA@$$QEAPEAU?$_Tree_node@U?$pair@$$CBV?$basic_string@DU?$char_traits@D@std@@V?$allocator@D@2@@std@@PEAVAbstractMetaObjectBase@impl@class_loader@@@std@@PEAX@1@$$QEA_N@Z
	??$?0U?$pair@$$CBHPEAUNode@carrot_planner@@@std@@@?$allocator@U?$_List_node@U?$pair@$$CBHPEAUNode@carrot_planner@@@std@@PEAX@std@@@std@@QEAA@AEBV?$allocator@U?$pair@$$CBHPEAUNode@carrot_planner@@@std@@@1@@Z
	??$?0U?$pair@$$CBHPEAUNode@carrot_planner@@@std@@@?$allocator@V?$_List_unchecked_iterator@V?$_List_val@U?$_List_simple_types@U?$pair@$$CBHPEAUNode@carrot_planner@@@std@@@std@@@std@@@std@@@std@@QEAA@AEBV?$allocator@U?$pair@$$CBHPEAUNode@carrot_planner@@@std@@@1@@Z
	??$?0U_Exact_args_t@std@@$0A@@?$tuple@$$V@std@@QEAA@U_Exact_args_t@1@@Z
	??$?0U_Exact_args_t@std@@AEBH$$V$0A@@?$tuple@AEBH@std@@QEAA@U_Exact_args_t@1@AEBH@Z
	??$?0U_Exact_args_t@std@@AEBV?$basic_string@DU?$char_traits@D@std@@V?$allocator@D@2@@1@$$V$0A@@?$tuple@AEBV?$basic_string@DU?$char_traits@D@std@@V?$allocator@D@2@@std@@@std@@QEAA@U_Exact_args_t@1@AEBV?$basic_string@DU?$char_traits@D@std@@V?$allocator@D@2@@1@@Z
	??$?0U_Zero_then_variadic_args_t@std@@M@?$_Compressed_pair@U?$hash@H@std@@V?$_Compressed_pair@U?$equal_to@H@std@@M$00@2@$00@std@@QEAA@U_Zero_then_variadic_args_t@1@$$QEAU21@$$QEAM@Z
	??$?0V?$_List_iterator@V?$_List_val@U?$_List_simple_types@H@std@@@std@@@std@@_N$0A@@?$pair@V?$_List_const_iterator@V?$_List_val@U?$_List_simple_types@H@std@@@std@@@std@@_N@std@@QEAA@$$QEAV?$_List_iterator@V?$_List_val@U?$_List_simple_types@H@std@@@std@@@1@$$QEA_N@Z
	??$?0V?$allocator@D@std@@$$V@?$_Compressed_pair@V?$allocator@D@std@@V?$_String_val@U?$_Simple_types@D@std@@@2@$00@std@@QEAA@U_One_then_variadic_args_t@1@$$QEAV?$allocator@D@1@@Z
	??$?0V?$allocator@H@std@@PEAHPEAHPEAH@?$_Compressed_pair@V?$allocator@H@std@@V?$_Vector_val@U?$_Simple_types@H@std@@@2@$00@std@@QEAA@U_One_then_variadic_args_t@1@$$QEAV?$allocator@H@1@$$QEAPEAH22@Z
	??$?0V?$allocator@U?$Point_@V?$allocator@X@std@@@geometry_msgs@@@std@@$$V@?$_Compressed_pair@V?$allocator@U?$Point_@V?$allocator@X@std@@@geometry_msgs@@@std@@V?$_Vector_val@U?$_Simple_types@U?$Point_@V?$allocator@X@std@@@geometry_msgs@@@std@@@2@$00@std@@QEAA@U_One_then_variadic_args_t@1@$$QEAV?$allocator@U?$Point_@V?$allocator@X@std@@@geometry_msgs@@@1@@Z
	??$?0V?$clone_impl@Ubad_alloc_@exception_detail@boost@@@exception_detail@boost@@@?$shared_ptr@$$CBVclone_base@exception_detail@boost@@@boost@@QEAA@PEAV?$clone_impl@Ubad_alloc_@exception_detail@boost@@@exception_detail@1@@Z
	??$?0V?$clone_impl@Ubad_alloc_@exception_detail@boost@@@exception_detail@boost@@@shared_count@detail@boost@@QEAA@PEAV?$clone_impl@Ubad_alloc_@exception_detail@boost@@@exception_detail@2@@Z
	??$?0V?$clone_impl@Ubad_exception_@exception_detail@boost@@@exception_detail@boost@@@?$shared_ptr@$$CBVclone_base@exception_detail@boost@@@boost@@QEAA@PEAV?$clone_impl@Ubad_exception_@exception_detail@boost@@@exception_detail@1@@Z
	??$?0V?$clone_impl@Ubad_exception_@exception_detail@boost@@@exception_detail@boost@@@shared_count@detail@boost@@QEAA@PEAV?$clone_impl@Ubad_exception_@exception_detail@boost@@@exception_detail@2@@Z
	??$?0V?$tuple@AEBH@std@@V?$tuple@$$V@1@$0A@$$Z$S@?$pair@$$CBHPEAUNode@carrot_planner@@@std@@QEAA@AEAV?$tuple@AEBH@1@AEAV?$tuple@$$V@1@U?$integer_sequence@_K$0A@@1@U?$integer_sequence@_K$S@1@@Z
	??$?0V?$tuple@AEBV?$basic_string@DU?$char_traits@D@std@@V?$allocator@D@2@@std@@@std@@V?$tuple@$$V@1@$0A@$$Z$S@?$pair@$$CBV?$basic_string@DU?$char_traits@D@std@@V?$allocator@D@2@@std@@PEAVAbstractMetaObjectBase@impl@class_loader@@@std@@QEAA@AEAV?$tuple@AEBV?$basic_string@DU?$char_traits@D@std@@V?$allocator@D@2@@std@@@1@AEAV?$tuple@$$V@1@U?$integer_sequence@_K$0A@@1@U?$integer_sequence@_K$S@1@@Z
	??$?6V?$clone_impl@Ubad_alloc_@exception_detail@boost@@@exception_detail@boost@@Uthrow_file_@2@PEBD@boost@@YAAEBV?$clone_impl@Ubad_alloc_@exception_detail@boost@@@exception_detail@0@AEBV120@$$QEAV?$error_info@Uthrow_file_@boost@@PEBD@0@@Z
	??$?6V?$clone_impl@Ubad_alloc_@exception_detail@boost@@@exception_detail@boost@@Uthrow_function_@2@PEBD@boost@@YAAEBV?$clone_impl@Ubad_alloc_@exception_detail@boost@@@exception_detail@0@AEBV120@$$QEAV?$error_info@Uthrow_function_@boost@@PEBD@0@@Z
	??$?6V?$clone_impl@Ubad_alloc_@exception_detail@boost@@@exception_detail@boost@@Uthrow_line_@2@H@boost@@YAAEBV?$clone_impl@Ubad_alloc_@exception_detail@boost@@@exception_detail@0@AEBV120@$$QEAV?$error_info@Uthrow_line_@boost@@H@0@@Z
	??$?6V?$clone_impl@Ubad_exception_@exception_detail@boost@@@exception_detail@boost@@Uthrow_file_@2@PEBD@boost@@YAAEBV?$clone_impl@Ubad_exception_@exception_detail@boost@@@exception_detail@0@AEBV120@$$QEAV?$error_info@Uthrow_file_@boost@@PEBD@0@@Z
	??$?6V?$clone_impl@Ubad_exception_@exception_detail@boost@@@exception_detail@boost@@Uthrow_function_@2@PEBD@boost@@YAAEBV?$clone_impl@Ubad_exception_@exception_detail@boost@@@exception_detail@0@AEBV120@$$QEAV?$error_info@Uthrow_function_@boost@@PEBD@0@@Z
	??$?6V?$clone_impl@Ubad_exception_@exception_detail@boost@@@exception_detail@boost@@Uthrow_line_@2@H@boost@@YAAEBV?$clone_impl@Ubad_exception_@exception_detail@boost@@@exception_detail@0@AEBV120@$$QEAV?$error_info@Uthrow_line_@boost@@H@0@@Z
	??$?8DU?$char_traits@D@std@@V?$allocator@D@1@@std@@YA_NAEBV?$basic_string@DU?$char_traits@D@std@@V?$allocator@D@2@@0@0@Z
	??$?9DU?$char_traits@D@std@@V?$allocator@D@1@@std@@YA_NAEBV?$basic_string@DU?$char_traits@D@std@@V?$allocator@D@2@@0@0@Z
	??$?HDU?$char_traits@D@std@@V?$allocator@D@1@@std@@YA?AV?$basic_string@DU?$char_traits@D@std@@V?$allocator@D@2@@0@QEBDAEBV10@@Z
	??$?MDU?$char_traits@D@std@@V?$allocator@D@1@@std@@YA_NAEBV?$basic_string@DU?$char_traits@D@std@@V?$allocator@D@2@@0@0@Z
	??$?RH@?$_Uhash_compare@HU?$hash@H@std@@U?$equal_to@H@2@@std@@QEBA_KAEBH@Z
	??$?RHH@?$_Uhash_compare@HU?$hash@H@std@@U?$equal_to@H@2@@std@@QEBA_NAEBH0@Z
	??$_Adl_verify_range@PEAV?$_List_unchecked_const_iterator@V?$_List_val@U?$_List_simple_types@H@std@@@std@@U_Iterator_base0@2@@std@@PEAV12@@std@@YAXAEBQEAV?$_List_unchecked_const_iterator@V?$_List_val@U?$_List_simple_types@H@std@@@std@@U_Iterator_base0@2@@0@0@Z
	??$_Adl_verify_range@PEAV?$_List_unchecked_iterator@V?$_List_val@U?$_List_simple_types@U?$pair@$$CBHPEAUNode@carrot_planner@@@std@@@std@@@std@@@std@@PEAV12@@std@@YAXAEBQEAV?$_List_unchecked_iterator@V?$_List_val@U?$_List_simple_types@U?$pair@$$CBHPEAUNode@carrot_planner@@@std@@@std@@@std@@@0@0@Z
	??$_Adl_verify_range@V?$_Vector_iterator@V?$_Vector_val@U?$_Simple_types@PEAUNode@carrot_planner@@@std@@@std@@@std@@V12@@std@@YAXAEBV?$_Vector_iterator@V?$_Vector_val@U?$_Simple_types@PEAUNode@carrot_planner@@@std@@@std@@@0@0@Z
	??$_Adl_verify_range@V?$_Vector_iterator@V?$_Vector_val@U?$_Simple_types@U?$PoseStamped_@V?$allocator@X@std@@@geometry_msgs@@@std@@@std@@@std@@V12@@std@@YAXAEBV?$_Vector_iterator@V?$_Vector_val@U?$_Simple_types@U?$PoseStamped_@V?$allocator@X@std@@@geometry_msgs@@@std@@@std@@@0@0@Z
	??$_Allocate@$0BA@U_Default_allocate_traits@std@@$0A@@std@@YAPEAX_K@Z
	??$_Allocate_at_least_helper@V?$allocator@D@std@@@std@@YAPEADAEAV?$allocator@D@0@AEA_K@Z
	??$_Allocate_at_least_helper@V?$allocator@H@std@@@std@@YAPEAHAEAV?$allocator@H@0@AEA_K@Z
	??$_Allocate_at_least_helper@V?$allocator@PEAUNode@carrot_planner@@@std@@@std@@YAPEAPEAUNode@carrot_planner@@AEAV?$allocator@PEAUNode@carrot_planner@@@0@AEA_K@Z
	??$_Allocate_at_least_helper@V?$allocator@U?$Point_@V?$allocator@X@std@@@geometry_msgs@@@std@@@std@@YAPEAU?$Point_@V?$allocator@X@std@@@geometry_msgs@@AEAV?$allocator@U?$Point_@V?$allocator@X@std@@@geometry_msgs@@@0@AEA_K@Z
	??$_Allocate_at_least_helper@V?$allocator@U?$PoseStamped_@V?$allocator@X@std@@@geometry_msgs@@@std@@@std@@YAPEAU?$PoseStamped_@V?$allocator@X@std@@@geometry_msgs@@AEAV?$allocator@U?$PoseStamped_@V?$allocator@X@std@@@geometry_msgs@@@0@AEA_K@Z
	??$_Allocate_for_capacity@$0A@@?$basic_string@DU?$char_traits@D@std@@V?$allocator@D@2@@std@@CAPEADAEAV?$allocator@D@1@AEA_K@Z
	??$_Allocate_manually_vector_aligned@U_Default_allocate_traits@std@@@std@@YAPEAX_K@Z
	??$_Atomic_address_as@JU?$_Atomic_padded@H@std@@@std@@YAPECJAEAU?$_Atomic_padded@H@0@@Z
	??$_Buyheadnode@V?$allocator@U?$_Tree_node@U?$pair@$$CBV?$basic_string@DU?$char_traits@D@std@@V?$allocator@D@2@@std@@V12@@std@@PEAX@std@@@std@@@?$_Tree_node@U?$pair@$$CBV?$basic_string@DU?$char_traits@D@std@@V?$allocator@D@2@@std@@V12@@std@@PEAX@std@@SAPEAU01@AEAV?$allocator@U?$_Tree_node@U?$pair@$$CBV?$basic_string@DU?$char_traits@D@std@@V?$allocator@D@2@@std@@V12@@std@@PEAX@std@@@1@@Z
	??$_Construct@$00PEBD@?$basic_string@DU?$char_traits@D@std@@V?$allocator@D@2@@std@@AEAAXQEBD_K@Z
	??$_Construct@$01PEBD@?$basic_string@DU?$char_traits@D@std@@V?$allocator@D@2@@std@@AEAAXQEBD_K@Z
	??$_Construct_in_place@HAEBH@std@@YAXAEAHAEBH@Z
	??$_Construct_in_place@PEADAEAPEAD@std@@YAXAEAPEAD0@Z
	??$_Construct_in_place@PEADAEBQEAD@std@@YAXAEAPEADAEBQEAD@Z
	??$_Construct_in_place@PEAU?$_List_node@HPEAX@std@@AEAPEAU12@@std@@YAXAEAPEAU?$_List_node@HPEAX@0@0@Z
	??$_Construct_in_place@PEAU?$_List_node@HPEAX@std@@AEBQEAU12@@std@@YAXAEAPEAU?$_List_node@HPEAX@0@AEBQEAU10@@Z
	??$_Construct_in_place@PEAU?$_List_node@U?$pair@$$CBHPEAUNode@carrot_planner@@@std@@PEAX@std@@AEAPEAU12@@std@@YAXAEAPEAU?$_List_node@U?$pair@$$CBHPEAUNode@carrot_planner@@@std@@PEAX@0@0@Z
	??$_Construct_in_place@PEAU?$_List_node@U?$pair@$$CBHPEAUNode@carrot_planner@@@std@@PEAX@std@@AEBQEAU12@@std@@YAXAEAPEAU?$_List_node@U?$pair@$$CBHPEAUNode@carrot_planner@@@std@@PEAX@0@AEBQEAU10@@Z
	??$_Construct_in_place@PEAU?$_Tree_node@U?$pair@$$CBV?$basic_string@DU?$char_traits@D@std@@V?$allocator@D@2@@std@@PEAVAbstractMetaObjectBase@impl@class_loader@@@std@@PEAX@std@@AEAPEAU12@@std@@YAXAEAPEAU?$_Tree_node@U?$pair@$$CBV?$basic_string@DU?$char_traits@D@std@@V?$allocator@D@2@@std@@PEAVAbstractMetaObjectBase@impl@class_loader@@@std@@PEAX@0@0@Z
	??$_Construct_in_place@PEAU?$_Tree_node@U?$pair@$$CBV?$basic_string@DU?$char_traits@D@std@@V?$allocator@D@2@@std@@V12@@std@@PEAX@std@@AEBQEAU12@@std@@YAXAEAPEAU?$_Tree_node@U?$pair@$$CBV?$basic_string@DU?$char_traits@D@std@@V?$allocator@D@2@@std@@V12@@std@@PEAX@0@AEBQEAU10@@Z
	??$_Construct_in_place@PEAUNode@carrot_planner@@AEBQEAU12@@std@@YAXAEAPEAUNode@carrot_planner@@AEBQEAU12@@Z
	??$_Construct_in_place@U?$Point_@V?$allocator@X@std@@@geometry_msgs@@AEBU12@@std@@YAXAEAU?$Point_@V?$allocator@X@std@@@geometry_msgs@@AEBU12@@Z
	??$_Construct_in_place@V?$_List_unchecked_const_iterator@V?$_List_val@U?$_List_simple_types@H@std@@@std@@U_Iterator_base0@2@@std@@AEBV12@@std@@YAXAEAV?$_List_unchecked_const_iterator@V?$_List_val@U?$_List_simple_types@H@std@@@std@@U_Iterator_base0@2@@0@AEBV10@@Z
	??$_Construct_in_place@V?$_List_unchecked_iterator@V?$_List_val@U?$_List_simple_types@U?$pair@$$CBHPEAUNode@carrot_planner@@@std@@@std@@@std@@@std@@AEBV12@@std@@YAXAEAV?$_List_unchecked_iterator@V?$_List_val@U?$_List_simple_types@U?$pair@$$CBHPEAUNode@carrot_planner@@@std@@@std@@@std@@@0@AEBV10@@Z
	??$_Construct_n@AEBQEAU?$Point_@V?$allocator@X@std@@@geometry_msgs@@AEBQEAU12@@?$vector@U?$Point_@V?$allocator@X@std@@@geometry_msgs@@V?$allocator@U?$Point_@V?$allocator@X@std@@@geometry_msgs@@@std@@@std@@AEAAX_KAEBQEAU?$Point_@V?$allocator@X@std@@@geometry_msgs@@1@Z
	??$_Convert_size@_K_K@std@@YA_K_K@Z
	??$_Copy_memmove@PEAHPEAH@std@@YAPEAHPEAH00@Z
	??$_Copy_memmove@PEAPEAUNode@carrot_planner@@PEAPEAU12@@std@@YAPEAPEAUNode@carrot_planner@@PEAPEAU12@00@Z
	??$_Copy_memmove@PEAU?$Point_@V?$allocator@X@std@@@geometry_msgs@@PEAU12@@std@@YAPEAU?$Point_@V?$allocator@X@std@@@geometry_msgs@@PEAU12@00@Z
	??$_Deallocate@$0BA@$0A@@std@@YAXPEAX_K@Z
	??$_Destroy_in_place@PEAD@std@@YAXAEAPEAD@Z
	??$_Destroy_in_place@PEAU?$_List_node@HPEAX@std@@@std@@YAXAEAPEAU?$_List_node@HPEAX@0@@Z
	??$_Destroy_in_place@PEAU?$_List_node@U?$pair@$$CBHPEAUNode@carrot_planner@@@std@@PEAX@std@@@std@@YAXAEAPEAU?$_List_node@U?$pair@$$CBHPEAUNode@carrot_planner@@@std@@PEAX@0@@Z
	??$_Destroy_in_place@PEAU?$_Tree_node@U?$pair@$$CBV?$basic_string@DU?$char_traits@D@std@@V?$allocator@D@2@@std@@PEAVAbstractMetaObjectBase@impl@class_loader@@@std@@PEAX@std@@@std@@YAXAEAPEAU?$_Tree_node@U?$pair@$$CBV?$basic_string@DU?$char_traits@D@std@@V?$allocator@D@2@@std@@PEAVAbstractMetaObjectBase@impl@class_loader@@@std@@PEAX@0@@Z
	??$_Destroy_in_place@PEAU?$_Tree_node@U?$pair@$$CBV?$basic_string@DU?$char_traits@D@std@@V?$allocator@D@2@@std@@V12@@std@@PEAX@std@@@std@@YAXAEAPEAU?$_Tree_node@U?$pair@$$CBV?$basic_string@DU?$char_traits@D@std@@V?$allocator@D@2@@std@@V12@@std@@PEAX@0@@Z
	??$_Destroy_range@PEAV?$_List_unchecked_const_iterator@V?$_List_val@U?$_List_simple_types@H@std@@@std@@U_Iterator_base0@2@@std@@PEAV12@@std@@YAXPEAV?$_List_unchecked_const_iterator@V?$_List_val@U?$_List_simple_types@H@std@@@std@@U_Iterator_base0@2@@0@QEAV10@@Z
	??$_Destroy_range@PEAV?$_List_unchecked_iterator@V?$_List_val@U?$_List_simple_types@U?$pair@$$CBHPEAUNode@carrot_planner@@@std@@@std@@@std@@@std@@PEAV12@@std@@YAXPEAV?$_List_unchecked_iterator@V?$_List_val@U?$_List_simple_types@U?$pair@$$CBHPEAUNode@carrot_planner@@@std@@@std@@@std@@@0@QEAV10@@Z
	??$_Destroy_range@V?$allocator@H@std@@@std@@YAXPEAHQEAHAEAV?$allocator@H@0@@Z
	??$_Destroy_range@V?$allocator@PEAUNode@carrot_planner@@@std@@@std@@YAXPEAPEAUNode@carrot_planner@@QEAPEAU12@AEAV?$allocator@PEAUNode@carrot_planner@@@0@@Z
	??$_Destroy_range@V?$allocator@U?$Point_@V?$allocator@X@std@@@geometry_msgs@@@std@@@std@@YAXPEAU?$Point_@V?$allocator@X@std@@@geometry_msgs@@QEAU12@AEAV?$allocator@U?$Point_@V?$allocator@X@std@@@geometry_msgs@@@0@@Z
	??$_Destroy_range@V?$allocator@U?$PoseStamped_@V?$allocator@X@std@@@geometry_msgs@@@std@@@std@@YAXPEAU?$PoseStamped_@V?$allocator@X@std@@@geometry_msgs@@QEAU12@AEAV?$allocator@U?$PoseStamped_@V?$allocator@X@std@@@geometry_msgs@@@0@@Z
	??$_Emplace_back@AEAU?$Point_@V?$allocator@X@std@@@geometry_msgs@@@?$_Uninitialized_backout_al@V?$allocator@U?$Point_@V?$allocator@X@std@@@geometry_msgs@@@std@@@std@@QEAAXAEAU?$Point_@V?$allocator@X@std@@@geometry_msgs@@@Z
	??$_Emplace_back@AEBV?$_List_unchecked_const_iterator@V?$_List_val@U?$_List_simple_types@H@std@@@std@@U_Iterator_base0@2@@std@@@?$_Uninitialized_backout@PEAV?$_List_unchecked_const_iterator@V?$_List_val@U?$_List_simple_types@H@std@@@std@@U_Iterator_base0@2@@std@@@std@@QEAAXAEBV?$_List_unchecked_const_iterator@V?$_List_val@U?$_List_simple_types@H@std@@@std@@U_Iterator_base0@2@@1@@Z
	??$_Emplace_back@AEBV?$_List_unchecked_iterator@V?$_List_val@U?$_List_simple_types@U?$pair@$$CBHPEAUNode@carrot_planner@@@std@@@std@@@std@@@std@@@?$_Uninitialized_backout@PEAV?$_List_unchecked_iterator@V?$_List_val@U?$_List_simple_types@U?$pair@$$CBHPEAUNode@carrot_planner@@@std@@@std@@@std@@@std@@@std@@QEAAXAEBV?$_List_unchecked_iterator@V?$_List_val@U?$_List_simple_types@U?$pair@$$CBHPEAUNode@carrot_planner@@@std@@@std@@@std@@@1@@Z
	??$_Emplace_back@H@?$_Uninitialized_backout_al@V?$allocator@H@std@@@std@@QEAAX$$QEAH@Z
	??$_Emplace_back@PEAUNode@carrot_planner@@@?$_Uninitialized_backout_al@V?$allocator@PEAUNode@carrot_planner@@@std@@@std@@QEAAX$$QEAPEAUNode@carrot_planner@@@Z
	??$_Emplace_back@U?$Point_@V?$allocator@X@std@@@geometry_msgs@@@?$_Uninitialized_backout_al@V?$allocator@U?$Point_@V?$allocator@X@std@@@geometry_msgs@@@std@@@std@@QEAAX$$QEAU?$Point_@V?$allocator@X@std@@@geometry_msgs@@@Z
	??$_Emplace_back@U?$PoseStamped_@V?$allocator@X@std@@@geometry_msgs@@@?$_Uninitialized_backout_al@V?$allocator@U?$PoseStamped_@V?$allocator@X@std@@@geometry_msgs@@@std@@@std@@QEAAX$$QEAU?$PoseStamped_@V?$allocator@X@std@@@geometry_msgs@@@Z
	??$_Emplace_back_with_unused_capacity@AEBH@?$vector@HV?$allocator@H@std@@@std@@AEAAAEAHAEBH@Z
	??$_Emplace_back_with_unused_capacity@AEBQEAUNode@carrot_planner@@@?$vector@PEAUNode@carrot_planner@@V?$allocator@PEAUNode@carrot_planner@@@std@@@std@@AEAAAEAPEAUNode@carrot_planner@@AEBQEAU23@@Z
	??$_Emplace_back_with_unused_capacity@AEBU?$Point_@V?$allocator@X@std@@@geometry_msgs@@@?$vector@U?$Point_@V?$allocator@X@std@@@geometry_msgs@@V?$allocator@U?$Point_@V?$allocator@X@std@@@geometry_msgs@@@std@@@std@@AEAAAEAU?$Point_@V?$allocator@X@std@@@geometry_msgs@@AEBU23@@Z
	??$_Emplace_back_with_unused_capacity@AEBU?$PoseStamped_@V?$allocator@X@std@@@geometry_msgs@@@?$vector@U?$PoseStamped_@V?$allocator@X@std@@@geometry_msgs@@V?$allocator@U?$PoseStamped_@V?$allocator@X@std@@@geometry_msgs@@@std@@@std@@AEAAAEAU?$PoseStamped_@V?$allocator@X@std@@@geometry_msgs@@AEBU23@@Z
	??$_Emplace_one_at_back@AEBH@?$vector@HV?$allocator@H@std@@@std@@AEAAAEAHAEBH@Z
	??$_Emplace_one_at_back@AEBQEAUNode@carrot_planner@@@?$vector@PEAUNode@carrot_planner@@V?$allocator@PEAUNode@carrot_planner@@@std@@@std@@AEAAAEAPEAUNode@carrot_planner@@AEBQEAU23@@Z
	??$_Emplace_one_at_back@AEBU?$Point_@V?$allocator@X@std@@@geometry_msgs@@@?$vector@U?$Point_@V?$allocator@X@std@@@geometry_msgs@@V?$allocator@U?$Point_@V?$allocator@X@std@@@geometry_msgs@@@std@@@std@@AEAAAEAU?$Point_@V?$allocator@X@std@@@geometry_msgs@@AEBU23@@Z
	??$_Emplace_one_at_back@AEBU?$PoseStamped_@V?$allocator@X@std@@@geometry_msgs@@@?$vector@U?$PoseStamped_@V?$allocator@X@std@@@geometry_msgs@@V?$allocator@U?$PoseStamped_@V?$allocator@X@std@@@geometry_msgs@@@std@@@std@@AEAAAEAU?$PoseStamped_@V?$allocator@X@std@@@geometry_msgs@@AEBU23@@Z
	??$_Emplace_reallocate@AEBH@?$vector@HV?$allocator@H@std@@@std@@AEAAPEAHQEAHAEBH@Z
	??$_Emplace_reallocate@AEBQEAUNode@carrot_planner@@@?$vector@PEAUNode@carrot_planner@@V?$allocator@PEAUNode@carrot_planner@@@std@@@std@@AEAAPEAPEAUNode@carrot_planner@@QEAPEAU23@AEBQEAU23@@Z
	??$_Emplace_reallocate@AEBU?$Point_@V?$allocator@X@std@@@geometry_msgs@@@?$vector@U?$Point_@V?$allocator@X@std@@@geometry_msgs@@V?$allocator@U?$Point_@V?$allocator@X@std@@@geometry_msgs@@@std@@@std@@AEAAPEAU?$Point_@V?$allocator@X@std@@@geometry_msgs@@QEAU23@AEBU23@@Z
	??$_Emplace_reallocate@AEBU?$PoseStamped_@V?$allocator@X@std@@@geometry_msgs@@@?$vector@U?$PoseStamped_@V?$allocator@X@std@@@geometry_msgs@@V?$allocator@U?$PoseStamped_@V?$allocator@X@std@@@geometry_msgs@@@std@@@std@@AEAAPEAU?$PoseStamped_@V?$allocator@X@std@@@geometry_msgs@@QEAU23@AEBU23@@Z
	??$_Erase_head@V?$allocator@U?$_Tree_node@U?$pair@$$CBV?$basic_string@DU?$char_traits@D@std@@V?$allocator@D@2@@std@@V12@@std@@PEAX@std@@@std@@@?$_Tree_val@U?$_Tree_simple_types@U?$pair@$$CBV?$basic_string@DU?$char_traits@D@std@@V?$allocator@D@2@@std@@V12@@std@@@std@@@std@@QEAAXAEAV?$allocator@U?$_Tree_node@U?$pair@$$CBV?$basic_string@DU?$char_traits@D@std@@V?$allocator@D@2@@std@@V12@@std@@PEAX@std@@@1@@Z
	??$_Erase_tree@V?$allocator@U?$_Tree_node@U?$pair@$$CBV?$basic_string@DU?$char_traits@D@std@@V?$allocator@D@2@@std@@V12@@std@@PEAX@std@@@std@@@?$_Tree_val@U?$_Tree_simple_types@U?$pair@$$CBV?$basic_string@DU?$char_traits@D@std@@V?$allocator@D@2@@std@@V12@@std@@@std@@@std@@QEAAXAEAV?$allocator@U?$_Tree_node@U?$pair@$$CBV?$basic_string@DU?$char_traits@D@std@@V?$allocator@D@2@@std@@V12@@std@@PEAX@std@@@1@PEAU?$_Tree_node@U?$pair@$$CBV?$basic_string@DU?$char_traits@D@std@@V?$allocator@D@2@@std@@V12@@std@@PEAX@1@@Z
	??$_Find@H@?$_Hash@V?$_Umap_traits@HPEAUNode@carrot_planner@@V?$_Uhash_compare@HU?$hash@H@std@@U?$equal_to@H@2@@std@@V?$allocator@U?$pair@$$CBHPEAUNode@carrot_planner@@@std@@@4@$0A@@std@@@std@@AEBAPEAU?$_List_node@U?$pair@$$CBHPEAUNode@carrot_planner@@@std@@PEAX@1@AEBH_K@Z
	??$_Find@H@?$_Hash@V?$_Uset_traits@HV?$_Uhash_compare@HU?$hash@H@std@@U?$equal_to@H@2@@std@@V?$allocator@H@2@$0A@@std@@@std@@AEBAPEAU?$_List_node@HPEAX@1@AEBH_K@Z
	??$_Find@V?$basic_string@DU?$char_traits@D@std@@V?$allocator@D@2@@std@@@?$_Tree@V?$_Tmap_traits@V?$basic_string@DU?$char_traits@D@std@@V?$allocator@D@2@@std@@PEAVAbstractMetaObjectBase@impl@class_loader@@U?$less@V?$basic_string@DU?$char_traits@D@std@@V?$allocator@D@2@@std@@@2@V?$allocator@U?$pair@$$CBV?$basic_string@DU?$char_traits@D@std@@V?$allocator@D@2@@std@@PEAVAbstractMetaObjectBase@impl@class_loader@@@std@@@2@$0A@@std@@@std@@AEBAPEAU?$_Tree_node@U?$pair@$$CBV?$basic_string@DU?$char_traits@D@std@@V?$allocator@D@2@@std@@PEAVAbstractMetaObjectBase@impl@class_loader@@@std@@PEAX@1@AEBV?$basic_string@DU?$char_traits@D@std@@V?$allocator@D@2@@1@@Z
	??$_Find_last@H@?$_Hash@V?$_Umap_traits@HPEAUNode@carrot_planner@@V?$_Uhash_compare@HU?$hash@H@std@@U?$equal_to@H@2@@std@@V?$allocator@U?$pair@$$CBHPEAUNode@carrot_planner@@@std@@@4@$0A@@std@@@std@@IEBA?AU?$_Hash_find_last_result@PEAU?$_List_node@U?$pair@$$CBHPEAUNode@carrot_planner@@@std@@PEAX@std@@@1@AEBH_K@Z
	??$_Find_last@H@?$_Hash@V?$_Uset_traits@HV?$_Uhash_compare@HU?$hash@H@std@@U?$equal_to@H@2@@std@@V?$allocator@H@2@$0A@@std@@@std@@IEBA?AU?$_Hash_find_last_result@PEAU?$_List_node@HPEAX@std@@@1@AEBH_K@Z
	??$_Find_lower_bound@V?$basic_string@DU?$char_traits@D@std@@V?$allocator@D@2@@std@@@?$_Tree@V?$_Tmap_traits@V?$basic_string@DU?$char_traits@D@std@@V?$allocator@D@2@@std@@PEAVAbstractMetaObjectBase@impl@class_loader@@U?$less@V?$basic_string@DU?$char_traits@D@std@@V?$allocator@D@2@@std@@@2@V?$allocator@U?$pair@$$CBV?$basic_string@DU?$char_traits@D@std@@V?$allocator@D@2@@std@@PEAVAbstractMetaObjectBase@impl@class_loader@@@std@@@2@$0A@@std@@@std@@IEBA?AU?$_Tree_find_result@PEAU?$_Tree_node@U?$pair@$$CBV?$basic_string@DU?$char_traits@D@std@@V?$allocator@D@2@@std@@PEAVAbstractMetaObjectBase@impl@class_loader@@@std@@PEAX@std@@@1@AEBV?$basic_string@DU?$char_traits@D@std@@V?$allocator@D@2@@1@@Z
	??$_Fnv1a_append_value@H@std@@YA_K_KAEBH@Z
	??$_Free_non_head@V?$allocator@U?$_List_node@HPEAX@std@@@std@@@?$_List_node@HPEAX@std@@SAXAEAV?$allocator@U?$_List_node@HPEAX@std@@@1@PEAU01@@Z
	??$_Free_non_head@V?$allocator@U?$_List_node@U?$pair@$$CBHPEAUNode@carrot_planner@@@std@@PEAX@std@@@std@@@?$_List_node@U?$pair@$$CBHPEAUNode@carrot_planner@@@std@@PEAX@std@@SAXAEAV?$allocator@U?$_List_node@U?$pair@$$CBHPEAUNode@carrot_planner@@@std@@PEAX@std@@@1@PEAU01@@Z
	??$_Freenode0@V?$allocator@U?$_List_node@HPEAX@std@@@std@@@?$_List_node@HPEAX@std@@SAXAEAV?$allocator@U?$_List_node@HPEAX@std@@@1@PEAU01@@Z
	??$_Freenode0@V?$allocator@U?$_List_node@U?$pair@$$CBHPEAUNode@carrot_planner@@@std@@PEAX@std@@@std@@@?$_List_node@U?$pair@$$CBHPEAUNode@carrot_planner@@@std@@PEAX@std@@SAXAEAV?$allocator@U?$_List_node@U?$pair@$$CBHPEAUNode@carrot_planner@@@std@@PEAX@std@@@1@PEAU01@@Z
	??$_Freenode0@V?$allocator@U?$_Tree_node@U?$pair@$$CBV?$basic_string@DU?$char_traits@D@std@@V?$allocator@D@2@@std@@V12@@std@@PEAX@std@@@std@@@?$_Tree_node@U?$pair@$$CBV?$basic_string@DU?$char_traits@D@std@@V?$allocator@D@2@@std@@V12@@std@@PEAX@std@@SAXAEAV?$allocator@U?$_Tree_node@U?$pair@$$CBV?$basic_string@DU?$char_traits@D@std@@V?$allocator@D@2@@std@@V12@@std@@PEAX@std@@@1@PEAU01@@Z
	??$_Freenode@V?$allocator@U?$_List_node@HPEAX@std@@@std@@@?$_List_node@HPEAX@std@@SAXAEAV?$allocator@U?$_List_node@HPEAX@std@@@1@PEAU01@@Z
	??$_Freenode@V?$allocator@U?$_List_node@U?$pair@$$CBHPEAUNode@carrot_planner@@@std@@PEAX@std@@@std@@@?$_List_node@U?$pair@$$CBHPEAUNode@carrot_planner@@@std@@PEAX@std@@SAXAEAV?$allocator@U?$_List_node@U?$pair@$$CBHPEAUNode@carrot_planner@@@std@@PEAX@std@@@1@PEAU01@@Z
	??$_Freenode@V?$allocator@U?$_Tree_node@U?$pair@$$CBV?$basic_string@DU?$char_traits@D@std@@V?$allocator@D@2@@std@@V12@@std@@PEAX@std@@@std@@@?$_Tree_node@U?$pair@$$CBV?$basic_string@DU?$char_traits@D@std@@V?$allocator@D@2@@std@@V12@@std@@PEAX@std@@SAXAEAV?$allocator@U?$_Tree_node@U?$pair@$$CBV?$basic_string@DU?$char_traits@D@std@@V?$allocator@D@2@@std@@V12@@std@@PEAX@std@@@1@PEAU01@@Z
	??$_Get_size_of_n@$00@std@@YA_K_K@Z
	??$_Get_size_of_n@$03@std@@YA_K_K@Z
	??$_Get_size_of_n@$07@std@@YA_K_K@Z
	??$_Get_size_of_n@$0BI@@std@@YA_K_K@Z
	??$_Get_size_of_n@$0CA@@std@@YA_K_K@Z
	??$_Get_size_of_n@$0EI@@std@@YA_K_K@Z
	??$_Get_size_of_n@$0GA@@std@@YA_K_K@Z
	??$_Get_size_of_n@$0GI@@std@@YA_K_K@Z
	??$_Get_unwrapped@AEAV?$_Vector_iterator@V?$_Vector_val@U?$_Simple_types@PEAUNode@carrot_planner@@@std@@@std@@@std@@@std@@YA?A_TAEAV?$_Vector_iterator@V?$_Vector_val@U?$_Simple_types@PEAUNode@carrot_planner@@@std@@@std@@@0@@Z
	??$_Get_unwrapped@AEBQEAH@std@@YA?A_TAEBQEAH@Z
	??$_Get_unwrapped@AEBQEAPEAUNode@carrot_planner@@@std@@YA?A_TAEBQEAPEAUNode@carrot_planner@@@Z
	??$_Get_unwrapped@AEBQEAU?$Point_@V?$allocator@X@std@@@geometry_msgs@@@std@@YA?A_TAEBQEAU?$Point_@V?$allocator@X@std@@@geometry_msgs@@@Z
	??$_Get_unwrapped@AEBQEAU?$PoseStamped_@V?$allocator@X@std@@@geometry_msgs@@@std@@YA?A_TAEBQEAU?$PoseStamped_@V?$allocator@X@std@@@geometry_msgs@@@Z
	??$_Get_unwrapped@AEBQEAV?$_List_unchecked_const_iterator@V?$_List_val@U?$_List_simple_types@H@std@@@std@@U_Iterator_base0@2@@std@@@std@@YA?A_TAEBQEAV?$_List_unchecked_const_iterator@V?$_List_val@U?$_List_simple_types@H@std@@@std@@U_Iterator_base0@2@@0@@Z
	??$_Get_unwrapped@AEBQEAV?$_List_unchecked_iterator@V?$_List_val@U?$_List_simple_types@U?$pair@$$CBHPEAUNode@carrot_planner@@@std@@@std@@@std@@@std@@@std@@YA?A_TAEBQEAV?$_List_unchecked_iterator@V?$_List_val@U?$_List_simple_types@U?$pair@$$CBHPEAUNode@carrot_planner@@@std@@@std@@@std@@@0@@Z
	??$_Get_unwrapped@AEBV?$_Vector_iterator@V?$_Vector_val@U?$_Simple_types@U?$PoseStamped_@V?$allocator@X@std@@@geometry_msgs@@@std@@@std@@@std@@@std@@YA?A_TAEBV?$_Vector_iterator@V?$_Vector_val@U?$_Simple_types@U?$PoseStamped_@V?$allocator@X@std@@@geometry_msgs@@@std@@@std@@@0@@Z
	??$_Get_unwrapped@PEAU?$Point_@V?$allocator@X@std@@@geometry_msgs@@@std@@YA?A_T$$QEAPEAU?$Point_@V?$allocator@X@std@@@geometry_msgs@@@Z
	??$_Getvals@_W@?$time_get@DV?$istreambuf_iterator@DU?$char_traits@D@std@@@std@@@std@@IEAAX_WAEBV_Locinfo@1@@Z
	??$_Getvals@_W@?$time_get@_WV?$istreambuf_iterator@_WU?$char_traits@_W@std@@@std@@@std@@IEAAX_WAEBV_Locinfo@1@@Z
	??$_Hash_representation@H@std@@YA_KAEBH@Z
	??$_Kfn@$$CBHPEAUNode@carrot_planner@@@?$_Umap_traits@HPEAUNode@carrot_planner@@V?$_Uhash_compare@HU?$hash@H@std@@U?$equal_to@H@2@@std@@V?$allocator@U?$pair@$$CBHPEAUNode@carrot_planner@@@std@@@4@$0A@@std@@SAAEBHAEBU?$pair@$$CBHPEAUNode@carrot_planner@@@1@@Z
	??$_Kfn@$$CBV?$basic_string@DU?$char_traits@D@std@@V?$allocator@D@2@@std@@PEAVAbstractMetaObjectBase@impl@class_loader@@@?$_Tmap_traits@V?$basic_string@DU?$char_traits@D@std@@V?$allocator@D@2@@std@@PEAVAbstractMetaObjectBase@impl@class_loader@@U?$less@V?$basic_string@DU?$char_traits@D@std@@V?$allocator@D@2@@std@@@2@V?$allocator@U?$pair@$$CBV?$basic_string@DU?$char_traits@D@std@@V?$allocator@D@2@@std@@PEAVAbstractMetaObjectBase@impl@class_loader@@@std@@@2@$0A@@std@@SAAEBV?$basic_string@DU?$char_traits@D@std@@V?$allocator@D@2@@1@AEBU?$pair@$$CBV?$basic_string@DU?$char_traits@D@std@@V?$allocator@D@2@@std@@PEAVAbstractMetaObjectBase@impl@class_loader@@@1@@Z
	??$_Lower_bound_duplicate@V?$basic_string@DU?$char_traits@D@std@@V?$allocator@D@2@@std@@@?$_Tree@V?$_Tmap_traits@V?$basic_string@DU?$char_traits@D@std@@V?$allocator@D@2@@std@@PEAVAbstractMetaObjectBase@impl@class_loader@@U?$less@V?$basic_string@DU?$char_traits@D@std@@V?$allocator@D@2@@std@@@2@V?$allocator@U?$pair@$$CBV?$basic_string@DU?$char_traits@D@std@@V?$allocator@D@2@@std@@PEAVAbstractMetaObjectBase@impl@class_loader@@@std@@@2@$0A@@std@@@std@@IEBA_NQEAU?$_Tree_node@U?$pair@$$CBV?$basic_string@DU?$char_traits@D@std@@V?$allocator@D@2@@std@@PEAVAbstractMetaObjectBase@impl@class_loader@@@std@@PEAX@1@AEBV?$basic_string@DU?$char_traits@D@std@@V?$allocator@D@2@@1@@Z
	??$_Maklocstr@D@std@@YAPEADPEBDPEADAEBU_Cvtvec@@@Z
	??$_Maklocstr@_W@std@@YAPEA_WPEBDPEA_WAEBU_Cvtvec@@@Z
	??$_Pass_fn@UNodeComparator@carrot_planner@@@std@@YA?A_PAEAUNodeComparator@carrot_planner@@@Z
	??$_Pocma@V?$allocator@D@std@@@std@@YAXAEAV?$allocator@D@0@0@Z
	??$_Pop_heap_hole_by_index@PEAPEAUNode@carrot_planner@@PEAU12@UNodeComparator@2@@std@@YAXPEAPEAUNode@carrot_planner@@_J1$$QEAPEAU12@UNodeComparator@2@@Z
	??$_Pop_heap_hole_unchecked@PEAPEAUNode@carrot_planner@@PEAU12@UNodeComparator@2@@std@@YAXPEAPEAUNode@carrot_planner@@00$$QEAPEAU12@UNodeComparator@2@@Z
	??$_Pop_heap_unchecked@PEAPEAUNode@carrot_planner@@UNodeComparator@2@@std@@YAXPEAPEAUNode@carrot_planner@@0UNodeComparator@2@@Z
	??$_Push_heap_by_index@PEAPEAUNode@carrot_planner@@PEAU12@UNodeComparator@2@@std@@YAXPEAPEAUNode@carrot_planner@@_J1$$QEAPEAU12@UNodeComparator@2@@Z
	??$_Reallocate_for@V<lambda_66f57f934f28d61049862f64df852ff0>@@PEBD@?$basic_string@DU?$char_traits@D@std@@V?$allocator@D@2@@std@@AEAAAEAV01@_KV<lambda_66f57f934f28d61049862f64df852ff0>@@PEBD@Z
	??$_Reallocate_grow_by@V<lambda_65e615be2a453ca0576c979606f46740>@@PEBD_K@?$basic_string@DU?$char_traits@D@std@@V?$allocator@D@2@@std@@AEAAAEAV01@_KV<lambda_65e615be2a453ca0576c979606f46740>@@PEBD_K@Z
	??$_To_address@PEAH@std@@YA?A_PAEBQEAH@Z
	??$_To_address@PEAPEAUNode@carrot_planner@@@std@@YA?A_PAEBQEAPEAUNode@carrot_planner@@@Z
	??$_To_address@PEAU?$Point_@V?$allocator@X@std@@@geometry_msgs@@@std@@YA?A_PAEBQEAU?$Point_@V?$allocator@X@std@@@geometry_msgs@@@Z
	??$_Traits_compare@U?$char_traits@D@std@@@std@@YAHQEBD_K01@Z
	??$_Traits_equal@U?$char_traits@D@std@@@std@@YA_NQEBD_K01@Z
	??$_Try_emplace@AEBH$$V@?$_Hash@V?$_Umap_traits@HPEAUNode@carrot_planner@@V?$_Uhash_compare@HU?$hash@H@std@@U?$equal_to@H@2@@std@@V?$allocator@U?$pair@$$CBHPEAUNode@carrot_planner@@@std@@@4@$0A@@std@@@std@@IEAA?AU?$pair@PEAU?$_List_node@U?$pair@$$CBHPEAUNode@carrot_planner@@@std@@PEAX@std@@_N@1@AEBH@Z
	??$_Try_emplace@AEBV?$basic_string@DU?$char_traits@D@std@@V?$allocator@D@2@@std@@$$V@?$map@V?$basic_string@DU?$char_traits@D@std@@V?$allocator@D@2@@std@@PEAVAbstractMetaObjectBase@impl@class_loader@@U?$less@V?$basic_string@DU?$char_traits@D@std@@V?$allocator@D@2@@std@@@2@V?$allocator@U?$pair@$$CBV?$basic_string@DU?$char_traits@D@std@@V?$allocator@D@2@@std@@PEAVAbstractMetaObjectBase@impl@class_loader@@@std@@@2@@std@@AEAA?AU?$pair@PEAU?$_Tree_node@U?$pair@$$CBV?$basic_string@DU?$char_traits@D@std@@V?$allocator@D@2@@std@@PEAVAbstractMetaObjectBase@impl@class_loader@@@std@@PEAX@std@@_N@1@AEBV?$basic_string@DU?$char_traits@D@std@@V?$allocator@D@2@@1@@Z
	??$_Tuple_get@$0A@AEBH@std@@YA$$QEA_P$$QEAV?$tuple@AEBH@0@@Z
	??$_Tuple_get@$0A@AEBV?$basic_string@DU?$char_traits@D@std@@V?$allocator@D@2@@std@@@std@@YA$$QEA_P$$QEAV?$tuple@AEBV?$basic_string@DU?$char_traits@D@std@@V?$allocator@D@2@@std@@@0@@Z
	??$_Unfancy@D@std@@YAPEADPEAD@Z
	??$_Unfancy@H@std@@YAPEAHPEAH@Z
	??$_Unfancy@PEAUNode@carrot_planner@@@std@@YAPEAPEAUNode@carrot_planner@@PEAPEAU12@@Z
	??$_Unfancy@U?$Point_@V?$allocator@X@std@@@geometry_msgs@@@std@@YAPEAU?$Point_@V?$allocator@X@std@@@geometry_msgs@@PEAU12@@Z
	??$_Unfancy@U?$PoseStamped_@V?$allocator@X@std@@@geometry_msgs@@@std@@YAPEAU?$PoseStamped_@V?$allocator@X@std@@@geometry_msgs@@PEAU12@@Z
	??$_Uninitialized_copy@PEAU?$Point_@V?$allocator@X@std@@@geometry_msgs@@PEAU12@V?$allocator@U?$Point_@V?$allocator@X@std@@@geometry_msgs@@@std@@@std@@YAPEAU?$Point_@V?$allocator@X@std@@@geometry_msgs@@PEAU12@00AEAV?$allocator@U?$Point_@V?$allocator@X@std@@@geometry_msgs@@@0@@Z
	??$_Uninitialized_move@PEAHV?$allocator@H@std@@@std@@YAPEAHQEAH0PEAHAEAV?$allocator@H@0@@Z
	??$_Uninitialized_move@PEAPEAUNode@carrot_planner@@V?$allocator@PEAUNode@carrot_planner@@@std@@@std@@YAPEAPEAUNode@carrot_planner@@QEAPEAU12@0PEAPEAU12@AEAV?$allocator@PEAUNode@carrot_planner@@@0@@Z
	??$_Uninitialized_move@PEAU?$Point_@V?$allocator@X@std@@@geometry_msgs@@V?$allocator@U?$Point_@V?$allocator@X@std@@@geometry_msgs@@@std@@@std@@YAPEAU?$Point_@V?$allocator@X@std@@@geometry_msgs@@QEAU12@0PEAU12@AEAV?$allocator@U?$Point_@V?$allocator@X@std@@@geometry_msgs@@@0@@Z
	??$_Uninitialized_move@PEAU?$PoseStamped_@V?$allocator@X@std@@@geometry_msgs@@V?$allocator@U?$PoseStamped_@V?$allocator@X@std@@@geometry_msgs@@@std@@@std@@YAPEAU?$PoseStamped_@V?$allocator@X@std@@@geometry_msgs@@QEAU12@0PEAU12@AEAV?$allocator@U?$PoseStamped_@V?$allocator@X@std@@@geometry_msgs@@@0@@Z
	??$addressof@$$CBV?$_List_val@U?$_List_simple_types@H@std@@@std@@@std@@YAPEBV?$_List_val@U?$_List_simple_types@H@std@@@0@AEBV10@@Z
	??$addressof@$$CBV?$_List_val@U?$_List_simple_types@U?$pair@$$CBHPEAUNode@carrot_planner@@@std@@@std@@@std@@@std@@YAPEBV?$_List_val@U?$_List_simple_types@U?$pair@$$CBHPEAUNode@carrot_planner@@@std@@@std@@@0@AEBV10@@Z
	??$addressof@$$CBV?$_String_val@U?$_Simple_types@D@std@@@std@@@std@@YAPEBV?$_String_val@U?$_Simple_types@D@std@@@0@AEBV10@@Z
	??$addressof@$$CBV?$_Tree_val@U?$_Tree_simple_types@U?$pair@$$CBV?$basic_string@DU?$char_traits@D@std@@V?$allocator@D@2@@std@@PEAVAbstractMetaObjectBase@impl@class_loader@@@std@@@std@@@std@@@std@@YAPEBV?$_Tree_val@U?$_Tree_simple_types@U?$pair@$$CBV?$basic_string@DU?$char_traits@D@std@@V?$allocator@D@2@@std@@PEAVAbstractMetaObjectBase@impl@class_loader@@@std@@@std@@@0@AEBV10@@Z
	??$addressof@H@std@@YAPEAHAEAH@Z
	??$addressof@PEAD@std@@YAPEAPEADAEAPEAD@Z
	??$addressof@PEAU?$_List_node@HPEAX@std@@@std@@YAPEAPEAU?$_List_node@HPEAX@0@AEAPEAU10@@Z
	??$addressof@PEAU?$_List_node@U?$pair@$$CBHPEAUNode@carrot_planner@@@std@@PEAX@std@@@std@@YAPEAPEAU?$_List_node@U?$pair@$$CBHPEAUNode@carrot_planner@@@std@@PEAX@0@AEAPEAU10@@Z
	??$addressof@PEAU?$_Tree_node@U?$pair@$$CBV?$basic_string@DU?$char_traits@D@std@@V?$allocator@D@2@@std@@PEAVAbstractMetaObjectBase@impl@class_loader@@@std@@PEAX@std@@@std@@YAPEAPEAU?$_Tree_node@U?$pair@$$CBV?$basic_string@DU?$char_traits@D@std@@V?$allocator@D@2@@std@@PEAVAbstractMetaObjectBase@impl@class_loader@@@std@@PEAX@0@AEAPEAU10@@Z
	??$addressof@PEAU?$_Tree_node@U?$pair@$$CBV?$basic_string@DU?$char_traits@D@std@@V?$allocator@D@2@@std@@V12@@std@@PEAX@std@@@std@@YAPEAPEAU?$_Tree_node@U?$pair@$$CBV?$basic_string@DU?$char_traits@D@std@@V?$allocator@D@2@@std@@V12@@std@@PEAX@0@AEAPEAU10@@Z
	??$addressof@PEAUNode@carrot_planner@@@std@@YAPEAPEAUNode@carrot_planner@@AEAPEAU12@@Z
	??$addressof@U?$Point_@V?$allocator@X@std@@@geometry_msgs@@@std@@YAPEAU?$Point_@V?$allocator@X@std@@@geometry_msgs@@AEAU12@@Z
	??$addressof@U?$pair@$$CBHPEAUNode@carrot_planner@@@std@@@std@@YAPEAU?$pair@$$CBHPEAUNode@carrot_planner@@@0@AEAU10@@Z
	??$addressof@U?$pair@$$CBV?$basic_string@DU?$char_traits@D@std@@V?$allocator@D@2@@std@@PEAVAbstractMetaObjectBase@impl@class_loader@@@std@@@std@@YAPEAU?$pair@$$CBV?$basic_string@DU?$char_traits@D@std@@V?$allocator@D@2@@std@@PEAVAbstractMetaObjectBase@impl@class_loader@@@0@AEAU10@@Z
	??$addressof@U?$pair@$$CBV?$basic_string@DU?$char_traits@D@std@@V?$allocator@D@2@@std@@V12@@std@@@std@@YAPEAU?$pair@$$CBV?$basic_string@DU?$char_traits@D@std@@V?$allocator@D@2@@std@@V12@@0@AEAU10@@Z
	??$addressof@V?$_List_unchecked_const_iterator@V?$_List_val@U?$_List_simple_types@H@std@@@std@@U_Iterator_base0@2@@std@@@std@@YAPEAV?$_List_unchecked_const_iterator@V?$_List_val@U?$_List_simple_types@H@std@@@std@@U_Iterator_base0@2@@0@AEAV10@@Z
	??$addressof@V?$_List_unchecked_iterator@V?$_List_val@U?$_List_simple_types@U?$pair@$$CBHPEAUNode@carrot_planner@@@std@@@std@@@std@@@std@@@std@@YAPEAV?$_List_unchecked_iterator@V?$_List_val@U?$_List_simple_types@U?$pair@$$CBHPEAUNode@carrot_planner@@@std@@@std@@@std@@@0@AEAV10@@Z
	??$addressof@V?$_List_val@U?$_List_simple_types@H@std@@@std@@@std@@YAPEAV?$_List_val@U?$_List_simple_types@H@std@@@0@AEAV10@@Z
	??$addressof@V?$_List_val@U?$_List_simple_types@U?$pair@$$CBHPEAUNode@carrot_planner@@@std@@@std@@@std@@@std@@YAPEAV?$_List_val@U?$_List_simple_types@U?$pair@$$CBHPEAUNode@carrot_planner@@@std@@@std@@@0@AEAV10@@Z
	??$addressof@V?$_String_val@U?$_Simple_types@D@std@@@std@@@std@@YAPEAV?$_String_val@U?$_Simple_types@D@std@@@0@AEAV10@@Z
	??$addressof@V?$_Tree_val@U?$_Tree_simple_types@U?$pair@$$CBV?$basic_string@DU?$char_traits@D@std@@V?$allocator@D@2@@std@@PEAVAbstractMetaObjectBase@impl@class_loader@@@std@@@std@@@std@@@std@@YAPEAV?$_Tree_val@U?$_Tree_simple_types@U?$pair@$$CBV?$basic_string@DU?$char_traits@D@std@@V?$allocator@D@2@@std@@PEAVAbstractMetaObjectBase@impl@class_loader@@@std@@@std@@@0@AEAV10@@Z
	??$addressof@V?$_Tree_val@U?$_Tree_simple_types@U?$pair@$$CBV?$basic_string@DU?$char_traits@D@std@@V?$allocator@D@2@@std@@V12@@std@@@std@@@std@@@std@@YAPEAV?$_Tree_val@U?$_Tree_simple_types@U?$pair@$$CBV?$basic_string@DU?$char_traits@D@std@@V?$allocator@D@2@@std@@V12@@std@@@std@@@0@AEAV10@@Z
	??$addressof@V?$_Vector_val@U?$_Simple_types@PEAUNode@carrot_planner@@@std@@@std@@@std@@YAPEAV?$_Vector_val@U?$_Simple_types@PEAUNode@carrot_planner@@@std@@@0@AEAV10@@Z
	??$addressof@V?$_Vector_val@U?$_Simple_types@U?$PoseStamped_@V?$allocator@X@std@@@geometry_msgs@@@std@@@std@@@std@@YAPEAV?$_Vector_val@U?$_Simple_types@U?$PoseStamped_@V?$allocator@X@std@@@geometry_msgs@@@std@@@0@AEAV10@@Z
	??$addressof@V?$basic_string@DU?$char_traits@D@std@@V?$allocator@D@2@@std@@@std@@YAPEAV?$basic_string@DU?$char_traits@D@std@@V?$allocator@D@2@@0@AEAV10@@Z
	??$checked_delete@V?$clone_impl@Ubad_alloc_@exception_detail@boost@@@exception_detail@boost@@@boost@@YAXPEAV?$clone_impl@Ubad_alloc_@exception_detail@boost@@@exception_detail@0@@Z
	??$checked_delete@V?$clone_impl@Ubad_exception_@exception_detail@boost@@@exception_detail@boost@@@boost@@YAXPEAV?$clone_impl@Ubad_exception_@exception_detail@boost@@@exception_detail@0@@Z
	??$construct@HAEBH@?$_Default_allocator_traits@V?$allocator@H@std@@@std@@SAXAEAV?$allocator@H@1@QEAHAEBH@Z
	??$construct@HAEBH@?$_Default_allocator_traits@V?$allocator@U?$_List_node@HPEAX@std@@@std@@@std@@SAXAEAV?$allocator@U?$_List_node@HPEAX@std@@@1@QEAHAEBH@Z
	??$construct@HH@?$_Default_allocator_traits@V?$allocator@H@std@@@std@@SAXAEAV?$allocator@H@1@QEAH$$QEAH@Z
	??$construct@PEAUNode@carrot_planner@@AEBQEAU12@@?$_Default_allocator_traits@V?$allocator@PEAUNode@carrot_planner@@@std@@@std@@SAXAEAV?$allocator@PEAUNode@carrot_planner@@@1@QEAPEAUNode@carrot_planner@@AEBQEAU34@@Z
	??$construct@PEAUNode@carrot_planner@@PEAU12@@?$_Default_allocator_traits@V?$allocator@PEAUNode@carrot_planner@@@std@@@std@@SAXAEAV?$allocator@PEAUNode@carrot_planner@@@1@QEAPEAUNode@carrot_planner@@$$QEAPEAU34@@Z
	??$construct@U?$Point_@V?$allocator@X@std@@@geometry_msgs@@AEAU12@@?$_Default_allocator_traits@V?$allocator@U?$Point_@V?$allocator@X@std@@@geometry_msgs@@@std@@@std@@SAXAEAV?$allocator@U?$Point_@V?$allocator@X@std@@@geometry_msgs@@@1@QEAU?$Point_@V?$allocator@X@std@@@geometry_msgs@@AEAU34@@Z
	??$construct@U?$Point_@V?$allocator@X@std@@@geometry_msgs@@AEBU12@@?$_Default_allocator_traits@V?$allocator@U?$Point_@V?$allocator@X@std@@@geometry_msgs@@@std@@@std@@SAXAEAV?$allocator@U?$Point_@V?$allocator@X@std@@@geometry_msgs@@@1@QEAU?$Point_@V?$allocator@X@std@@@geometry_msgs@@AEBU34@@Z
	??$construct@U?$Point_@V?$allocator@X@std@@@geometry_msgs@@U12@@?$_Default_allocator_traits@V?$allocator@U?$Point_@V?$allocator@X@std@@@geometry_msgs@@@std@@@std@@SAXAEAV?$allocator@U?$Point_@V?$allocator@X@std@@@geometry_msgs@@@1@QEAU?$Point_@V?$allocator@X@std@@@geometry_msgs@@$$QEAU34@@Z
	??$construct@U?$PoseStamped_@V?$allocator@X@std@@@geometry_msgs@@AEBU12@@?$_Default_allocator_traits@V?$allocator@U?$PoseStamped_@V?$allocator@X@std@@@geometry_msgs@@@std@@@std@@SAXAEAV?$allocator@U?$PoseStamped_@V?$allocator@X@std@@@geometry_msgs@@@1@QEAU?$PoseStamped_@V?$allocator@X@std@@@geometry_msgs@@AEBU34@@Z
	??$construct@U?$PoseStamped_@V?$allocator@X@std@@@geometry_msgs@@U12@@?$_Default_allocator_traits@V?$allocator@U?$PoseStamped_@V?$allocator@X@std@@@geometry_msgs@@@std@@@std@@SAXAEAV?$allocator@U?$PoseStamped_@V?$allocator@X@std@@@geometry_msgs@@@1@QEAU?$PoseStamped_@V?$allocator@X@std@@@geometry_msgs@@$$QEAU34@@Z
	??$construct@U?$pair@$$CBHPEAUNode@carrot_planner@@@std@@AEBUpiecewise_construct_t@2@V?$tuple@AEBH@2@V?$tuple@$$V@2@@?$_Default_allocator_traits@V?$allocator@U?$_List_node@U?$pair@$$CBHPEAUNode@carrot_planner@@@std@@PEAX@std@@@std@@@std@@SAXAEAV?$allocator@U?$_List_node@U?$pair@$$CBHPEAUNode@carrot_planner@@@std@@PEAX@std@@@1@QEAU?$pair@$$CBHPEAUNode@carrot_planner@@@1@AEBUpiecewise_construct_t@1@$$QEAV?$tuple@AEBH@1@$$QEAV?$tuple@$$V@1@@Z
	??$construct@U?$pair@$$CBV?$basic_string@DU?$char_traits@D@std@@V?$allocator@D@2@@std@@PEAVAbstractMetaObjectBase@impl@class_loader@@@std@@AEBUpiecewise_construct_t@2@V?$tuple@AEBV?$basic_string@DU?$char_traits@D@std@@V?$allocator@D@2@@std@@@2@V?$tuple@$$V@2@@?$_Default_allocator_traits@V?$allocator@U?$_Tree_node@U?$pair@$$CBV?$basic_string@DU?$char_traits@D@std@@V?$allocator@D@2@@std@@PEAVAbstractMetaObjectBase@impl@class_loader@@@std@@PEAX@std@@@std@@@std@@SAXAEAV?$allocator@U?$_Tree_node@U?$pair@$$CBV?$basic_string@DU?$char_traits@D@std@@V?$allocator@D@2@@std@@PEAVAbstractMetaObjectBase@impl@class_loader@@@std@@PEAX@std@@@1@QEAU?$pair@$$CBV?$basic_string@DU?$char_traits@D@std@@V?$allocator@D@2@@std@@PEAVAbstractMetaObjectBase@impl@class_loader@@@1@AEBUpiecewise_construct_t@1@$$QEAV?$tuple@AEBV?$basic_string@DU?$char_traits@D@std@@V?$allocator@D@2@@std@@@1@$$QEAV?$tuple@$$V@1@@Z
	??$destroy@H@?$_Default_allocator_traits@V?$allocator@U?$_List_node@HPEAX@std@@@std@@@std@@SAXAEAV?$allocator@U?$_List_node@HPEAX@std@@@1@QEAH@Z
	??$destroy@PEAUNode@carrot_planner@@@?$_Default_allocator_traits@V?$allocator@PEAUNode@carrot_planner@@@std@@@std@@SAXAEAV?$allocator@PEAUNode@carrot_planner@@@1@QEAPEAUNode@carrot_planner@@@Z
	??$destroy@U?$PoseStamped_@V?$allocator@X@std@@@geometry_msgs@@@?$_Default_allocator_traits@V?$allocator@U?$PoseStamped_@V?$allocator@X@std@@@geometry_msgs@@@std@@@std@@SAXAEAV?$allocator@U?$PoseStamped_@V?$allocator@X@std@@@geometry_msgs@@@1@QEAU?$PoseStamped_@V?$allocator@X@std@@@geometry_msgs@@@Z
	??$destroy@U?$pair@$$CBHPEAUNode@carrot_planner@@@std@@@?$_Default_allocator_traits@V?$allocator@U?$_List_node@U?$pair@$$CBHPEAUNode@carrot_planner@@@std@@PEAX@std@@@std@@@std@@SAXAEAV?$allocator@U?$_List_node@U?$pair@$$CBHPEAUNode@carrot_planner@@@std@@PEAX@std@@@1@QEAU?$pair@$$CBHPEAUNode@carrot_planner@@@1@@Z
	??$destroy@U?$pair@$$CBV?$basic_string@DU?$char_traits@D@std@@V?$allocator@D@2@@std@@PEAVAbstractMetaObjectBase@impl@class_loader@@@std@@@?$_Default_allocator_traits@V?$allocator@U?$_Tree_node@U?$pair@$$CBV?$basic_string@DU?$char_traits@D@std@@V?$allocator@D@2@@std@@PEAVAbstractMetaObjectBase@impl@class_loader@@@std@@PEAX@std@@@std@@@std@@SAXAEAV?$allocator@U?$_Tree_node@U?$pair@$$CBV?$basic_string@DU?$char_traits@D@std@@V?$allocator@D@2@@std@@PEAVAbstractMetaObjectBase@impl@class_loader@@@std@@PEAX@std@@@1@QEAU?$pair@$$CBV?$basic_string@DU?$char_traits@D@std@@V?$allocator@D@2@@std@@PEAVAbstractMetaObjectBase@impl@class_loader@@@1@@Z
	??$destroy@U?$pair@$$CBV?$basic_string@DU?$char_traits@D@std@@V?$allocator@D@2@@std@@V12@@std@@@?$_Default_allocator_traits@V?$allocator@U?$_Tree_node@U?$pair@$$CBV?$basic_string@DU?$char_traits@D@std@@V?$allocator@D@2@@std@@V12@@std@@PEAX@std@@@std@@@std@@SAXAEAV?$allocator@U?$_Tree_node@U?$pair@$$CBV?$basic_string@DU?$char_traits@D@std@@V?$allocator@D@2@@std@@V12@@std@@PEAX@std@@@1@QEAU?$pair@$$CBV?$basic_string@DU?$char_traits@D@std@@V?$allocator@D@2@@std@@V12@@1@@Z
	??$emplace@AEBH@?$_Hash@V?$_Uset_traits@HV?$_Uhash_compare@HU?$hash@H@std@@U?$equal_to@H@2@@std@@V?$allocator@H@2@$0A@@std@@@std@@QEAA?AU?$pair@V?$_List_const_iterator@V?$_List_val@U?$_List_simple_types@H@std@@@std@@@std@@_N@1@AEBH@Z
	??$enable_current_exception@U?$error_info_injector@Vthread_resource_error@boost@@@exception_detail@boost@@@boost@@YA?AV?$clone_impl@U?$error_info_injector@Vthread_resource_error@boost@@@exception_detail@boost@@@exception_detail@0@AEBU?$error_info_injector@Vthread_resource_error@boost@@@20@@Z
	??$enable_error_info@Vthread_resource_error@boost@@@boost@@YA?AU?$error_info_injector@Vthread_resource_error@boost@@@exception_detail@0@AEBVthread_resource_error@0@@Z
	??$exchange@PEAH$$T@std@@YAPEAHAEAPEAH$$QEA$$T@Z
	??$exchange@PEAU?$_List_node@HPEAX@std@@$$T@std@@YAPEAU?$_List_node@HPEAX@0@AEAPEAU10@$$QEA$$T@Z
	??$exchange@PEAU?$_List_node@U?$pair@$$CBHPEAUNode@carrot_planner@@@std@@PEAX@std@@$$T@std@@YAPEAU?$_List_node@U?$pair@$$CBHPEAUNode@carrot_planner@@@std@@PEAX@0@AEAPEAU10@$$QEA$$T@Z
	??$exchange@PEAU?$_Tree_node@U?$pair@$$CBV?$basic_string@DU?$char_traits@D@std@@V?$allocator@D@2@@std@@PEAVAbstractMetaObjectBase@impl@class_loader@@@std@@PEAX@std@@$$T@std@@YAPEAU?$_Tree_node@U?$pair@$$CBV?$basic_string@DU?$char_traits@D@std@@V?$allocator@D@2@@std@@PEAVAbstractMetaObjectBase@impl@class_loader@@@std@@PEAX@0@AEAPEAU10@$$QEA$$T@Z
	??$exchange@PEAU?$_Tree_node@U?$pair@$$CBV?$basic_string@DU?$char_traits@D@std@@V?$allocator@D@2@@std@@V12@@std@@PEAX@std@@AEAPEAU12@@std@@YAPEAU?$_Tree_node@U?$pair@$$CBV?$basic_string@DU?$char_traits@D@std@@V?$allocator@D@2@@std@@V12@@std@@PEAX@0@AEAPEAU10@0@Z
	??$fill@PEAV?$_List_unchecked_const_iterator@V?$_List_val@U?$_List_simple_types@H@std@@@std@@U_Iterator_base0@2@@std@@V12@@std@@YAXQEAV?$_List_unchecked_const_iterator@V?$_List_val@U?$_List_simple_types@H@std@@@std@@U_Iterator_base0@2@@0@0AEBV10@@Z
	??$fill@PEAV?$_List_unchecked_iterator@V?$_List_val@U?$_List_simple_types@U?$pair@$$CBHPEAUNode@carrot_planner@@@std@@@std@@@std@@@std@@V12@@std@@YAXQEAV?$_List_unchecked_iterator@V?$_List_val@U?$_List_simple_types@U?$pair@$$CBHPEAUNode@carrot_planner@@@std@@@std@@@std@@@0@0AEBV10@@Z
	??$find@X@?$_Hash@V?$_Umap_traits@HPEAUNode@carrot_planner@@V?$_Uhash_compare@HU?$hash@H@std@@U?$equal_to@H@2@@std@@V?$allocator@U?$pair@$$CBHPEAUNode@carrot_planner@@@std@@@4@$0A@@std@@@std@@QEAA?AV?$_List_iterator@V?$_List_val@U?$_List_simple_types@U?$pair@$$CBHPEAUNode@carrot_planner@@@std@@@std@@@std@@@1@AEBH@Z
	??$find@X@?$_Hash@V?$_Uset_traits@HV?$_Uhash_compare@HU?$hash@H@std@@U?$equal_to@H@2@@std@@V?$allocator@H@2@$0A@@std@@@std@@QEAA?AV?$_List_const_iterator@V?$_List_val@U?$_List_simple_types@H@std@@@std@@@1@AEBH@Z
	??$forward@AEAPEAD@std@@YAAEAPEADAEAPEAD@Z
	??$forward@AEAPEAU?$_List_node@HPEAX@std@@@std@@YAAEAPEAU?$_List_node@HPEAX@0@AEAPEAU10@@Z
	??$forward@AEAPEAU?$_List_node@U?$pair@$$CBHPEAUNode@carrot_planner@@@std@@PEAX@std@@@std@@YAAEAPEAU?$_List_node@U?$pair@$$CBHPEAUNode@carrot_planner@@@std@@PEAX@0@AEAPEAU10@@Z
	??$forward@AEAPEAU?$_Tree_node@U?$pair@$$CBV?$basic_string@DU?$char_traits@D@std@@V?$allocator@D@2@@std@@PEAVAbstractMetaObjectBase@impl@class_loader@@@std@@PEAX@std@@@std@@YAAEAPEAU?$_Tree_node@U?$pair@$$CBV?$basic_string@DU?$char_traits@D@std@@V?$allocator@D@2@@std@@PEAVAbstractMetaObjectBase@impl@class_loader@@@std@@PEAX@0@AEAPEAU10@@Z
	??$forward@AEAU?$Point_@V?$allocator@X@std@@@geometry_msgs@@@std@@YAAEAU?$Point_@V?$allocator@X@std@@@geometry_msgs@@AEAU12@@Z
	??$forward@AEBH@std@@YAAEBHAEBH@Z
	??$forward@AEBQEAD@std@@YAAEBQEADAEBQEAD@Z
	??$forward@AEBQEAU?$Point_@V?$allocator@X@std@@@geometry_msgs@@@std@@YAAEBQEAU?$Point_@V?$allocator@X@std@@@geometry_msgs@@AEBQEAU12@@Z
	??$forward@AEBQEAU?$_List_node@HPEAX@std@@@std@@YAAEBQEAU?$_List_node@HPEAX@0@AEBQEAU10@@Z
	??$forward@AEBQEAU?$_List_node@U?$pair@$$CBHPEAUNode@carrot_planner@@@std@@PEAX@std@@@std@@YAAEBQEAU?$_List_node@U?$pair@$$CBHPEAUNode@carrot_planner@@@std@@PEAX@0@AEBQEAU10@@Z
	??$forward@AEBQEAU?$_Tree_node@U?$pair@$$CBV?$basic_string@DU?$char_traits@D@std@@V?$allocator@D@2@@std@@PEAVAbstractMetaObjectBase@impl@class_loader@@@std@@PEAX@std@@@std@@YAAEBQEAU?$_Tree_node@U?$pair@$$CBV?$basic_string@DU?$char_traits@D@std@@V?$allocator@D@2@@std@@PEAVAbstractMetaObjectBase@impl@class_loader@@@std@@PEAX@0@AEBQEAU10@@Z
	??$forward@AEBQEAU?$_Tree_node@U?$pair@$$CBV?$basic_string@DU?$char_traits@D@std@@V?$allocator@D@2@@std@@V12@@std@@PEAX@std@@@std@@YAAEBQEAU?$_Tree_node@U?$pair@$$CBV?$basic_string@DU?$char_traits@D@std@@V?$allocator@D@2@@std@@V12@@std@@PEAX@0@AEBQEAU10@@Z
	??$forward@AEBQEAUNode@carrot_planner@@@std@@YAAEBQEAUNode@carrot_planner@@AEBQEAU12@@Z
	??$forward@AEBU?$Point_@V?$allocator@X@std@@@geometry_msgs@@@std@@YAAEBU?$Point_@V?$allocator@X@std@@@geometry_msgs@@AEBU12@@Z
	??$forward@AEBU?$PoseStamped_@V?$allocator@X@std@@@geometry_msgs@@@std@@YAAEBU?$PoseStamped_@V?$allocator@X@std@@@geometry_msgs@@AEBU12@@Z
	??$forward@AEBU?$less@V?$basic_string@DU?$char_traits@D@std@@V?$allocator@D@2@@std@@@std@@@std@@YAAEBU?$less@V?$basic_string@DU?$char_traits@D@std@@V?$allocator@D@2@@std@@@0@AEBU10@@Z
	??$forward@AEBUpiecewise_construct_t@std@@@std@@YAAEBUpiecewise_construct_t@0@AEBU10@@Z
	??$forward@AEBV?$_List_unchecked_const_iterator@V?$_List_val@U?$_List_simple_types@H@std@@@std@@U_Iterator_base0@2@@std@@@std@@YAAEBV?$_List_unchecked_const_iterator@V?$_List_val@U?$_List_simple_types@H@std@@@std@@U_Iterator_base0@2@@0@AEBV10@@Z
	??$forward@AEBV?$_List_unchecked_iterator@V?$_List_val@U?$_List_simple_types@U?$pair@$$CBHPEAUNode@carrot_planner@@@std@@@std@@@std@@@std@@@std@@YAAEBV?$_List_unchecked_iterator@V?$_List_val@U?$_List_simple_types@U?$pair@$$CBHPEAUNode@carrot_planner@@@std@@@std@@@std@@@0@AEBV10@@Z
	??$forward@AEBV?$allocator@H@std@@@std@@YAAEBV?$allocator@H@0@AEBV10@@Z
	??$forward@AEBV?$allocator@U?$pair@$$CBHPEAUNode@carrot_planner@@@std@@@std@@@std@@YAAEBV?$allocator@U?$pair@$$CBHPEAUNode@carrot_planner@@@std@@@0@AEBV10@@Z
	??$forward@AEBV?$basic_string@DU?$char_traits@D@std@@V?$allocator@D@2@@std@@@std@@YAAEBV?$basic_string@DU?$char_traits@D@std@@V?$allocator@D@2@@0@AEBV10@@Z
	??$forward@H@std@@YA$$QEAHAEAH@Z
	??$forward@M@std@@YA$$QEAMAEAM@Z
	??$forward@PEAH@std@@YA$$QEAPEAHAEAPEAH@Z
	??$forward@PEAU?$_List_node@U?$pair@$$CBHPEAUNode@carrot_planner@@@std@@PEAX@std@@@std@@YA$$QEAPEAU?$_List_node@U?$pair@$$CBHPEAUNode@carrot_planner@@@std@@PEAX@0@AEAPEAU10@@Z
	??$forward@PEAU?$_Tree_node@U?$pair@$$CBV?$basic_string@DU?$char_traits@D@std@@V?$allocator@D@2@@std@@PEAVAbstractMetaObjectBase@impl@class_loader@@@std@@PEAX@std@@@std@@YA$$QEAPEAU?$_Tree_node@U?$pair@$$CBV?$basic_string@DU?$char_traits@D@std@@V?$allocator@D@2@@std@@PEAVAbstractMetaObjectBase@impl@class_loader@@@std@@PEAX@0@AEAPEAU10@@Z
	??$forward@PEAUNode@carrot_planner@@@std@@YA$$QEAPEAUNode@carrot_planner@@AEAPEAU12@@Z
	??$forward@U?$Point_@V?$allocator@X@std@@@geometry_msgs@@@std@@YA$$QEAU?$Point_@V?$allocator@X@std@@@geometry_msgs@@AEAU12@@Z
	??$forward@U?$PoseStamped_@V?$allocator@X@std@@@geometry_msgs@@@std@@YA$$QEAU?$PoseStamped_@V?$allocator@X@std@@@geometry_msgs@@AEAU12@@Z
	??$forward@U_Zero_then_variadic_args_t@std@@@std@@YA$$QEAU_Zero_then_variadic_args_t@0@AEAU10@@Z
	??$forward@V?$_List_iterator@V?$_List_val@U?$_List_simple_types@H@std@@@std@@@std@@@std@@YA$$QEAV?$_List_iterator@V?$_List_val@U?$_List_simple_types@H@std@@@std@@@0@AEAV10@@Z
	??$forward@V?$allocator@D@std@@@std@@YA$$QEAV?$allocator@D@0@AEAV10@@Z
	??$forward@V?$allocator@H@std@@@std@@YA$$QEAV?$allocator@H@0@AEAV10@@Z
	??$forward@V?$allocator@U?$Point_@V?$allocator@X@std@@@geometry_msgs@@@std@@@std@@YA$$QEAV?$allocator@U?$Point_@V?$allocator@X@std@@@geometry_msgs@@@0@AEAV10@@Z
	??$forward@V?$tuple@$$V@std@@@std@@YA$$QEAV?$tuple@$$V@0@AEAV10@@Z
	??$forward@V?$tuple@AEBH@std@@@std@@YA$$QEAV?$tuple@AEBH@0@AEAV10@@Z
	??$forward@V?$tuple@AEBV?$basic_string@DU?$char_traits@D@std@@V?$allocator@D@2@@std@@@std@@@std@@YA$$QEAV?$tuple@AEBV?$basic_string@DU?$char_traits@D@std@@V?$allocator@D@2@@std@@@0@AEAV10@@Z
	??$forward@_N@std@@YA$$QEA_NAEA_N@Z
	??$forward_as_tuple@$$V@std@@YA?AV?$tuple@$$V@0@XZ
	??$forward_as_tuple@AEBH@std@@YA?AV?$tuple@AEBH@0@AEBH@Z
	??$forward_as_tuple@AEBV?$basic_string@DU?$char_traits@D@std@@V?$allocator@D@2@@std@@@std@@YA?AV?$tuple@AEBV?$basic_string@DU?$char_traits@D@std@@V?$allocator@D@2@@std@@@0@AEBV?$basic_string@DU?$char_traits@D@std@@V?$allocator@D@2@@0@@Z
	??$getFactoryMapForBaseClass@VBaseGlobalPlanner@nav_core@@@impl@class_loader@@YAAEAV?$map@V?$basic_string@DU?$char_traits@D@std@@V?$allocator@D@2@@std@@PEAVAbstractMetaObjectBase@impl@class_loader@@U?$less@V?$basic_string@DU?$char_traits@D@std@@V?$allocator@D@2@@std@@@2@V?$allocator@U?$pair@$$CBV?$basic_string@DU?$char_traits@D@std@@V?$allocator@D@2@@std@@PEAVAbstractMetaObjectBase@impl@class_loader@@@std@@@2@@std@@XZ
	??$get_static_exception_object@Ubad_alloc_@exception_detail@boost@@@exception_detail@boost@@YA?AVexception_ptr@1@XZ
	??$get_static_exception_object@Ubad_exception_@exception_detail@boost@@@exception_detail@boost@@YA?AVexception_ptr@1@XZ
	??$max@_K@std@@YAAEB_KAEB_K0@Z
	??$min@_K@std@@YAAEB_KAEB_K0@Z
	??$move@AEAH@std@@YA$$QEAHAEAH@Z
	??$move@AEAPEAU?$Point_@V?$allocator@X@std@@@geometry_msgs@@@std@@YA$$QEAPEAU?$Point_@V?$allocator@X@std@@@geometry_msgs@@AEAPEAU12@@Z
	??$move@AEAPEAUNode@carrot_planner@@@std@@YA$$QEAPEAUNode@carrot_planner@@AEAPEAU12@@Z
	??$move@AEAU?$Point_@V?$allocator@X@std@@@geometry_msgs@@@std@@YA$$QEAU?$Point_@V?$allocator@X@std@@@geometry_msgs@@AEAU12@@Z
	??$move@AEAU?$PoseStamped_@V?$allocator@X@std@@@geometry_msgs@@@std@@YA$$QEAU?$PoseStamped_@V?$allocator@X@std@@@geometry_msgs@@AEAU12@@Z
	??$move@AEAV?$allocator@D@std@@@std@@YA$$QEAV?$allocator@D@0@AEAV10@@Z
	??$move@AEAV?$allocator@H@std@@@std@@YA$$QEAV?$allocator@H@0@AEAV10@@Z
	??$move@AEAV?$error_info@Uthrow_file_@boost@@PEBD@boost@@@std@@YA$$QEAV?$error_info@Uthrow_file_@boost@@PEBD@boost@@AEAV12@@Z
	??$move@AEAV?$error_info@Uthrow_function_@boost@@PEBD@boost@@@std@@YA$$QEAV?$error_info@Uthrow_function_@boost@@PEBD@boost@@AEAV12@@Z
	??$move@AEAV?$error_info@Uthrow_line_@boost@@H@boost@@@std@@YA$$QEAV?$error_info@Uthrow_line_@boost@@H@boost@@AEAV12@@Z
	??$move@AEAV?$tuple@AEBH@std@@@std@@YA$$QEAV?$tuple@AEBH@0@AEAV10@@Z
	??$move@AEAV?$tuple@AEBV?$basic_string@DU?$char_traits@D@std@@V?$allocator@D@2@@std@@@std@@@std@@YA$$QEAV?$tuple@AEBV?$basic_string@DU?$char_traits@D@std@@V?$allocator@D@2@@std@@@0@AEAV10@@Z
	??$param@N@NodeHandle@ros@@QEBA_NAEBV?$basic_string@DU?$char_traits@D@std@@V?$allocator@D@2@@std@@AEANAEBN@Z
	??$pop_heap@V?$_Vector_iterator@V?$_Vector_val@U?$_Simple_types@PEAUNode@carrot_planner@@@std@@@std@@@std@@UNodeComparator@carrot_planner@@@std@@YAXV?$_Vector_iterator@V?$_Vector_val@U?$_Simple_types@PEAUNode@carrot_planner@@@std@@@std@@@0@0UNodeComparator@carrot_planner@@@Z
	??$pow@NH$0A@@@YANNH@Z
	??$push_heap@V?$_Vector_iterator@V?$_Vector_val@U?$_Simple_types@PEAUNode@carrot_planner@@@std@@@std@@@std@@UNodeComparator@carrot_planner@@@std@@YAXV?$_Vector_iterator@V?$_Vector_val@U?$_Simple_types@PEAUNode@carrot_planner@@@std@@@std@@@0@0UNodeComparator@carrot_planner@@@Z
	??$registerPlugin@VCarrotPlanner@carrot_planner@@VBaseGlobalPlanner@nav_core@@@impl@class_loader@@YAXAEBV?$basic_string@DU?$char_traits@D@std@@V?$allocator@D@2@@std@@0@Z
	??$reverse@V?$_Vector_iterator@V?$_Vector_val@U?$_Simple_types@U?$PoseStamped_@V?$allocator@X@std@@@geometry_msgs@@@std@@@std@@@std@@@std@@YAXV?$_Vector_iterator@V?$_Vector_val@U?$_Simple_types@U?$PoseStamped_@V?$allocator@X@std@@@geometry_msgs@@@std@@@std@@@0@0@Z
	??$set@V?$clone_impl@Ubad_alloc_@exception_detail@boost@@@exception_detail@boost@@@?$set_info_rv@V?$error_info@Uthrow_file_@boost@@PEBD@boost@@@exception_detail@boost@@SAAEBV?$clone_impl@Ubad_alloc_@exception_detail@boost@@@12@AEBV312@$$QEAV?$error_info@Uthrow_file_@boost@@PEBD@2@@Z
	??$set@V?$clone_impl@Ubad_alloc_@exception_detail@boost@@@exception_detail@boost@@@?$set_info_rv@V?$error_info@Uthrow_function_@boost@@PEBD@boost@@@exception_detail@boost@@SAAEBV?$clone_impl@Ubad_alloc_@exception_detail@boost@@@12@AEBV312@$$QEAV?$error_info@Uthrow_function_@boost@@PEBD@2@@Z
	??$set@V?$clone_impl@Ubad_alloc_@exception_detail@boost@@@exception_detail@boost@@@?$set_info_rv@V?$error_info@Uthrow_line_@boost@@H@boost@@@exception_detail@boost@@SAAEBV?$clone_impl@Ubad_alloc_@exception_detail@boost@@@12@AEBV312@$$QEAV?$error_info@Uthrow_line_@boost@@H@2@@Z
	??$set@V?$clone_impl@Ubad_exception_@exception_detail@boost@@@exception_detail@boost@@@?$set_info_rv@V?$error_info@Uthrow_file_@boost@@PEBD@boost@@@exception_detail@boost@@SAAEBV?$clone_impl@Ubad_exception_@exception_detail@boost@@@12@AEBV312@$$QEAV?$error_info@Uthrow_file_@boost@@PEBD@2@@Z
	??$set@V?$clone_impl@Ubad_exception_@exception_detail@boost@@@exception_detail@boost@@@?$set_info_rv@V?$error_info@Uthrow_function_@boost@@PEBD@boost@@@exception_detail@boost@@SAAEBV?$clone_impl@Ubad_exception_@exception_detail@boost@@@12@AEBV312@$$QEAV?$error_info@Uthrow_function_@boost@@PEBD@2@@Z
	??$set@V?$clone_impl@Ubad_exception_@exception_detail@boost@@@exception_detail@boost@@@?$set_info_rv@V?$error_info@Uthrow_line_@boost@@H@boost@@@exception_detail@boost@@SAAEBV?$clone_impl@Ubad_exception_@exception_detail@boost@@@12@AEBV312@$$QEAV?$error_info@Uthrow_line_@boost@@H@2@@Z
	??$set_info@V?$clone_impl@Ubad_alloc_@exception_detail@boost@@@exception_detail@boost@@Uthrow_file_@3@PEBD@exception_detail@boost@@YAAEBV?$clone_impl@Ubad_alloc_@exception_detail@boost@@@01@AEBV201@$$QEAV?$error_info@Uthrow_file_@boost@@PEBD@1@@Z
	??$set_info@V?$clone_impl@Ubad_alloc_@exception_detail@boost@@@exception_detail@boost@@Uthrow_function_@3@PEBD@exception_detail@boost@@YAAEBV?$clone_impl@Ubad_alloc_@exception_detail@boost@@@01@AEBV201@$$QEAV?$error_info@Uthrow_function_@boost@@PEBD@1@@Z
	??$set_info@V?$clone_impl@Ubad_alloc_@exception_detail@boost@@@exception_detail@boost@@Uthrow_line_@3@H@exception_detail@boost@@YAAEBV?$clone_impl@Ubad_alloc_@exception_detail@boost@@@01@AEBV201@$$QEAV?$error_info@Uthrow_line_@boost@@H@1@@Z
	??$set_info@V?$clone_impl@Ubad_exception_@exception_detail@boost@@@exception_detail@boost@@Uthrow_file_@3@PEBD@exception_detail@boost@@YAAEBV?$clone_impl@Ubad_exception_@exception_detail@boost@@@01@AEBV201@$$QEAV?$error_info@Uthrow_file_@boost@@PEBD@1@@Z
	??$set_info@V?$clone_impl@Ubad_exception_@exception_detail@boost@@@exception_detail@boost@@Uthrow_function_@3@PEBD@exception_detail@boost@@YAAEBV?$clone_impl@Ubad_exception_@exception_detail@boost@@@01@AEBV201@$$QEAV?$error_info@Uthrow_function_@boost@@PEBD@1@@Z
	??$set_info@V?$clone_impl@Ubad_exception_@exception_detail@boost@@@exception_detail@boost@@Uthrow_line_@3@H@exception_detail@boost@@YAAEBV?$clone_impl@Ubad_exception_@exception_detail@boost@@@01@AEBV201@$$QEAV?$error_info@Uthrow_line_@boost@@H@1@@Z
	??$sp_pointer_construct@$$CBVclone_base@exception_detail@boost@@V?$clone_impl@Ubad_alloc_@exception_detail@boost@@@23@@detail@boost@@YAXPEAV?$shared_ptr@$$CBVclone_base@exception_detail@boost@@@1@PEAV?$clone_impl@Ubad_alloc_@exception_detail@boost@@@exception_detail@1@AEAVshared_count@01@@Z
	??$sp_pointer_construct@$$CBVclone_base@exception_detail@boost@@V?$clone_impl@Ubad_exception_@exception_detail@boost@@@23@@detail@boost@@YAXPEAV?$shared_ptr@$$CBVclone_base@exception_detail@boost@@@1@PEAV?$clone_impl@Ubad_exception_@exception_detail@boost@@@exception_detail@1@AEAVshared_count@01@@Z
	??$swap@U?$PoseStamped_@V?$allocator@X@std@@@geometry_msgs@@$0A@@std@@YAXAEAU?$PoseStamped_@V?$allocator@X@std@@@geometry_msgs@@0@Z
	??$throw_exception@Vthread_resource_error@boost@@@boost@@YAXAEBVthread_resource_error@0@@Z
	??$uninitialized_fill@PEAV?$_List_unchecked_const_iterator@V?$_List_val@U?$_List_simple_types@H@std@@@std@@U_Iterator_base0@2@@std@@V12@@std@@YAXQEAV?$_List_unchecked_const_iterator@V?$_List_val@U?$_List_simple_types@H@std@@@std@@U_Iterator_base0@2@@0@0AEBV10@@Z
	??$uninitialized_fill@PEAV?$_List_unchecked_iterator@V?$_List_val@U?$_List_simple_types@U?$pair@$$CBHPEAUNode@carrot_planner@@@std@@@std@@@std@@@std@@V12@@std@@YAXQEAV?$_List_unchecked_iterator@V?$_List_val@U?$_List_simple_types@U?$pair@$$CBHPEAUNode@carrot_planner@@@std@@@std@@@std@@@0@0AEBV10@@Z
	??0?$AbstractMetaObject@VBaseGlobalPlanner@nav_core@@@impl@class_loader@@QEAA@AEBV?$basic_string@DU?$char_traits@D@std@@V?$allocator@D@2@@std@@0@Z
	??0?$Header_@V?$allocator@X@std@@@std_msgs@@QEAA@$$QEAU01@@Z
	??0?$Header_@V?$allocator@X@std@@@std_msgs@@QEAA@AEBU01@@Z
	??0?$Header_@V?$allocator@X@std@@@std_msgs@@QEAA@XZ
	??0?$MetaObject@VCarrotPlanner@carrot_planner@@VBaseGlobalPlanner@nav_core@@@impl@class_loader@@QEAA@AEBV?$basic_string@DU?$char_traits@D@std@@V?$allocator@D@2@@std@@0@Z
	??0?$Point_@V?$allocator@X@std@@@geometry_msgs@@QEAA@XZ
	??0?$PoseStamped_@V?$allocator@X@std@@@geometry_msgs@@QEAA@$$QEAU01@@Z
	??0?$PoseStamped_@V?$allocator@X@std@@@geometry_msgs@@QEAA@AEBU01@@Z
	??0?$PoseStamped_@V?$allocator@X@std@@@geometry_msgs@@QEAA@XZ
	??0?$Pose_@V?$allocator@X@std@@@geometry_msgs@@QEAA@XZ
	??0?$Quaternion_@V?$allocator@X@std@@@geometry_msgs@@QEAA@XZ
	??0?$_Alloc_construct_ptr@V?$allocator@U?$_List_node@HPEAX@std@@@std@@@std@@QEAA@AEAV?$allocator@U?$_List_node@HPEAX@std@@@1@@Z
	??0?$_Alloc_construct_ptr@V?$allocator@U?$_List_node@U?$pair@$$CBHPEAUNode@carrot_planner@@@std@@PEAX@std@@@std@@@std@@QEAA@AEAV?$allocator@U?$_List_node@U?$pair@$$CBHPEAUNode@carrot_planner@@@std@@PEAX@std@@@1@@Z
	??0?$_Alloc_construct_ptr@V?$allocator@U?$_Tree_node@U?$pair@$$CBV?$basic_string@DU?$char_traits@D@std@@V?$allocator@D@2@@std@@PEAVAbstractMetaObjectBase@impl@class_loader@@@std@@PEAX@std@@@std@@@std@@QEAA@AEAV?$allocator@U?$_Tree_node@U?$pair@$$CBV?$basic_string@DU?$char_traits@D@std@@V?$allocator@D@2@@std@@PEAVAbstractMetaObjectBase@impl@class_loader@@@std@@PEAX@std@@@1@@Z
	??0?$_Atomic_integral@H$03@std@@QEAA@H@Z
	??0?$_Atomic_integral_facade@H@std@@QEAA@H@Z
	??0?$_Atomic_storage@H$03@std@@QEAA@H@Z
	??0?$_Hash@V?$_Umap_traits@HPEAUNode@carrot_planner@@V?$_Uhash_compare@HU?$hash@H@std@@U?$equal_to@H@2@@std@@V?$allocator@U?$pair@$$CBHPEAUNode@carrot_planner@@@std@@@4@$0A@@std@@@std@@IEAA@AEBV?$_Uhash_compare@HU?$hash@H@std@@U?$equal_to@H@2@@1@AEBV?$allocator@U?$pair@$$CBHPEAUNode@carrot_planner@@@std@@@1@@Z
	??0?$_Hash@V?$_Uset_traits@HV?$_Uhash_compare@HU?$hash@H@std@@U?$equal_to@H@2@@std@@V?$allocator@H@2@$0A@@std@@@std@@IEAA@AEBV?$_Uhash_compare@HU?$hash@H@std@@U?$equal_to@H@2@@1@AEBV?$allocator@H@1@@Z
	??0?$_List_const_iterator@V?$_List_val@U?$_List_simple_types@H@std@@@std@@@std@@QEAA@PEAU?$_List_node@HPEAX@1@PEBV?$_List_val@U?$_List_simple_types@H@std@@@1@@Z
	??0?$_List_const_iterator@V?$_List_val@U?$_List_simple_types@U?$pair@$$CBHPEAUNode@carrot_planner@@@std@@@std@@@std@@@std@@QEAA@PEAU?$_List_node@U?$pair@$$CBHPEAUNode@carrot_planner@@@std@@PEAX@1@PEBV?$_List_val@U?$_List_simple_types@U?$pair@$$CBHPEAUNode@carrot_planner@@@std@@@std@@@1@@Z
	??0?$_List_iterator@V?$_List_val@U?$_List_simple_types@H@std@@@std@@@std@@QEAA@PEAU?$_List_node@HPEAX@1@PEBV?$_List_val@U?$_List_simple_types@H@std@@@1@@Z
	??0?$_List_iterator@V?$_List_val@U?$_List_simple_types@U?$pair@$$CBHPEAUNode@carrot_planner@@@std@@@std@@@std@@@std@@QEAA@PEAU?$_List_node@U?$pair@$$CBHPEAUNode@carrot_planner@@@std@@PEAX@1@PEBV?$_List_val@U?$_List_simple_types@U?$pair@$$CBHPEAUNode@carrot_planner@@@std@@@std@@@1@@Z
	??0?$_List_unchecked_const_iterator@V?$_List_val@U?$_List_simple_types@H@std@@@std@@U_Iterator_base0@2@@std@@QEAA@PEAU?$_List_node@HPEAX@1@PEBV?$_List_val@U?$_List_simple_types@H@std@@@1@@Z
	??0?$_List_unchecked_const_iterator@V?$_List_val@U?$_List_simple_types@U?$pair@$$CBHPEAUNode@carrot_planner@@@std@@@std@@@std@@U_Iterator_base0@2@@std@@QEAA@PEAU?$_List_node@U?$pair@$$CBHPEAUNode@carrot_planner@@@std@@PEAX@1@PEBV?$_List_val@U?$_List_simple_types@U?$pair@$$CBHPEAUNode@carrot_planner@@@std@@@std@@@1@@Z
	??0?$_List_unchecked_iterator@V?$_List_val@U?$_List_simple_types@H@std@@@std@@@std@@QEAA@PEAU?$_List_node@HPEAX@1@PEBV?$_List_val@U?$_List_simple_types@H@std@@@1@@Z
	??0?$_List_unchecked_iterator@V?$_List_val@U?$_List_simple_types@U?$pair@$$CBHPEAUNode@carrot_planner@@@std@@@std@@@std@@@std@@QEAA@PEAU?$_List_node@U?$pair@$$CBHPEAUNode@carrot_planner@@@std@@PEAX@1@PEBV?$_List_val@U?$_List_simple_types@U?$pair@$$CBHPEAUNode@carrot_planner@@@std@@@std@@@1@@Z
	??0?$_List_val@U?$_List_simple_types@H@std@@@std@@QEAA@XZ
	??0?$_List_val@U?$_List_simple_types@U?$pair@$$CBHPEAUNode@carrot_planner@@@std@@@std@@@std@@QEAA@XZ
	??0?$_String_val@U?$_Simple_types@D@std@@@std@@QEAA@XZ
	??0?$_Tree@V?$_Tmap_traits@V?$basic_string@DU?$char_traits@D@std@@V?$allocator@D@2@@std@@V12@U?$less@V?$basic_string@DU?$char_traits@D@std@@V?$allocator@D@2@@std@@@2@V?$allocator@U?$pair@$$CBV?$basic_string@DU?$char_traits@D@std@@V?$allocator@D@2@@std@@V12@@std@@@2@$0A@@std@@@std@@QEAA@AEBU?$less@V?$basic_string@DU?$char_traits@D@std@@V?$allocator@D@2@@std@@@1@@Z
	??0?$_Tree_const_iterator@V?$_Tree_val@U?$_Tree_simple_types@U?$pair@$$CBV?$basic_string@DU?$char_traits@D@std@@V?$allocator@D@2@@std@@PEAVAbstractMetaObjectBase@impl@class_loader@@@std@@@std@@@std@@@std@@QEAA@PEAU?$_Tree_node@U?$pair@$$CBV?$basic_string@DU?$char_traits@D@std@@V?$allocator@D@2@@std@@PEAVAbstractMetaObjectBase@impl@class_loader@@@std@@PEAX@1@PEBV?$_Tree_val@U?$_Tree_simple_types@U?$pair@$$CBV?$basic_string@DU?$char_traits@D@std@@V?$allocator@D@2@@std@@PEAVAbstractMetaObjectBase@impl@class_loader@@@std@@@std@@@1@@Z
	??0?$_Tree_iterator@V?$_Tree_val@U?$_Tree_simple_types@U?$pair@$$CBV?$basic_string@DU?$char_traits@D@std@@V?$allocator@D@2@@std@@PEAVAbstractMetaObjectBase@impl@class_loader@@@std@@@std@@@std@@@std@@QEAA@PEAU?$_Tree_node@U?$pair@$$CBV?$basic_string@DU?$char_traits@D@std@@V?$allocator@D@2@@std@@PEAVAbstractMetaObjectBase@impl@class_loader@@@std@@PEAX@1@PEBV?$_Tree_val@U?$_Tree_simple_types@U?$pair@$$CBV?$basic_string@DU?$char_traits@D@std@@V?$allocator@D@2@@std@@PEAVAbstractMetaObjectBase@impl@class_loader@@@std@@@std@@@1@@Z
	??0?$_Tree_temp_node_alloc@V?$allocator@U?$_Tree_node@U?$pair@$$CBV?$basic_string@DU?$char_traits@D@std@@V?$allocator@D@2@@std@@PEAVAbstractMetaObjectBase@impl@class_loader@@@std@@PEAX@std@@@std@@@std@@QEAA@AEAV?$allocator@U?$_Tree_node@U?$pair@$$CBV?$basic_string@DU?$char_traits@D@std@@V?$allocator@D@2@@std@@PEAVAbstractMetaObjectBase@impl@class_loader@@@std@@PEAX@std@@@1@@Z
	??0?$_Tree_unchecked_const_iterator@V?$_Tree_val@U?$_Tree_simple_types@U?$pair@$$CBV?$basic_string@DU?$char_traits@D@std@@V?$allocator@D@2@@std@@PEAVAbstractMetaObjectBase@impl@class_loader@@@std@@@std@@@std@@U_Iterator_base0@2@@std@@QEAA@PEAU?$_Tree_node@U?$pair@$$CBV?$basic_string@DU?$char_traits@D@std@@V?$allocator@D@2@@std@@PEAVAbstractMetaObjectBase@impl@class_loader@@@std@@PEAX@1@PEBV?$_Tree_val@U?$_Tree_simple_types@U?$pair@$$CBV?$basic_string@DU?$char_traits@D@std@@V?$allocator@D@2@@std@@PEAVAbstractMetaObjectBase@impl@class_loader@@@std@@@std@@@1@@Z
	??0?$_Tree_val@U?$_Tree_simple_types@U?$pair@$$CBV?$basic_string@DU?$char_traits@D@std@@V?$allocator@D@2@@std@@V12@@std@@@std@@@std@@QEAA@XZ
	??0?$_Uhash_compare@HU?$hash@H@std@@U?$equal_to@H@2@@std@@QEAA@XZ
	??0?$_Umap_traits@HPEAUNode@carrot_planner@@V?$_Uhash_compare@HU?$hash@H@std@@U?$equal_to@H@2@@std@@V?$allocator@U?$pair@$$CBHPEAUNode@carrot_planner@@@std@@@4@$0A@@std@@QEAA@AEBV?$_Uhash_compare@HU?$hash@H@std@@U?$equal_to@H@2@@1@@Z
	??0?$_Uninitialized_backout@PEAV?$_List_unchecked_const_iterator@V?$_List_val@U?$_List_simple_types@H@std@@@std@@U_Iterator_base0@2@@std@@@std@@QEAA@PEAV?$_List_unchecked_const_iterator@V?$_List_val@U?$_List_simple_types@H@std@@@std@@U_Iterator_base0@2@@1@@Z
	??0?$_Uninitialized_backout@PEAV?$_List_unchecked_iterator@V?$_List_val@U?$_List_simple_types@U?$pair@$$CBHPEAUNode@carrot_planner@@@std@@@std@@@std@@@std@@@std@@QEAA@PEAV?$_List_unchecked_iterator@V?$_List_val@U?$_List_simple_types@U?$pair@$$CBHPEAUNode@carrot_planner@@@std@@@std@@@std@@@1@@Z
	??0?$_Uninitialized_backout_al@V?$allocator@H@std@@@std@@QEAA@PEAHAEAV?$allocator@H@1@@Z
	??0?$_Uninitialized_backout_al@V?$allocator@PEAUNode@carrot_planner@@@std@@@std@@QEAA@PEAPEAUNode@carrot_planner@@AEAV?$allocator@PEAUNode@carrot_planner@@@1@@Z
	??0?$_Uninitialized_backout_al@V?$allocator@U?$Point_@V?$allocator@X@std@@@geometry_msgs@@@std@@@std@@QEAA@PEAU?$Point_@V?$allocator@X@std@@@geometry_msgs@@AEAV?$allocator@U?$Point_@V?$allocator@X@std@@@geometry_msgs@@@1@@Z
	??0?$_Uninitialized_backout_al@V?$allocator@U?$PoseStamped_@V?$allocator@X@std@@@geometry_msgs@@@std@@@std@@QEAA@PEAU?$PoseStamped_@V?$allocator@X@std@@@geometry_msgs@@AEAV?$allocator@U?$PoseStamped_@V?$allocator@X@std@@@geometry_msgs@@@1@@Z
	??0?$_Uset_traits@HV?$_Uhash_compare@HU?$hash@H@std@@U?$equal_to@H@2@@std@@V?$allocator@H@2@$0A@@std@@QEAA@AEBV?$_Uhash_compare@HU?$hash@H@std@@U?$equal_to@H@2@@1@@Z
	??0?$_Vector_const_iterator@V?$_Vector_val@U?$_Simple_types@PEAUNode@carrot_planner@@@std@@@std@@@std@@QEAA@PEAPEAUNode@carrot_planner@@PEBU_Container_base0@1@@Z
	??0?$_Vector_const_iterator@V?$_Vector_val@U?$_Simple_types@U?$PoseStamped_@V?$allocator@X@std@@@geometry_msgs@@@std@@@std@@@std@@QEAA@PEAU?$PoseStamped_@V?$allocator@X@std@@@geometry_msgs@@PEBU_Container_base0@1@@Z
	??0?$_Vector_iterator@V?$_Vector_val@U?$_Simple_types@PEAUNode@carrot_planner@@@std@@@std@@@std@@QEAA@PEAPEAUNode@carrot_planner@@PEBU_Container_base0@1@@Z
	??0?$_Vector_iterator@V?$_Vector_val@U?$_Simple_types@U?$PoseStamped_@V?$allocator@X@std@@@geometry_msgs@@@std@@@std@@@std@@QEAA@PEAU?$PoseStamped_@V?$allocator@X@std@@@geometry_msgs@@PEBU_Container_base0@1@@Z
	??0?$_Vector_val@U?$_Simple_types@H@std@@@std@@QEAA@PEAH00@Z
	??0?$_Vector_val@U?$_Simple_types@H@std@@@std@@QEAA@XZ
	??0?$_Vector_val@U?$_Simple_types@PEAUNode@carrot_planner@@@std@@@std@@QEAA@XZ
	??0?$_Vector_val@U?$_Simple_types@U?$Point_@V?$allocator@X@std@@@geometry_msgs@@@std@@@std@@QEAA@XZ
	??0?$_Vector_val@U?$_Simple_types@V?$_List_unchecked_const_iterator@V?$_List_val@U?$_List_simple_types@H@std@@@std@@U_Iterator_base0@2@@std@@@std@@@std@@QEAA@XZ
	??0?$_Vector_val@U?$_Simple_types@V?$_List_unchecked_iterator@V?$_List_val@U?$_List_simple_types@U?$pair@$$CBHPEAUNode@carrot_planner@@@std@@@std@@@std@@@std@@@std@@@std@@QEAA@XZ
	??0?$allocator@D@std@@QEAA@XZ
	??0?$allocator@H@std@@QEAA@XZ
	??0?$allocator@PEAUNode@carrot_planner@@@std@@QEAA@XZ
	??0?$allocator@U?$Point_@V?$allocator@X@std@@@geometry_msgs@@@std@@QEAA@XZ
	??0?$allocator@U?$_Tree_node@U?$pair@$$CBV?$basic_string@DU?$char_traits@D@std@@V?$allocator@D@2@@std@@V12@@std@@PEAX@std@@@std@@QEAA@XZ
	??0?$allocator@U?$pair@$$CBHPEAUNode@carrot_planner@@@std@@@std@@QEAA@XZ
	??0?$atomic@H@std@@QEAA@H@Z
	??0?$basic_string@DU?$char_traits@D@std@@V?$allocator@D@2@@std@@QEAA@$$QEAV01@@Z
	??0?$basic_string@DU?$char_traits@D@std@@V?$allocator@D@2@@std@@QEAA@AEBV01@@Z
	??0?$basic_string@DU?$char_traits@D@std@@V?$allocator@D@2@@std@@QEAA@QEBD@Z
	??0?$basic_string@DU?$char_traits@D@std@@V?$allocator@D@2@@std@@QEAA@U_String_constructor_concat_tag@1@AEBV01@QEBD_K23@Z
	??0?$basic_string@DU?$char_traits@D@std@@V?$allocator@D@2@@std@@QEAA@XZ
	??0?$clone_impl@U?$error_info_injector@Vthread_resource_error@boost@@@exception_detail@boost@@@exception_detail@boost@@AEAA@AEBV012@Uclone_tag@012@@Z
	??0?$clone_impl@U?$error_info_injector@Vthread_resource_error@boost@@@exception_detail@boost@@@exception_detail@boost@@QEAA@AEBU?$error_info_injector@Vthread_resource_error@boost@@@12@@Z
	??0?$clone_impl@U?$error_info_injector@Vthread_resource_error@boost@@@exception_detail@boost@@@exception_detail@boost@@QEAA@AEBV012@@Z
	??0?$clone_impl@Ubad_alloc_@exception_detail@boost@@@exception_detail@boost@@AEAA@AEBV012@Uclone_tag@012@@Z
	??0?$clone_impl@Ubad_alloc_@exception_detail@boost@@@exception_detail@boost@@QEAA@AEBUbad_alloc_@12@@Z
	??0?$clone_impl@Ubad_alloc_@exception_detail@boost@@@exception_detail@boost@@QEAA@AEBV012@@Z
	??0?$clone_impl@Ubad_exception_@exception_detail@boost@@@exception_detail@boost@@AEAA@AEBV012@Uclone_tag@012@@Z
	??0?$clone_impl@Ubad_exception_@exception_detail@boost@@@exception_detail@boost@@QEAA@AEBUbad_exception_@12@@Z
	??0?$clone_impl@Ubad_exception_@exception_detail@boost@@@exception_detail@boost@@QEAA@AEBV012@@Z
	??0?$error_info@Uthrow_file_@boost@@PEBD@boost@@QEAA@PEBD@Z
	??0?$error_info@Uthrow_function_@boost@@PEBD@boost@@QEAA@PEBD@Z
	??0?$error_info@Uthrow_line_@boost@@H@boost@@QEAA@H@Z
	??0?$error_info_injector@Vthread_resource_error@boost@@@exception_detail@boost@@QEAA@AEBU012@@Z
	??0?$error_info_injector@Vthread_resource_error@boost@@@exception_detail@boost@@QEAA@AEBVthread_resource_error@2@@Z
	??0?$list@HV?$allocator@H@std@@@std@@QEAA@AEBV?$allocator@H@1@@Z
	??0?$list@U?$pair@$$CBHPEAUNode@carrot_planner@@@std@@V?$allocator@U?$pair@$$CBHPEAUNode@carrot_planner@@@std@@@2@@std@@QEAA@AEBV?$allocator@U?$pair@$$CBHPEAUNode@carrot_planner@@@std@@@1@@Z
	??0?$map@V?$basic_string@DU?$char_traits@D@std@@V?$allocator@D@2@@std@@V12@U?$less@V?$basic_string@DU?$char_traits@D@std@@V?$allocator@D@2@@std@@@2@V?$allocator@U?$pair@$$CBV?$basic_string@DU?$char_traits@D@std@@V?$allocator@D@2@@std@@V12@@std@@@2@@std@@QEAA@XZ
	??0?$priority_queue@PEAUNode@carrot_planner@@V?$vector@PEAUNode@carrot_planner@@V?$allocator@PEAUNode@carrot_planner@@@std@@@std@@UNodeComparator@2@@std@@QEAA@XZ
	??0?$refcount_ptr@Uerror_info_container@exception_detail@boost@@@exception_detail@boost@@QEAA@AEBV012@@Z
	??0?$refcount_ptr@Uerror_info_container@exception_detail@boost@@@exception_detail@boost@@QEAA@XZ
	??0?$shared_ptr@$$CBVclone_base@exception_detail@boost@@@boost@@QEAA@AEBV01@@Z
	??0?$sp_counted_impl_p@V?$clone_impl@Ubad_alloc_@exception_detail@boost@@@exception_detail@boost@@@detail@boost@@QEAA@PEAV?$clone_impl@Ubad_alloc_@exception_detail@boost@@@exception_detail@2@@Z
	??0?$sp_counted_impl_p@V?$clone_impl@Ubad_exception_@exception_detail@boost@@@exception_detail@boost@@@detail@boost@@QEAA@PEAV?$clone_impl@Ubad_exception_@exception_detail@boost@@@exception_detail@2@@Z
	??0?$tuple@$$V@std@@QEAA@AEBV01@@Z
	??0?$tuple@AEBH@std@@QEAA@$$QEAV01@@Z
	??0?$tuple@AEBV?$basic_string@DU?$char_traits@D@std@@V?$allocator@D@2@@std@@@std@@QEAA@$$QEAV01@@Z
	??0?$unordered_map@HPEAUNode@carrot_planner@@U?$hash@H@std@@U?$equal_to@H@4@V?$allocator@U?$pair@$$CBHPEAUNode@carrot_planner@@@std@@@4@@std@@QEAA@XZ
	??0?$unordered_set@HU?$hash@H@std@@U?$equal_to@H@2@V?$allocator@H@2@@std@@QEAA@XZ
	??0?$vector@HV?$allocator@H@std@@@std@@QEAA@$$QEAV01@@Z
	??0?$vector@HV?$allocator@H@std@@@std@@QEAA@XZ
	??0?$vector@PEAUNode@carrot_planner@@V?$allocator@PEAUNode@carrot_planner@@@std@@@std@@QEAA@XZ
	??0?$vector@U?$Point_@V?$allocator@X@std@@@geometry_msgs@@V?$allocator@U?$Point_@V?$allocator@X@std@@@geometry_msgs@@@std@@@std@@QEAA@AEBV01@@Z
	??0?$vector@U?$Point_@V?$allocator@X@std@@@geometry_msgs@@V?$allocator@U?$Point_@V?$allocator@X@std@@@geometry_msgs@@@std@@@std@@QEAA@XZ
	??0BaseGlobalPlanner@nav_core@@IEAA@XZ
	??0CarrotPlanner@carrot_planner@@QEAA@V?$basic_string@DU?$char_traits@D@std@@V?$allocator@D@2@@std@@PEAVCostmap2DROS@costmap_2d@@@Z
	??0CarrotPlanner@carrot_planner@@QEAA@XZ
	??0Node@carrot_planner@@QEAA@HNNPEAU01@@Z
	??0_Bxty@?$_String_val@U?$_Simple_types@D@std@@@std@@QEAA@XZ
	??0_Clear_guard@?$_Hash@V?$_Umap_traits@HPEAUNode@carrot_planner@@V?$_Uhash_compare@HU?$hash@H@std@@U?$equal_to@H@2@@std@@V?$allocator@U?$pair@$$CBHPEAUNode@carrot_planner@@@std@@@4@$0A@@std@@@std@@QEAA@QEAV12@@Z
	??0_Clear_guard@?$_Hash@V?$_Uset_traits@HV?$_Uhash_compare@HU?$hash@H@std@@U?$equal_to@H@2@@std@@V?$allocator@H@2@$0A@@std@@@std@@QEAA@QEAV12@@Z
	??0_Fake_proxy_ptr_impl@std@@QEAA@AEBU_Fake_allocator@1@AEBU_Container_base0@1@@Z
	??0_Range_eraser@?$_Hash@V?$_Umap_traits@HPEAUNode@carrot_planner@@V?$_Uhash_compare@HU?$hash@H@std@@U?$equal_to@H@2@@std@@V?$allocator@U?$pair@$$CBHPEAUNode@carrot_planner@@@std@@@4@$0A@@std@@@std@@QEAA@AEAV?$list@U?$pair@$$CBHPEAUNode@carrot_planner@@@std@@V?$allocator@U?$pair@$$CBHPEAUNode@carrot_planner@@@std@@@2@@2@QEAU?$_List_node@U?$pair@$$CBHPEAUNode@carrot_planner@@@std@@PEAX@2@@Z
	??0_Range_eraser@?$_Hash@V?$_Uset_traits@HV?$_Uhash_compare@HU?$hash@H@std@@U?$equal_to@H@2@@std@@V?$allocator@H@2@$0A@@std@@@std@@QEAA@AEAV?$list@HV?$allocator@H@std@@@2@QEAU?$_List_node@HPEAX@2@@Z
	??0bad_alloc@std@@AEAA@QEBD@Z
	??0bad_alloc@std@@QEAA@AEBV01@@Z
	??0bad_alloc@std@@QEAA@XZ
	??0bad_alloc_@exception_detail@boost@@QEAA@AEBU012@@Z
	??0bad_alloc_@exception_detail@boost@@QEAA@XZ
	??0bad_array_new_length@std@@QEAA@AEBV01@@Z
	??0bad_array_new_length@std@@QEAA@XZ
	??0bad_exception@std@@QEAA@AEBV01@@Z
	??0bad_exception@std@@QEAA@XZ
	??0bad_exception_@exception_detail@boost@@QEAA@AEBU012@@Z
	??0bad_exception_@exception_detail@boost@@QEAA@XZ
	??0clone_base@exception_detail@boost@@QEAA@AEBV012@@Z
	??0clone_base@exception_detail@boost@@QEAA@XZ
	??0error_code@system@boost@@QEAA@HAEBVerror_category@12@@Z
	??0exception@boost@@IEAA@XZ
	??0exception@boost@@QEAA@AEBV01@@Z
	??0exception@std@@QEAA@AEBV01@@Z
	??0exception@std@@QEAA@QEBD@Z
	??0exception@std@@QEAA@QEBDH@Z
	??0exception_ptr@boost@@QEAA@AEBV01@@Z
	??0exception_ptr@boost@@QEAA@AEBV?$shared_ptr@$$CBVclone_base@exception_detail@boost@@@1@@Z
	??0in_place_init_if_t@optional_ns@boost@@QEAA@Uinit_tag@012@@Z
	??0in_place_init_t@optional_ns@boost@@QEAA@Uinit_tag@012@@Z
	??0none_t@boost@@QEAA@Uinit_tag@01@@Z
	??0runtime_error@std@@QEAA@AEBV01@@Z
	??0runtime_error@std@@QEAA@PEBD@Z
	??0shared_count@detail@boost@@QEAA@AEBV012@@Z
	??0shared_count@detail@boost@@QEAA@XZ
	??0sp_counted_base@detail@boost@@QEAA@XZ
	??0system_error@system@boost@@QEAA@AEBV012@@Z
	??0system_error@system@boost@@QEAA@Verror_code@12@PEBD@Z
	??0thread_exception@boost@@QEAA@AEBV01@@Z
	??0thread_exception@boost@@QEAA@HPEBD@Z
	??0thread_resource_error@boost@@QEAA@AEBV01@@Z
	??0thread_resource_error@boost@@QEAA@XZ
	??1?$AbstractMetaObject@VBaseGlobalPlanner@nav_core@@@impl@class_loader@@QEAA@XZ
	??1?$Header_@V?$allocator@X@std@@@std_msgs@@QEAA@XZ
	??1?$PoseStamped_@V?$allocator@X@std@@@geometry_msgs@@QEAA@XZ
	??1?$_Alloc_construct_ptr@V?$allocator@U?$_List_node@HPEAX@std@@@std@@@std@@QEAA@XZ
	??1?$_Alloc_construct_ptr@V?$allocator@U?$_List_node@U?$pair@$$CBHPEAUNode@carrot_planner@@@std@@PEAX@std@@@std@@@std@@QEAA@XZ
	??1?$_Alloc_construct_ptr@V?$allocator@U?$_Tree_node@U?$pair@$$CBV?$basic_string@DU?$char_traits@D@std@@V?$allocator@D@2@@std@@PEAVAbstractMetaObjectBase@impl@class_loader@@@std@@PEAX@std@@@std@@@std@@QEAA@XZ
	??1?$_Compressed_pair@V?$allocator@D@std@@V?$_String_val@U?$_Simple_types@D@std@@@2@$00@std@@QEAA@XZ
	??1?$_Hash@V?$_Umap_traits@HPEAUNode@carrot_planner@@V?$_Uhash_compare@HU?$hash@H@std@@U?$equal_to@H@2@@std@@V?$allocator@U?$pair@$$CBHPEAUNode@carrot_planner@@@std@@@4@$0A@@std@@@std@@QEAA@XZ
	??1?$_Hash@V?$_Uset_traits@HV?$_Uhash_compare@HU?$hash@H@std@@U?$equal_to@H@2@@std@@V?$allocator@H@2@$0A@@std@@@std@@QEAA@XZ
	??1?$_Hash_vec@V?$allocator@V?$_List_unchecked_const_iterator@V?$_List_val@U?$_List_simple_types@H@std@@@std@@U_Iterator_base0@2@@std@@@std@@@std@@QEAA@XZ
	??1?$_Hash_vec@V?$allocator@V?$_List_unchecked_iterator@V?$_List_val@U?$_List_simple_types@U?$pair@$$CBHPEAUNode@carrot_planner@@@std@@@std@@@std@@@std@@@std@@@std@@QEAA@XZ
	??1?$_List_node_emplace_op2@V?$allocator@U?$_List_node@HPEAX@std@@@std@@@std@@QEAA@XZ
	??1?$_List_node_emplace_op2@V?$allocator@U?$_List_node@U?$pair@$$CBHPEAUNode@carrot_planner@@@std@@PEAX@std@@@std@@@std@@QEAA@XZ
	??1?$_String_val@U?$_Simple_types@D@std@@@std@@QEAA@XZ
	??1?$_Tidy_guard@V?$vector@U?$Point_@V?$allocator@X@std@@@geometry_msgs@@V?$allocator@U?$Point_@V?$allocator@X@std@@@geometry_msgs@@@std@@@std@@@std@@QEAA@XZ
	??1?$_Tree@V?$_Tmap_traits@V?$basic_string@DU?$char_traits@D@std@@V?$allocator@D@2@@std@@V12@U?$less@V?$basic_string@DU?$char_traits@D@std@@V?$allocator@D@2@@std@@@2@V?$allocator@U?$pair@$$CBV?$basic_string@DU?$char_traits@D@std@@V?$allocator@D@2@@std@@V12@@std@@@2@$0A@@std@@@std@@QEAA@XZ
	??1?$_Tree_temp_node@V?$allocator@U?$_Tree_node@U?$pair@$$CBV?$basic_string@DU?$char_traits@D@std@@V?$allocator@D@2@@std@@PEAVAbstractMetaObjectBase@impl@class_loader@@@std@@PEAX@std@@@std@@@std@@QEAA@XZ
	??1?$_Tree_temp_node_alloc@V?$allocator@U?$_Tree_node@U?$pair@$$CBV?$basic_string@DU?$char_traits@D@std@@V?$allocator@D@2@@std@@PEAVAbstractMetaObjectBase@impl@class_loader@@@std@@PEAX@std@@@std@@@std@@QEAA@XZ
	??1?$_Uninitialized_backout@PEAV?$_List_unchecked_const_iterator@V?$_List_val@U?$_List_simple_types@H@std@@@std@@U_Iterator_base0@2@@std@@@std@@QEAA@XZ
	??1?$_Uninitialized_backout@PEAV?$_List_unchecked_iterator@V?$_List_val@U?$_List_simple_types@U?$pair@$$CBHPEAUNode@carrot_planner@@@std@@@std@@@std@@@std@@@std@@QEAA@XZ
	??1?$_Uninitialized_backout_al@V?$allocator@H@std@@@std@@QEAA@XZ
	??1?$_Uninitialized_backout_al@V?$allocator@PEAUNode@carrot_planner@@@std@@@std@@QEAA@XZ
	??1?$_Uninitialized_backout_al@V?$allocator@U?$Point_@V?$allocator@X@std@@@geometry_msgs@@@std@@@std@@QEAA@XZ
	??1?$_Uninitialized_backout_al@V?$allocator@U?$PoseStamped_@V?$allocator@X@std@@@geometry_msgs@@@std@@@std@@QEAA@XZ
	??1?$basic_string@DU?$char_traits@D@std@@V?$allocator@D@2@@std@@QEAA@XZ
	??1?$clone_impl@U?$error_info_injector@Vthread_resource_error@boost@@@exception_detail@boost@@@exception_detail@boost@@UEAA@XZ
	??1?$clone_impl@Ubad_alloc_@exception_detail@boost@@@exception_detail@boost@@UEAA@XZ
	??1?$clone_impl@Ubad_exception_@exception_detail@boost@@@exception_detail@boost@@UEAA@XZ
	??1?$error_info_injector@Vthread_resource_error@boost@@@exception_detail@boost@@UEAA@XZ
	??1?$list@HV?$allocator@H@std@@@std@@QEAA@XZ
	??1?$list@U?$pair@$$CBHPEAUNode@carrot_planner@@@std@@V?$allocator@U?$pair@$$CBHPEAUNode@carrot_planner@@@std@@@2@@std@@QEAA@XZ
	??1?$map@V?$basic_string@DU?$char_traits@D@std@@V?$allocator@D@2@@std@@V12@U?$less@V?$basic_string@DU?$char_traits@D@std@@V?$allocator@D@2@@std@@@2@V?$allocator@U?$pair@$$CBV?$basic_string@DU?$char_traits@D@std@@V?$allocator@D@2@@std@@V12@@std@@@2@@std@@QEAA@XZ
	??1?$pair@$$CBV?$basic_string@DU?$char_traits@D@std@@V?$allocator@D@2@@std@@PEAVAbstractMetaObjectBase@impl@class_loader@@@std@@QEAA@XZ
	??1?$pair@$$CBV?$basic_string@DU?$char_traits@D@std@@V?$allocator@D@2@@std@@V12@@std@@QEAA@XZ
	??1?$priority_queue@PEAUNode@carrot_planner@@V?$vector@PEAUNode@carrot_planner@@V?$allocator@PEAUNode@carrot_planner@@@std@@@std@@UNodeComparator@2@@std@@QEAA@XZ
	??1?$refcount_ptr@Uerror_info_container@exception_detail@boost@@@exception_detail@boost@@QEAA@XZ
	??1?$shared_ptr@$$CBVclone_base@exception_detail@boost@@@boost@@QEAA@XZ
	??1?$sp_counted_impl_p@V?$clone_impl@Ubad_alloc_@exception_detail@boost@@@exception_detail@boost@@@detail@boost@@UEAA@XZ
	??1?$sp_counted_impl_p@V?$clone_impl@Ubad_exception_@exception_detail@boost@@@exception_detail@boost@@@detail@boost@@UEAA@XZ
	??1?$unique_lock@Vmutex@boost@@@boost@@QEAA@XZ
	??1?$unordered_map@HPEAUNode@carrot_planner@@U?$hash@H@std@@U?$equal_to@H@4@V?$allocator@U?$pair@$$CBHPEAUNode@carrot_planner@@@std@@@4@@std@@QEAA@XZ
	??1?$unordered_set@HU?$hash@H@std@@U?$equal_to@H@2@V?$allocator@H@2@@std@@QEAA@XZ
	??1?$vector@HV?$allocator@H@std@@@std@@QEAA@XZ
	??1?$vector@PEAUNode@carrot_planner@@V?$allocator@PEAUNode@carrot_planner@@@std@@@std@@QEAA@XZ
	??1?$vector@U?$Point_@V?$allocator@X@std@@@geometry_msgs@@V?$allocator@U?$Point_@V?$allocator@X@std@@@geometry_msgs@@@std@@@std@@QEAA@XZ
	??1BaseGlobalPlanner@nav_core@@UEAA@XZ
	??1CarrotPlanner@carrot_planner@@UEAA@XZ
	??1_Bxty@?$_String_val@U?$_Simple_types@D@std@@@std@@QEAA@XZ
	??1_Clear_guard@?$_Hash@V?$_Umap_traits@HPEAUNode@carrot_planner@@V?$_Uhash_compare@HU?$hash@H@std@@U?$equal_to@H@2@@std@@V?$allocator@U?$pair@$$CBHPEAUNode@carrot_planner@@@std@@@4@$0A@@std@@@std@@QEAA@XZ
	??1_Clear_guard@?$_Hash@V?$_Uset_traits@HV?$_Uhash_compare@HU?$hash@H@std@@U?$equal_to@H@2@@std@@V?$allocator@H@2@$0A@@std@@@std@@QEAA@XZ
	??1_Range_eraser@?$_Hash@V?$_Umap_traits@HPEAUNode@carrot_planner@@V?$_Uhash_compare@HU?$hash@H@std@@U?$equal_to@H@2@@std@@V?$allocator@U?$pair@$$CBHPEAUNode@carrot_planner@@@std@@@4@$0A@@std@@@std@@QEAA@XZ
	??1_Range_eraser@?$_Hash@V?$_Uset_traits@HV?$_Uhash_compare@HU?$hash@H@std@@U?$equal_to@H@2@@std@@V?$allocator@H@2@$0A@@std@@@std@@QEAA@XZ
	??1bad_alloc@std@@UEAA@XZ
	??1bad_alloc_@exception_detail@boost@@UEAA@XZ
	??1bad_array_new_length@std@@UEAA@XZ
	??1bad_exception@std@@UEAA@XZ
	??1bad_exception_@exception_detail@boost@@UEAA@XZ
	??1clone_base@exception_detail@boost@@UEAA@XZ
	??1exception@boost@@MEAA@XZ
	??1exception@std@@UEAA@XZ
	??1exception_ptr@boost@@QEAA@XZ
	??1runtime_error@std@@UEAA@XZ
	??1shared_count@detail@boost@@QEAA@XZ
	??1sp_counted_base@detail@boost@@UEAA@XZ
	??1system_error@system@boost@@UEAA@XZ
	??1thread_exception@boost@@UEAA@XZ
	??1thread_resource_error@boost@@UEAA@XZ
	??2@YAPEAX_KPEAX@Z
	??4?$Header_@V?$allocator@X@std@@@std_msgs@@QEAAAEAU01@$$QEAU01@@Z
	??4?$PoseStamped_@V?$allocator@X@std@@@geometry_msgs@@QEAAAEAU01@$$QEAU01@@Z
	??4?$basic_string@DU?$char_traits@D@std@@V?$allocator@D@2@@std@@QEAAAEAV01@$$QEAV01@@Z
	??4?$basic_string@DU?$char_traits@D@std@@V?$allocator@D@2@@std@@QEAAAEAV01@QEBD@Z
	??4?$refcount_ptr@Uerror_info_container@exception_detail@boost@@@exception_detail@boost@@QEAAAEAV012@AEBV012@@Z
	??8?$_List_const_iterator@V?$_List_val@U?$_List_simple_types@H@std@@@std@@@std@@QEBA_NAEBV01@@Z
	??8?$_List_const_iterator@V?$_List_val@U?$_List_simple_types@U?$pair@$$CBHPEAUNode@carrot_planner@@@std@@@std@@@std@@@std@@QEBA_NAEBV01@@Z
	??8?$_List_unchecked_const_iterator@V?$_List_val@U?$_List_simple_types@H@std@@@std@@U_Iterator_base0@2@@std@@QEBA_NAEBV01@@Z
	??8?$_List_unchecked_const_iterator@V?$_List_val@U?$_List_simple_types@U?$pair@$$CBHPEAUNode@carrot_planner@@@std@@@std@@@std@@U_Iterator_base0@2@@std@@QEBA_NAEBV01@@Z
	??8?$_Tree_const_iterator@V?$_Tree_val@U?$_Tree_simple_types@U?$pair@$$CBV?$basic_string@DU?$char_traits@D@std@@V?$allocator@D@2@@std@@PEAVAbstractMetaObjectBase@impl@class_loader@@@std@@@std@@@std@@@std@@QEBA_NAEBV01@@Z
	??9?$_List_const_iterator@V?$_List_val@U?$_List_simple_types@H@std@@@std@@@std@@QEBA_NAEBV01@@Z
	??9?$_List_unchecked_const_iterator@V?$_List_val@U?$_List_simple_types@H@std@@@std@@U_Iterator_base0@2@@std@@QEBA_NAEBV01@@Z
	??9?$_List_unchecked_const_iterator@V?$_List_val@U?$_List_simple_types@U?$pair@$$CBHPEAUNode@carrot_planner@@@std@@@std@@@std@@U_Iterator_base0@2@@std@@QEBA_NAEBV01@@Z
	??9?$_Tree_const_iterator@V?$_Tree_val@U?$_Tree_simple_types@U?$pair@$$CBV?$basic_string@DU?$char_traits@D@std@@V?$allocator@D@2@@std@@PEAVAbstractMetaObjectBase@impl@class_loader@@@std@@@std@@@std@@@std@@QEBA_NAEBV01@@Z
	??A?$map@V?$basic_string@DU?$char_traits@D@std@@V?$allocator@D@2@@std@@PEAVAbstractMetaObjectBase@impl@class_loader@@U?$less@V?$basic_string@DU?$char_traits@D@std@@V?$allocator@D@2@@std@@@2@V?$allocator@U?$pair@$$CBV?$basic_string@DU?$char_traits@D@std@@V?$allocator@D@2@@std@@PEAVAbstractMetaObjectBase@impl@class_loader@@@std@@@2@@std@@QEAAAEAPEAVAbstractMetaObjectBase@impl@class_loader@@AEBV?$basic_string@DU?$char_traits@D@std@@V?$allocator@D@2@@1@@Z
	??A?$unordered_map@HPEAUNode@carrot_planner@@U?$hash@H@std@@U?$equal_to@H@4@V?$allocator@U?$pair@$$CBHPEAUNode@carrot_planner@@@std@@@4@@std@@QEAAAEAPEAUNode@carrot_planner@@AEBH@Z
	??A?$vector@U?$Point_@V?$allocator@X@std@@@geometry_msgs@@V?$allocator@U?$Point_@V?$allocator@X@std@@@geometry_msgs@@@std@@@std@@QEBAAEBU?$Point_@V?$allocator@X@std@@@geometry_msgs@@_K@Z
	??D?$_List_unchecked_const_iterator@V?$_List_val@U?$_List_simple_types@H@std@@@std@@U_Iterator_base0@2@@std@@QEBAAEBHXZ
	??D?$_List_unchecked_const_iterator@V?$_List_val@U?$_List_simple_types@U?$pair@$$CBHPEAUNode@carrot_planner@@@std@@@std@@@std@@U_Iterator_base0@2@@std@@QEBAAEBU?$pair@$$CBHPEAUNode@carrot_planner@@@1@XZ
	??D?$_List_unchecked_iterator@V?$_List_val@U?$_List_simple_types@U?$pair@$$CBHPEAUNode@carrot_planner@@@std@@@std@@@std@@@std@@QEBAAEAU?$pair@$$CBHPEAUNode@carrot_planner@@@1@XZ
	??E?$_List_unchecked_const_iterator@V?$_List_val@U?$_List_simple_types@H@std@@@std@@U_Iterator_base0@2@@std@@QEAAAEAV01@XZ
	??E?$_List_unchecked_const_iterator@V?$_List_val@U?$_List_simple_types@U?$pair@$$CBHPEAUNode@carrot_planner@@@std@@@std@@@std@@U_Iterator_base0@2@@std@@QEAAAEAV01@XZ
	??E?$_List_unchecked_iterator@V?$_List_val@U?$_List_simple_types@U?$pair@$$CBHPEAUNode@carrot_planner@@@std@@@std@@@std@@@std@@QEAAAEAV01@XZ
	??F?$_List_unchecked_const_iterator@V?$_List_val@U?$_List_simple_types@H@std@@@std@@U_Iterator_base0@2@@std@@QEAAAEAV01@XZ
	??F?$_List_unchecked_const_iterator@V?$_List_val@U?$_List_simple_types@U?$pair@$$CBHPEAUNode@carrot_planner@@@std@@@std@@@std@@U_Iterator_base0@2@@std@@QEAAAEAV01@XZ
	??R<lambda_65e615be2a453ca0576c979606f46740>@@QEBA@QEADQEBD_K12@Z
	??R<lambda_66f57f934f28d61049862f64df852ff0>@@QEBA@QEAD_KQEBD@Z
	??R?$_Conditionally_enabled_hash@H$00@std@@QEBA_KAEBH@Z
	??R?$equal_to@H@std@@QEBA_NAEBH0@Z
	??R?$less@V?$basic_string@DU?$char_traits@D@std@@V?$allocator@D@2@@std@@@std@@QEBA_NAEBV?$basic_string@DU?$char_traits@D@std@@V?$allocator@D@2@@1@0@Z
	??RNodeComparator@carrot_planner@@QEAA_NPEBUNode@1@0@Z
	??Y?$basic_string@DU?$char_traits@D@std@@V?$allocator@D@2@@std@@QEAAAEAV01@AEBV01@@Z
	??Y?$basic_string@DU?$char_traits@D@std@@V?$allocator@D@2@@std@@QEAAAEAV01@QEBD@Z
	??_D?$clone_impl@U?$error_info_injector@Vthread_resource_error@boost@@@exception_detail@boost@@@exception_detail@boost@@QEAAXXZ
	??_D?$clone_impl@Ubad_alloc_@exception_detail@boost@@@exception_detail@boost@@QEAAXXZ
	??_D?$clone_impl@Ubad_exception_@exception_detail@boost@@@exception_detail@boost@@QEAAXXZ
	??_H@YAXPEAX_K1P6APEAX0@Z@Z
	?CreateEventA@winapi@boost@@YAPEAXPEAU_SECURITY_ATTRIBUTES@12@HHPEBD@Z
	?_Activate_SSO_buffer@?$_String_val@U?$_Simple_types@D@std@@@std@@QEAAXXZ
	?_Adjust_manually_vector_aligned@std@@YAXAEAPEAXAEA_K@Z
	?_Adopt@_Iterator_base0@std@@QEAAXPEBX@Z
	?_Alloc_proxy@_Container_base0@std@@QEAAXAEBU_Fake_allocator@2@@Z
	?_Alloc_sentinel_and_proxy@?$_Tree@V?$_Tmap_traits@V?$basic_string@DU?$char_traits@D@std@@V?$allocator@D@2@@std@@V12@U?$less@V?$basic_string@DU?$char_traits@D@std@@V?$allocator@D@2@@std@@@2@V?$allocator@U?$pair@$$CBV?$basic_string@DU?$char_traits@D@std@@V?$allocator@D@2@@std@@V12@@std@@@2@$0A@@std@@@std@@IEAAXXZ
	?_Alloc_sentinel_and_proxy@?$list@HV?$allocator@H@std@@@std@@AEAAXXZ
	?_Alloc_sentinel_and_proxy@?$list@U?$pair@$$CBHPEAUNode@carrot_planner@@@std@@V?$allocator@U?$pair@$$CBHPEAUNode@carrot_planner@@@std@@@2@@std@@AEAAXXZ
	?_Allocate@?$_Alloc_construct_ptr@V?$allocator@U?$_List_node@HPEAX@std@@@std@@@std@@QEAAXXZ
	?_Allocate@?$_Alloc_construct_ptr@V?$allocator@U?$_List_node@U?$pair@$$CBHPEAUNode@carrot_planner@@@std@@PEAX@std@@@std@@@std@@QEAAXXZ
	?_Allocate@?$_Alloc_construct_ptr@V?$allocator@U?$_Tree_node@U?$pair@$$CBV?$basic_string@DU?$char_traits@D@std@@V?$allocator@D@2@@std@@PEAVAbstractMetaObjectBase@impl@class_loader@@@std@@PEAX@std@@@std@@@std@@QEAAXXZ
	?_Allocate@_Default_allocate_traits@std@@SAPEAX_K@Z
	?_Assign_grow@?$_Hash_vec@V?$allocator@V?$_List_unchecked_const_iterator@V?$_List_val@U?$_List_simple_types@H@std@@@std@@U_Iterator_base0@2@@std@@@std@@@std@@QEAAX_KV?$_List_unchecked_const_iterator@V?$_List_val@U?$_List_simple_types@H@std@@@std@@U_Iterator_base0@2@@2@@Z
	?_Assign_grow@?$_Hash_vec@V?$allocator@V?$_List_unchecked_iterator@V?$_List_val@U?$_List_simple_types@U?$pair@$$CBHPEAUNode@carrot_planner@@@std@@@std@@@std@@@std@@@std@@@std@@QEAAX_KV?$_List_unchecked_iterator@V?$_List_val@U?$_List_simple_types@U?$pair@$$CBHPEAUNode@carrot_planner@@@std@@@std@@@std@@@2@@Z
	?_Bump_erased@_Range_eraser@?$_Hash@V?$_Umap_traits@HPEAUNode@carrot_planner@@V?$_Uhash_compare@HU?$hash@H@std@@U?$equal_to@H@2@@std@@V?$allocator@U?$pair@$$CBHPEAUNode@carrot_planner@@@std@@@4@$0A@@std@@@std@@QEAAXXZ
	?_Bump_erased@_Range_eraser@?$_Hash@V?$_Uset_traits@HV?$_Uhash_compare@HU?$hash@H@std@@U?$equal_to@H@2@@std@@V?$allocator@H@2@$0A@@std@@@std@@QEAAXXZ
	?_Buy_nonzero@?$vector@U?$Point_@V?$allocator@X@std@@@geometry_msgs@@V?$allocator@U?$Point_@V?$allocator@X@std@@@geometry_msgs@@@std@@@std@@AEAAX_K@Z
	?_Buy_raw@?$vector@U?$Point_@V?$allocator@X@std@@@geometry_msgs@@V?$allocator@U?$Point_@V?$allocator@X@std@@@geometry_msgs@@@std@@@std@@AEAAX_K@Z
	?_Calculate_growth@?$basic_string@DU?$char_traits@D@std@@V?$allocator@D@2@@std@@AEBA_K_K@Z
	?_Calculate_growth@?$basic_string@DU?$char_traits@D@std@@V?$allocator@D@2@@std@@CA_K_K00@Z
	?_Calculate_growth@?$vector@HV?$allocator@H@std@@@std@@AEBA_K_K@Z
	?_Calculate_growth@?$vector@PEAUNode@carrot_planner@@V?$allocator@PEAUNode@carrot_planner@@@std@@@std@@AEBA_K_K@Z
	?_Calculate_growth@?$vector@U?$Point_@V?$allocator@X@std@@@geometry_msgs@@V?$allocator@U?$Point_@V?$allocator@X@std@@@geometry_msgs@@@std@@@std@@AEBA_K_K@Z
	?_Calculate_growth@?$vector@U?$PoseStamped_@V?$allocator@X@std@@@geometry_msgs@@V?$allocator@U?$PoseStamped_@V?$allocator@X@std@@@geometry_msgs@@@std@@@std@@AEBA_K_K@Z
	?_Ceiling_of_log_2@std@@YAK_K@Z
	?_Change_array@?$vector@HV?$allocator@H@std@@@std@@AEAAXQEAH_K1@Z
	?_Change_array@?$vector@PEAUNode@carrot_planner@@V?$allocator@PEAUNode@carrot_planner@@@std@@@std@@AEAAXQEAPEAUNode@carrot_planner@@_K1@Z
	?_Change_array@?$vector@U?$Point_@V?$allocator@X@std@@@geometry_msgs@@V?$allocator@U?$Point_@V?$allocator@X@std@@@geometry_msgs@@@std@@@std@@AEAAXQEAU?$Point_@V?$allocator@X@std@@@geometry_msgs@@_K1@Z
	?_Change_array@?$vector@U?$PoseStamped_@V?$allocator@X@std@@@geometry_msgs@@V?$allocator@U?$PoseStamped_@V?$allocator@X@std@@@geometry_msgs@@@std@@@std@@AEAAXQEAU?$PoseStamped_@V?$allocator@X@std@@@geometry_msgs@@_K1@Z
	?_Check_grow_by_1@?$_Tree@V?$_Tmap_traits@V?$basic_string@DU?$char_traits@D@std@@V?$allocator@D@2@@std@@PEAVAbstractMetaObjectBase@impl@class_loader@@U?$less@V?$basic_string@DU?$char_traits@D@std@@V?$allocator@D@2@@std@@@2@V?$allocator@U?$pair@$$CBV?$basic_string@DU?$char_traits@D@std@@V?$allocator@D@2@@std@@PEAVAbstractMetaObjectBase@impl@class_loader@@@std@@@2@$0A@@std@@@std@@IEAAXXZ
	?_Check_max_size@?$_Hash@V?$_Umap_traits@HPEAUNode@carrot_planner@@V?$_Uhash_compare@HU?$hash@H@std@@U?$equal_to@H@2@@std@@V?$allocator@U?$pair@$$CBHPEAUNode@carrot_planner@@@std@@@4@$0A@@std@@@std@@IEBAXXZ
	?_Check_max_size@?$_Hash@V?$_Uset_traits@HV?$_Uhash_compare@HU?$hash@H@std@@U?$equal_to@H@2@@std@@V?$allocator@H@2@$0A@@std@@@std@@IEBAXXZ
	?_Check_rehash_required_1@?$_Hash@V?$_Umap_traits@HPEAUNode@carrot_planner@@V?$_Uhash_compare@HU?$hash@H@std@@U?$equal_to@H@2@@std@@V?$allocator@U?$pair@$$CBHPEAUNode@carrot_planner@@@std@@@4@$0A@@std@@@std@@IEBA_NXZ
	?_Check_rehash_required_1@?$_Hash@V?$_Uset_traits@HV?$_Uhash_compare@HU?$hash@H@std@@U?$equal_to@H@2@@std@@V?$allocator@H@2@$0A@@std@@@std@@IEBA_NXZ
	?_Deallocate_for_capacity@?$basic_string@DU?$char_traits@D@std@@V?$allocator@D@2@@std@@CAXAEAV?$allocator@D@2@QEAD_K@Z
	?_Desired_grow_bucket_count@?$_Hash@V?$_Umap_traits@HPEAUNode@carrot_planner@@V?$_Uhash_compare@HU?$hash@H@std@@U?$equal_to@H@2@@std@@V?$allocator@U?$pair@$$CBHPEAUNode@carrot_planner@@@std@@@4@$0A@@std@@@std@@IEBA_K_K@Z
	?_Desired_grow_bucket_count@?$_Hash@V?$_Uset_traits@HV?$_Uhash_compare@HU?$hash@H@std@@U?$equal_to@H@2@@std@@V?$allocator@H@2@$0A@@std@@@std@@IEBA_K_K@Z
	?_Do_hash@?$hash@H@std@@SA_KAEBH@Z
	?_Equal@?$basic_string@DU?$char_traits@D@std@@V?$allocator@D@2@@std@@QEBA_NAEBV12@@Z
	?_Extract@?$_In_place_key_extract_set@HH@std@@SAAEBHAEBH@Z
	?_Floor_of_log_2@std@@YAK_K@Z
	?_Fnv1a_append_bytes@std@@YA_K_KQEBE_K@Z
	?_Forced_rehash@?$_Hash@V?$_Umap_traits@HPEAUNode@carrot_planner@@V?$_Uhash_compare@HU?$hash@H@std@@U?$equal_to@H@2@@std@@V?$allocator@U?$pair@$$CBHPEAUNode@carrot_planner@@@std@@@4@$0A@@std@@@std@@IEAAX_K@Z
	?_Forced_rehash@?$_Hash@V?$_Uset_traits@HV?$_Uhash_compare@HU?$hash@H@std@@U?$equal_to@H@2@@std@@V?$allocator@H@2@$0A@@std@@@std@@IEAAX_K@Z
	?_Get_first@?$_Compressed_pair@U?$equal_to@H@std@@M$00@std@@QEBAAEBU?$equal_to@H@2@XZ
	?_Get_first@?$_Compressed_pair@U?$hash@H@std@@V?$_Compressed_pair@U?$equal_to@H@std@@M$00@2@$00@std@@QEBAAEBU?$hash@H@2@XZ
	?_Get_first@?$_Compressed_pair@U?$less@V?$basic_string@DU?$char_traits@D@std@@V?$allocator@D@2@@std@@@std@@V?$_Compressed_pair@V?$allocator@U?$_Tree_node@U?$pair@$$CBV?$basic_string@DU?$char_traits@D@std@@V?$allocator@D@2@@std@@PEAVAbstractMetaObjectBase@impl@class_loader@@@std@@PEAX@std@@@std@@V?$_Tree_val@U?$_Tree_simple_types@U?$pair@$$CBV?$basic_string@DU?$char_traits@D@std@@V?$allocator@D@2@@std@@PEAVAbstractMetaObjectBase@impl@class_loader@@@std@@@std@@@2@$00@2@$00@std@@QEBAAEBU?$less@V?$basic_string@DU?$char_traits@D@std@@V?$allocator@D@2@@std@@@2@XZ
	?_Get_first@?$_Compressed_pair@V?$allocator@D@std@@V?$_String_val@U?$_Simple_types@D@std@@@2@$00@std@@QEAAAEAV?$allocator@D@2@XZ
	?_Get_first@?$_Compressed_pair@V?$allocator@D@std@@V?$_String_val@U?$_Simple_types@D@std@@@2@$00@std@@QEBAAEBV?$allocator@D@2@XZ
	?_Get_first@?$_Compressed_pair@V?$allocator@H@std@@V?$_Vector_val@U?$_Simple_types@H@std@@@2@$00@std@@QEAAAEAV?$allocator@H@2@XZ
	?_Get_first@?$_Compressed_pair@V?$allocator@H@std@@V?$_Vector_val@U?$_Simple_types@H@std@@@2@$00@std@@QEBAAEBV?$allocator@H@2@XZ
	?_Get_first@?$_Compressed_pair@V?$allocator@PEAUNode@carrot_planner@@@std@@V?$_Vector_val@U?$_Simple_types@PEAUNode@carrot_planner@@@std@@@2@$00@std@@QEAAAEAV?$allocator@PEAUNode@carrot_planner@@@2@XZ
	?_Get_first@?$_Compressed_pair@V?$allocator@PEAUNode@carrot_planner@@@std@@V?$_Vector_val@U?$_Simple_types@PEAUNode@carrot_planner@@@std@@@2@$00@std@@QEBAAEBV?$allocator@PEAUNode@carrot_planner@@@2@XZ
	?_Get_first@?$_Compressed_pair@V?$allocator@U?$Point_@V?$allocator@X@std@@@geometry_msgs@@@std@@V?$_Vector_val@U?$_Simple_types@U?$Point_@V?$allocator@X@std@@@geometry_msgs@@@std@@@2@$00@std@@QEAAAEAV?$allocator@U?$Point_@V?$allocator@X@std@@@geometry_msgs@@@2@XZ
	?_Get_first@?$_Compressed_pair@V?$allocator@U?$Point_@V?$allocator@X@std@@@geometry_msgs@@@std@@V?$_Vector_val@U?$_Simple_types@U?$Point_@V?$allocator@X@std@@@geometry_msgs@@@std@@@2@$00@std@@QEBAAEBV?$allocator@U?$Point_@V?$allocator@X@std@@@geometry_msgs@@@2@XZ
	?_Get_first@?$_Compressed_pair@V?$allocator@U?$PoseStamped_@V?$allocator@X@std@@@geometry_msgs@@@std@@V?$_Vector_val@U?$_Simple_types@U?$PoseStamped_@V?$allocator@X@std@@@geometry_msgs@@@std@@@2@$00@std@@QEAAAEAV?$allocator@U?$PoseStamped_@V?$allocator@X@std@@@geometry_msgs@@@2@XZ
	?_Get_first@?$_Compressed_pair@V?$allocator@U?$PoseStamped_@V?$allocator@X@std@@@geometry_msgs@@@std@@V?$_Vector_val@U?$_Simple_types@U?$PoseStamped_@V?$allocator@X@std@@@geometry_msgs@@@std@@@2@$00@std@@QEBAAEBV?$allocator@U?$PoseStamped_@V?$allocator@X@std@@@geometry_msgs@@@2@XZ
	?_Get_first@?$_Compressed_pair@V?$allocator@U?$_List_node@HPEAX@std@@@std@@V?$_List_val@U?$_List_simple_types@H@std@@@2@$00@std@@QEAAAEAV?$allocator@U?$_List_node@HPEAX@std@@@2@XZ
	?_Get_first@?$_Compressed_pair@V?$allocator@U?$_List_node@HPEAX@std@@@std@@V?$_List_val@U?$_List_simple_types@H@std@@@2@$00@std@@QEBAAEBV?$allocator@U?$_List_node@HPEAX@std@@@2@XZ
	?_Get_first@?$_Compressed_pair@V?$allocator@U?$_List_node@U?$pair@$$CBHPEAUNode@carrot_planner@@@std@@PEAX@std@@@std@@V?$_List_val@U?$_List_simple_types@U?$pair@$$CBHPEAUNode@carrot_planner@@@std@@@std@@@2@$00@std@@QEAAAEAV?$allocator@U?$_List_node@U?$pair@$$CBHPEAUNode@carrot_planner@@@std@@PEAX@std@@@2@XZ
	?_Get_first@?$_Compressed_pair@V?$allocator@U?$_List_node@U?$pair@$$CBHPEAUNode@carrot_planner@@@std@@PEAX@std@@@std@@V?$_List_val@U?$_List_simple_types@U?$pair@$$CBHPEAUNode@carrot_planner@@@std@@@std@@@2@$00@std@@QEBAAEBV?$allocator@U?$_List_node@U?$pair@$$CBHPEAUNode@carrot_planner@@@std@@PEAX@std@@@2@XZ
	?_Get_first@?$_Compressed_pair@V?$allocator@U?$_Tree_node@U?$pair@$$CBV?$basic_string@DU?$char_traits@D@std@@V?$allocator@D@2@@std@@PEAVAbstractMetaObjectBase@impl@class_loader@@@std@@PEAX@std@@@std@@V?$_Tree_val@U?$_Tree_simple_types@U?$pair@$$CBV?$basic_string@DU?$char_traits@D@std@@V?$allocator@D@2@@std@@PEAVAbstractMetaObjectBase@impl@class_loader@@@std@@@std@@@2@$00@std@@QEAAAEAV?$allocator@U?$_Tree_node@U?$pair@$$CBV?$basic_string@DU?$char_traits@D@std@@V?$allocator@D@2@@std@@PEAVAbstractMetaObjectBase@impl@class_loader@@@std@@PEAX@std@@@2@XZ
	?_Get_first@?$_Compressed_pair@V?$allocator@U?$_Tree_node@U?$pair@$$CBV?$basic_string@DU?$char_traits@D@std@@V?$allocator@D@2@@std@@PEAVAbstractMetaObjectBase@impl@class_loader@@@std@@PEAX@std@@@std@@V?$_Tree_val@U?$_Tree_simple_types@U?$pair@$$CBV?$basic_string@DU?$char_traits@D@std@@V?$allocator@D@2@@std@@PEAVAbstractMetaObjectBase@impl@class_loader@@@std@@@std@@@2@$00@std@@QEBAAEBV?$allocator@U?$_Tree_node@U?$pair@$$CBV?$basic_string@DU?$char_traits@D@std@@V?$allocator@D@2@@std@@PEAVAbstractMetaObjectBase@impl@class_loader@@@std@@PEAX@std@@@2@XZ
	?_Get_first@?$_Compressed_pair@V?$allocator@U?$_Tree_node@U?$pair@$$CBV?$basic_string@DU?$char_traits@D@std@@V?$allocator@D@2@@std@@V12@@std@@PEAX@std@@@std@@V?$_Tree_val@U?$_Tree_simple_types@U?$pair@$$CBV?$basic_string@DU?$char_traits@D@std@@V?$allocator@D@2@@std@@V12@@std@@@std@@@2@$00@std@@QEAAAEAV?$allocator@U?$_Tree_node@U?$pair@$$CBV?$basic_string@DU?$char_traits@D@std@@V?$allocator@D@2@@std@@V12@@std@@PEAX@std@@@2@XZ
	?_Get_first@?$_Compressed_pair@V?$allocator@V?$_List_unchecked_const_iterator@V?$_List_val@U?$_List_simple_types@H@std@@@std@@U_Iterator_base0@2@@std@@@std@@V?$_Vector_val@U?$_Simple_types@V?$_List_unchecked_const_iterator@V?$_List_val@U?$_List_simple_types@H@std@@@std@@U_Iterator_base0@2@@std@@@std@@@2@$00@std@@QEAAAEAV?$allocator@V?$_List_unchecked_const_iterator@V?$_List_val@U?$_List_simple_types@H@std@@@std@@U_Iterator_base0@2@@std@@@2@XZ
	?_Get_first@?$_Compressed_pair@V?$allocator@V?$_List_unchecked_const_iterator@V?$_List_val@U?$_List_simple_types@H@std@@@std@@U_Iterator_base0@2@@std@@@std@@V?$_Vector_val@U?$_Simple_types@V?$_List_unchecked_const_iterator@V?$_List_val@U?$_List_simple_types@H@std@@@std@@U_Iterator_base0@2@@std@@@std@@@2@$00@std@@QEBAAEBV?$allocator@V?$_List_unchecked_const_iterator@V?$_List_val@U?$_List_simple_types@H@std@@@std@@U_Iterator_base0@2@@std@@@2@XZ
	?_Get_first@?$_Compressed_pair@V?$allocator@V?$_List_unchecked_iterator@V?$_List_val@U?$_List_simple_types@U?$pair@$$CBHPEAUNode@carrot_planner@@@std@@@std@@@std@@@std@@@std@@V?$_Vector_val@U?$_Simple_types@V?$_List_unchecked_iterator@V?$_List_val@U?$_List_simple_types@U?$pair@$$CBHPEAUNode@carrot_planner@@@std@@@std@@@std@@@std@@@std@@@2@$00@std@@QEAAAEAV?$allocator@V?$_List_unchecked_iterator@V?$_List_val@U?$_List_simple_types@U?$pair@$$CBHPEAUNode@carrot_planner@@@std@@@std@@@std@@@std@@@2@XZ
	?_Get_first@?$_Compressed_pair@V?$allocator@V?$_List_unchecked_iterator@V?$_List_val@U?$_List_simple_types@U?$pair@$$CBHPEAUNode@carrot_planner@@@std@@@std@@@std@@@std@@@std@@V?$_Vector_val@U?$_Simple_types@V?$_List_unchecked_iterator@V?$_List_val@U?$_List_simple_types@U?$pair@$$CBHPEAUNode@carrot_planner@@@std@@@std@@@std@@@std@@@std@@@2@$00@std@@QEBAAEBV?$allocator@V?$_List_unchecked_iterator@V?$_List_val@U?$_List_simple_types@U?$pair@$$CBHPEAUNode@carrot_planner@@@std@@@std@@@std@@@std@@@2@XZ
	?_Get_max_bucket_size@?$_Uhash_compare@HU?$hash@H@std@@U?$equal_to@H@2@@std@@QEAAAEAMXZ
	?_Get_max_bucket_size@?$_Uhash_compare@HU?$hash@H@std@@U?$equal_to@H@2@@std@@QEBAAEBMXZ
	?_Get_scary@?$_Tree@V?$_Tmap_traits@V?$basic_string@DU?$char_traits@D@std@@V?$allocator@D@2@@std@@PEAVAbstractMetaObjectBase@impl@class_loader@@U?$less@V?$basic_string@DU?$char_traits@D@std@@V?$allocator@D@2@@std@@@2@V?$allocator@U?$pair@$$CBV?$basic_string@DU?$char_traits@D@std@@V?$allocator@D@2@@std@@PEAVAbstractMetaObjectBase@impl@class_loader@@@std@@@2@$0A@@std@@@std@@IEAAPEAV?$_Tree_val@U?$_Tree_simple_types@U?$pair@$$CBV?$basic_string@DU?$char_traits@D@std@@V?$allocator@D@2@@std@@PEAVAbstractMetaObjectBase@impl@class_loader@@@std@@@std@@@2@XZ
	?_Get_scary@?$_Tree@V?$_Tmap_traits@V?$basic_string@DU?$char_traits@D@std@@V?$allocator@D@2@@std@@PEAVAbstractMetaObjectBase@impl@class_loader@@U?$less@V?$basic_string@DU?$char_traits@D@std@@V?$allocator@D@2@@std@@@2@V?$allocator@U?$pair@$$CBV?$basic_string@DU?$char_traits@D@std@@V?$allocator@D@2@@std@@PEAVAbstractMetaObjectBase@impl@class_loader@@@std@@@2@$0A@@std@@@std@@IEBAPEBV?$_Tree_val@U?$_Tree_simple_types@U?$pair@$$CBV?$basic_string@DU?$char_traits@D@std@@V?$allocator@D@2@@std@@PEAVAbstractMetaObjectBase@impl@class_loader@@@std@@@std@@@2@XZ
	?_Get_scary@?$_Tree@V?$_Tmap_traits@V?$basic_string@DU?$char_traits@D@std@@V?$allocator@D@2@@std@@V12@U?$less@V?$basic_string@DU?$char_traits@D@std@@V?$allocator@D@2@@std@@@2@V?$allocator@U?$pair@$$CBV?$basic_string@DU?$char_traits@D@std@@V?$allocator@D@2@@std@@V12@@std@@@2@$0A@@std@@@std@@IEAAPEAV?$_Tree_val@U?$_Tree_simple_types@U?$pair@$$CBV?$basic_string@DU?$char_traits@D@std@@V?$allocator@D@2@@std@@V12@@std@@@std@@@2@XZ
	?_Getal@?$_Tree@V?$_Tmap_traits@V?$basic_string@DU?$char_traits@D@std@@V?$allocator@D@2@@std@@PEAVAbstractMetaObjectBase@impl@class_loader@@U?$less@V?$basic_string@DU?$char_traits@D@std@@V?$allocator@D@2@@std@@@2@V?$allocator@U?$pair@$$CBV?$basic_string@DU?$char_traits@D@std@@V?$allocator@D@2@@std@@PEAVAbstractMetaObjectBase@impl@class_loader@@@std@@@2@$0A@@std@@@std@@IEAAAEAV?$allocator@U?$_Tree_node@U?$pair@$$CBV?$basic_string@DU?$char_traits@D@std@@V?$allocator@D@2@@std@@PEAVAbstractMetaObjectBase@impl@class_loader@@@std@@PEAX@std@@@2@XZ
	?_Getal@?$_Tree@V?$_Tmap_traits@V?$basic_string@DU?$char_traits@D@std@@V?$allocator@D@2@@std@@PEAVAbstractMetaObjectBase@impl@class_loader@@U?$less@V?$basic_string@DU?$char_traits@D@std@@V?$allocator@D@2@@std@@@2@V?$allocator@U?$pair@$$CBV?$basic_string@DU?$char_traits@D@std@@V?$allocator@D@2@@std@@PEAVAbstractMetaObjectBase@impl@class_loader@@@std@@@2@$0A@@std@@@std@@IEBAAEBV?$allocator@U?$_Tree_node@U?$pair@$$CBV?$basic_string@DU?$char_traits@D@std@@V?$allocator@D@2@@std@@PEAVAbstractMetaObjectBase@impl@class_loader@@@std@@PEAX@std@@@2@XZ
	?_Getal@?$_Tree@V?$_Tmap_traits@V?$basic_string@DU?$char_traits@D@std@@V?$allocator@D@2@@std@@V12@U?$less@V?$basic_string@DU?$char_traits@D@std@@V?$allocator@D@2@@std@@@2@V?$allocator@U?$pair@$$CBV?$basic_string@DU?$char_traits@D@std@@V?$allocator@D@2@@std@@V12@@std@@@2@$0A@@std@@@std@@IEAAAEAV?$allocator@U?$_Tree_node@U?$pair@$$CBV?$basic_string@DU?$char_traits@D@std@@V?$allocator@D@2@@std@@V12@@std@@PEAX@std@@@2@XZ
	?_Getal@?$basic_string@DU?$char_traits@D@std@@V?$allocator@D@2@@std@@AEAAAEAV?$allocator@D@2@XZ
	?_Getal@?$basic_string@DU?$char_traits@D@std@@V?$allocator@D@2@@std@@AEBAAEBV?$allocator@D@2@XZ
	?_Getal@?$list@HV?$allocator@H@std@@@std@@AEAAAEAV?$allocator@U?$_List_node@HPEAX@std@@@2@XZ
	?_Getal@?$list@HV?$allocator@H@std@@@std@@AEBAAEBV?$allocator@U?$_List_node@HPEAX@std@@@2@XZ
	?_Getal@?$list@U?$pair@$$CBHPEAUNode@carrot_planner@@@std@@V?$allocator@U?$pair@$$CBHPEAUNode@carrot_planner@@@std@@@2@@std@@AEAAAEAV?$allocator@U?$_List_node@U?$pair@$$CBHPEAUNode@carrot_planner@@@std@@PEAX@std@@@2@XZ
	?_Getal@?$list@U?$pair@$$CBHPEAUNode@carrot_planner@@@std@@V?$allocator@U?$pair@$$CBHPEAUNode@carrot_planner@@@std@@@2@@std@@AEBAAEBV?$allocator@U?$_List_node@U?$pair@$$CBHPEAUNode@carrot_planner@@@std@@PEAX@std@@@2@XZ
	?_Getal@?$vector@HV?$allocator@H@std@@@std@@AEAAAEAV?$allocator@H@2@XZ
	?_Getal@?$vector@HV?$allocator@H@std@@@std@@AEBAAEBV?$allocator@H@2@XZ
	?_Getal@?$vector@PEAUNode@carrot_planner@@V?$allocator@PEAUNode@carrot_planner@@@std@@@std@@AEAAAEAV?$allocator@PEAUNode@carrot_planner@@@2@XZ
	?_Getal@?$vector@PEAUNode@carrot_planner@@V?$allocator@PEAUNode@carrot_planner@@@std@@@std@@AEBAAEBV?$allocator@PEAUNode@carrot_planner@@@2@XZ
	?_Getal@?$vector@U?$Point_@V?$allocator@X@std@@@geometry_msgs@@V?$allocator@U?$Point_@V?$allocator@X@std@@@geometry_msgs@@@std@@@std@@AEAAAEAV?$allocator@U?$Point_@V?$allocator@X@std@@@geometry_msgs@@@2@XZ
	?_Getal@?$vector@U?$Point_@V?$allocator@X@std@@@geometry_msgs@@V?$allocator@U?$Point_@V?$allocator@X@std@@@geometry_msgs@@@std@@@std@@AEBAAEBV?$allocator@U?$Point_@V?$allocator@X@std@@@geometry_msgs@@@2@XZ
	?_Getal@?$vector@U?$PoseStamped_@V?$allocator@X@std@@@geometry_msgs@@V?$allocator@U?$PoseStamped_@V?$allocator@X@std@@@geometry_msgs@@@std@@@std@@AEAAAEAV?$allocator@U?$PoseStamped_@V?$allocator@X@std@@@geometry_msgs@@@2@XZ
	?_Getal@?$vector@U?$PoseStamped_@V?$allocator@X@std@@@geometry_msgs@@V?$allocator@U?$PoseStamped_@V?$allocator@X@std@@@geometry_msgs@@@std@@@std@@AEBAAEBV?$allocator@U?$PoseStamped_@V?$allocator@X@std@@@geometry_msgs@@@2@XZ
	?_Getcomp@?$_Tree@V?$_Tmap_traits@V?$basic_string@DU?$char_traits@D@std@@V?$allocator@D@2@@std@@PEAVAbstractMetaObjectBase@impl@class_loader@@U?$less@V?$basic_string@DU?$char_traits@D@std@@V?$allocator@D@2@@std@@@2@V?$allocator@U?$pair@$$CBV?$basic_string@DU?$char_traits@D@std@@V?$allocator@D@2@@std@@PEAVAbstractMetaObjectBase@impl@class_loader@@@std@@@2@$0A@@std@@@std@@IEBAAEBU?$less@V?$basic_string@DU?$char_traits@D@std@@V?$allocator@D@2@@std@@@2@XZ
	?_Insert_new_node_before@?$_Hash@V?$_Umap_traits@HPEAUNode@carrot_planner@@V?$_Uhash_compare@HU?$hash@H@std@@U?$equal_to@H@2@@std@@V?$allocator@U?$pair@$$CBHPEAUNode@carrot_planner@@@std@@@4@$0A@@std@@@std@@IEAAPEAU?$_List_node@U?$pair@$$CBHPEAUNode@carrot_planner@@@std@@PEAX@2@_KQEAU32@1@Z
	?_Insert_new_node_before@?$_Hash@V?$_Uset_traits@HV?$_Uhash_compare@HU?$hash@H@std@@U?$equal_to@H@2@@std@@V?$allocator@H@2@$0A@@std@@@std@@IEAAPEAU?$_List_node@HPEAX@2@_KQEAU32@1@Z
	?_Insert_node@?$_Tree_val@U?$_Tree_simple_types@U?$pair@$$CBV?$basic_string@DU?$char_traits@D@std@@V?$allocator@D@2@@std@@PEAVAbstractMetaObjectBase@impl@class_loader@@@std@@@std@@@std@@QEAAPEAU?$_Tree_node@U?$pair@$$CBV?$basic_string@DU?$char_traits@D@std@@V?$allocator@D@2@@std@@PEAVAbstractMetaObjectBase@impl@class_loader@@@std@@PEAX@2@U?$_Tree_id@PEAU?$_Tree_node@U?$pair@$$CBV?$basic_string@DU?$char_traits@D@std@@V?$allocator@D@2@@std@@PEAVAbstractMetaObjectBase@impl@class_loader@@@std@@PEAX@std@@@2@QEAU32@@Z
	?_Kfn@?$_Uset_traits@HV?$_Uhash_compare@HU?$hash@H@std@@U?$equal_to@H@2@@std@@V?$allocator@H@2@$0A@@std@@SAAEBHAEBH@Z
	?_Large_mode_engaged@?$_String_val@U?$_Simple_types@D@std@@@std@@QEBA_NXZ
	?_Lrotate@?$_Tree_val@U?$_Tree_simple_types@U?$pair@$$CBV?$basic_string@DU?$char_traits@D@std@@V?$allocator@D@2@@std@@PEAVAbstractMetaObjectBase@impl@class_loader@@@std@@@std@@@std@@QEAAXPEAU?$_Tree_node@U?$pair@$$CBV?$basic_string@DU?$char_traits@D@std@@V?$allocator@D@2@@std@@PEAVAbstractMetaObjectBase@impl@class_loader@@@std@@PEAX@2@@Z
	?_Make_iter@?$list@HV?$allocator@H@std@@@std@@QEBA?AV?$_List_iterator@V?$_List_val@U?$_List_simple_types@H@std@@@std@@@2@PEAU?$_List_node@HPEAX@2@@Z
	?_Make_iter@?$list@U?$pair@$$CBHPEAUNode@carrot_planner@@@std@@V?$allocator@U?$pair@$$CBHPEAUNode@carrot_planner@@@std@@@2@@std@@QEBA?AV?$_List_iterator@V?$_List_val@U?$_List_simple_types@U?$pair@$$CBHPEAUNode@carrot_planner@@@std@@@std@@@std@@@2@PEAU?$_List_node@U?$pair@$$CBHPEAUNode@carrot_planner@@@std@@PEAX@2@@Z
	?_Maklocwcs@std@@YAPEA_WPEB_W@Z
	?_Max_bucket_size@?$_Hash@V?$_Umap_traits@HPEAUNode@carrot_planner@@V?$_Uhash_compare@HU?$hash@H@std@@U?$equal_to@H@2@@std@@V?$allocator@U?$pair@$$CBHPEAUNode@carrot_planner@@@std@@@4@$0A@@std@@@std@@IEAAAEAMXZ
	?_Max_bucket_size@?$_Hash@V?$_Umap_traits@HPEAUNode@carrot_planner@@V?$_Uhash_compare@HU?$hash@H@std@@U?$equal_to@H@2@@std@@V?$allocator@U?$pair@$$CBHPEAUNode@carrot_planner@@@std@@@4@$0A@@std@@@std@@IEBAAEBMXZ
	?_Max_bucket_size@?$_Hash@V?$_Uset_traits@HV?$_Uhash_compare@HU?$hash@H@std@@U?$equal_to@H@2@@std@@V?$allocator@H@2@$0A@@std@@@std@@IEAAAEAMXZ
	?_Max_bucket_size@?$_Hash@V?$_Uset_traits@HV?$_Uhash_compare@HU?$hash@H@std@@U?$equal_to@H@2@@std@@V?$allocator@H@2@$0A@@std@@@std@@IEBAAEBMXZ
	?_Memcpy_val_from@?$basic_string@DU?$char_traits@D@std@@V?$allocator@D@2@@std@@AEAAXAEBV12@@Z
	?_Min_load_factor_buckets@?$_Hash@V?$_Umap_traits@HPEAUNode@carrot_planner@@V?$_Uhash_compare@HU?$hash@H@std@@U?$equal_to@H@2@@std@@V?$allocator@U?$pair@$$CBHPEAUNode@carrot_planner@@@std@@@4@$0A@@std@@@std@@IEBA_K_K@Z
	?_Min_load_factor_buckets@?$_Hash@V?$_Uset_traits@HV?$_Uhash_compare@HU?$hash@H@std@@U?$equal_to@H@2@@std@@V?$allocator@H@2@$0A@@std@@@std@@IEBA_K_K@Z
	?_Myptr@?$_String_val@U?$_Simple_types@D@std@@@std@@QEAAPEADXZ
	?_Myptr@?$_String_val@U?$_Simple_types@D@std@@@std@@QEBAPEBDXZ
	?_Negate@?$_Atomic_integral_facade@H@std@@SAHH@Z
	?_Orphan_all@_Container_base0@std@@QEAAXXZ
	?_Orphan_non_end@?$_List_val@U?$_List_simple_types@H@std@@@std@@QEAAXXZ
	?_Orphan_non_end@?$_List_val@U?$_List_simple_types@U?$pair@$$CBHPEAUNode@carrot_planner@@@std@@@std@@@std@@QEAAXXZ
	?_Orphan_range@?$vector@HV?$allocator@H@std@@@std@@AEBAXPEAH0@Z
	?_Orphan_range@?$vector@PEAUNode@carrot_planner@@V?$allocator@PEAUNode@carrot_planner@@@std@@@std@@AEBAXPEAPEAUNode@carrot_planner@@0@Z
	?_Orphan_range@?$vector@U?$Point_@V?$allocator@X@std@@@geometry_msgs@@V?$allocator@U?$Point_@V?$allocator@X@std@@@geometry_msgs@@@std@@@std@@AEBAXPEAU?$Point_@V?$allocator@X@std@@@geometry_msgs@@0@Z
	?_Orphan_range@?$vector@U?$PoseStamped_@V?$allocator@X@std@@@geometry_msgs@@V?$allocator@U?$PoseStamped_@V?$allocator@X@std@@@geometry_msgs@@@std@@@std@@AEBAXPEAU?$PoseStamped_@V?$allocator@X@std@@@geometry_msgs@@0@Z
	?_Rehash_for_1@?$_Hash@V?$_Umap_traits@HPEAUNode@carrot_planner@@V?$_Uhash_compare@HU?$hash@H@std@@U?$equal_to@H@2@@std@@V?$allocator@U?$pair@$$CBHPEAUNode@carrot_planner@@@std@@@4@$0A@@std@@@std@@IEAAXXZ
	?_Rehash_for_1@?$_Hash@V?$_Uset_traits@HV?$_Uhash_compare@HU?$hash@H@std@@U?$equal_to@H@2@@std@@V?$allocator@H@2@$0A@@std@@@std@@IEAAXXZ
	?_Release@?$_Alloc_construct_ptr@V?$allocator@U?$_List_node@HPEAX@std@@@std@@@std@@QEAAPEAU?$_List_node@HPEAX@2@XZ
	?_Release@?$_Alloc_construct_ptr@V?$allocator@U?$_List_node@U?$pair@$$CBHPEAUNode@carrot_planner@@@std@@PEAX@std@@@std@@@std@@QEAAPEAU?$_List_node@U?$pair@$$CBHPEAUNode@carrot_planner@@@std@@PEAX@2@XZ
	?_Release@?$_Alloc_construct_ptr@V?$allocator@U?$_Tree_node@U?$pair@$$CBV?$basic_string@DU?$char_traits@D@std@@V?$allocator@D@2@@std@@PEAVAbstractMetaObjectBase@impl@class_loader@@@std@@PEAX@std@@@std@@@std@@QEAAPEAU?$_Tree_node@U?$pair@$$CBV?$basic_string@DU?$char_traits@D@std@@V?$allocator@D@2@@std@@PEAVAbstractMetaObjectBase@impl@class_loader@@@std@@PEAX@2@XZ
	?_Release@?$_Uninitialized_backout@PEAV?$_List_unchecked_const_iterator@V?$_List_val@U?$_List_simple_types@H@std@@@std@@U_Iterator_base0@2@@std@@@std@@QEAAPEAV?$_List_unchecked_const_iterator@V?$_List_val@U?$_List_simple_types@H@std@@@std@@U_Iterator_base0@2@@2@XZ
	?_Release@?$_Uninitialized_backout@PEAV?$_List_unchecked_iterator@V?$_List_val@U?$_List_simple_types@U?$pair@$$CBHPEAUNode@carrot_planner@@@std@@@std@@@std@@@std@@@std@@QEAAPEAV?$_List_unchecked_iterator@V?$_List_val@U?$_List_simple_types@U?$pair@$$CBHPEAUNode@carrot_planner@@@std@@@std@@@std@@@2@XZ
	?_Release@?$_Uninitialized_backout_al@V?$allocator@H@std@@@std@@QEAAPEAHXZ
	?_Release@?$_Uninitialized_backout_al@V?$allocator@PEAUNode@carrot_planner@@@std@@@std@@QEAAPEAPEAUNode@carrot_planner@@XZ
	?_Release@?$_Uninitialized_backout_al@V?$allocator@U?$Point_@V?$allocator@X@std@@@geometry_msgs@@@std@@@std@@QEAAPEAU?$Point_@V?$allocator@X@std@@@geometry_msgs@@XZ
	?_Release@?$_Uninitialized_backout_al@V?$allocator@U?$PoseStamped_@V?$allocator@X@std@@@geometry_msgs@@@std@@@std@@QEAAPEAU?$PoseStamped_@V?$allocator@X@std@@@geometry_msgs@@XZ
	?_Release@_Fake_proxy_ptr_impl@std@@QEAAXXZ
	?_Rrotate@?$_Tree_val@U?$_Tree_simple_types@U?$pair@$$CBV?$basic_string@DU?$char_traits@D@std@@V?$allocator@D@2@@std@@PEAVAbstractMetaObjectBase@impl@class_loader@@@std@@@std@@@std@@QEAAXPEAU?$_Tree_node@U?$pair@$$CBV?$basic_string@DU?$char_traits@D@std@@V?$allocator@D@2@@std@@PEAVAbstractMetaObjectBase@impl@class_loader@@@std@@PEAX@2@@Z
	?_Swap_proxy_and_iterators@?$basic_string@DU?$char_traits@D@std@@V?$allocator@D@2@@std@@AEAAXAEAV12@@Z
	?_Swap_proxy_and_iterators@_Container_base0@std@@QEAAXAEAU12@@Z
	?_Take_contents@?$basic_string@DU?$char_traits@D@std@@V?$allocator@D@2@@std@@AEAAXAEAV12@@Z
	?_Throw_bad_array_new_length@std@@YAXXZ
	?_Throw_tree_length_error@std@@YAXXZ
	?_Tidy@?$_Hash_vec@V?$allocator@V?$_List_unchecked_const_iterator@V?$_List_val@U?$_List_simple_types@H@std@@@std@@U_Iterator_base0@2@@std@@@std@@@std@@QEAAXXZ
	?_Tidy@?$_Hash_vec@V?$allocator@V?$_List_unchecked_iterator@V?$_List_val@U?$_List_simple_types@U?$pair@$$CBHPEAUNode@carrot_planner@@@std@@@std@@@std@@@std@@@std@@@std@@QEAAXXZ
	?_Tidy@?$list@HV?$allocator@H@std@@@std@@AEAAXXZ
	?_Tidy@?$list@U?$pair@$$CBHPEAUNode@carrot_planner@@@std@@V?$allocator@U?$pair@$$CBHPEAUNode@carrot_planner@@@std@@@2@@std@@AEAAXXZ
	?_Tidy@?$vector@HV?$allocator@H@std@@@std@@AEAAXXZ
	?_Tidy@?$vector@PEAUNode@carrot_planner@@V?$allocator@PEAUNode@carrot_planner@@@std@@@std@@AEAAXXZ
	?_Tidy@?$vector@U?$Point_@V?$allocator@X@std@@@geometry_msgs@@V?$allocator@U?$Point_@V?$allocator@X@std@@@geometry_msgs@@@std@@@std@@AEAAXXZ
	?_Tidy_deallocate@?$basic_string@DU?$char_traits@D@std@@V?$allocator@D@2@@std@@AEAAXXZ
	?_Tidy_init@?$basic_string@DU?$char_traits@D@std@@V?$allocator@D@2@@std@@AEAAXXZ
	?_Unchecked_begin@?$_Hash@V?$_Umap_traits@HPEAUNode@carrot_planner@@V?$_Uhash_compare@HU?$hash@H@std@@U?$equal_to@H@2@@std@@V?$allocator@U?$pair@$$CBHPEAUNode@carrot_planner@@@std@@@4@$0A@@std@@@std@@QEAA?AV?$_List_unchecked_iterator@V?$_List_val@U?$_List_simple_types@U?$pair@$$CBHPEAUNode@carrot_planner@@@std@@@std@@@std@@@2@XZ
	?_Unchecked_begin@?$_Hash@V?$_Uset_traits@HV?$_Uhash_compare@HU?$hash@H@std@@U?$equal_to@H@2@@std@@V?$allocator@H@2@$0A@@std@@@std@@QEAA?AV?$_List_unchecked_const_iterator@V?$_List_val@U?$_List_simple_types@H@std@@@std@@U_Iterator_base0@2@@2@XZ
	?_Unchecked_begin@?$list@HV?$allocator@H@std@@@std@@QEAA?AV?$_List_unchecked_iterator@V?$_List_val@U?$_List_simple_types@H@std@@@std@@@2@XZ
	?_Unchecked_begin@?$list@U?$pair@$$CBHPEAUNode@carrot_planner@@@std@@V?$allocator@U?$pair@$$CBHPEAUNode@carrot_planner@@@std@@@2@@std@@QEAA?AV?$_List_unchecked_iterator@V?$_List_val@U?$_List_simple_types@U?$pair@$$CBHPEAUNode@carrot_planner@@@std@@@std@@@std@@@2@XZ
	?_Unchecked_begin@?$vector@HV?$allocator@H@std@@@std@@QEAAPEAHXZ
	?_Unchecked_end@?$_Hash@V?$_Umap_traits@HPEAUNode@carrot_planner@@V?$_Uhash_compare@HU?$hash@H@std@@U?$equal_to@H@2@@std@@V?$allocator@U?$pair@$$CBHPEAUNode@carrot_planner@@@std@@@4@$0A@@std@@@std@@QEAA?AV?$_List_unchecked_iterator@V?$_List_val@U?$_List_simple_types@U?$pair@$$CBHPEAUNode@carrot_planner@@@std@@@std@@@std@@@2@XZ
	?_Unchecked_end@?$_Hash@V?$_Uset_traits@HV?$_Uhash_compare@HU?$hash@H@std@@U?$equal_to@H@2@@std@@V?$allocator@H@2@$0A@@std@@@std@@QEAA?AV?$_List_unchecked_const_iterator@V?$_List_val@U?$_List_simple_types@H@std@@@std@@U_Iterator_base0@2@@2@XZ
	?_Unchecked_end@?$list@HV?$allocator@H@std@@@std@@QEAA?AV?$_List_unchecked_iterator@V?$_List_val@U?$_List_simple_types@H@std@@@std@@@2@XZ
	?_Unchecked_end@?$list@U?$pair@$$CBHPEAUNode@carrot_planner@@@std@@V?$allocator@U?$pair@$$CBHPEAUNode@carrot_planner@@@std@@@2@@std@@QEAA?AV?$_List_unchecked_iterator@V?$_List_val@U?$_List_simple_types@U?$pair@$$CBHPEAUNode@carrot_planner@@@std@@@std@@@std@@@2@XZ
	?_Unchecked_end@?$vector@HV?$allocator@H@std@@@std@@QEAAPEAHXZ
	?_Unchecked_erase@?$_Hash@V?$_Umap_traits@HPEAUNode@carrot_planner@@V?$_Uhash_compare@HU?$hash@H@std@@U?$equal_to@H@2@@std@@V?$allocator@U?$pair@$$CBHPEAUNode@carrot_planner@@@std@@@4@$0A@@std@@@std@@AEAAPEAU?$_List_node@U?$pair@$$CBHPEAUNode@carrot_planner@@@std@@PEAX@2@PEAU32@QEAU32@@Z
	?_Unchecked_erase@?$_Hash@V?$_Uset_traits@HV?$_Uhash_compare@HU?$hash@H@std@@U?$equal_to@H@2@@std@@V?$allocator@H@2@$0A@@std@@@std@@AEAAPEAU?$_List_node@HPEAX@2@PEAU32@QEAU32@@Z
	?_Unchecked_splice@?$_List_val@U?$_List_simple_types@H@std@@@std@@SAPEAU?$_List_node@HPEAX@2@QEAU32@00@Z
	?_Unchecked_splice@?$_List_val@U?$_List_simple_types@U?$pair@$$CBHPEAUNode@carrot_planner@@@std@@@std@@@std@@SAPEAU?$_List_node@U?$pair@$$CBHPEAUNode@carrot_planner@@@std@@PEAX@2@QEAU32@00@Z
	?_Unwrapped@?$_Vector_iterator@V?$_Vector_val@U?$_Simple_types@PEAUNode@carrot_planner@@@std@@@std@@@std@@QEBAPEAPEAUNode@carrot_planner@@XZ
	?_Unwrapped@?$_Vector_iterator@V?$_Vector_val@U?$_Simple_types@U?$PoseStamped_@V?$allocator@X@std@@@geometry_msgs@@@std@@@std@@@std@@QEBAPEAU?$PoseStamped_@V?$allocator@X@std@@@geometry_msgs@@XZ
	?_Xlen_string@std@@YAXXZ
	?_Xlength@?$vector@HV?$allocator@H@std@@@std@@CAXXZ
	?_Xlength@?$vector@PEAUNode@carrot_planner@@V?$allocator@PEAUNode@carrot_planner@@@std@@@std@@CAXXZ
	?_Xlength@?$vector@U?$Point_@V?$allocator@X@std@@@geometry_msgs@@V?$allocator@U?$Point_@V?$allocator@X@std@@@geometry_msgs@@@std@@@std@@CAXXZ
	?_Xlength@?$vector@U?$PoseStamped_@V?$allocator@X@std@@@geometry_msgs@@V?$allocator@U?$PoseStamped_@V?$allocator@X@std@@@geometry_msgs@@@std@@@std@@CAXXZ
	?add_ref@?$refcount_ptr@Uerror_info_container@exception_detail@boost@@@exception_detail@boost@@AEAAXXZ
	?add_ref_copy@sp_counted_base@detail@boost@@QEAAXXZ
	?adopt@?$refcount_ptr@Uerror_info_container@exception_detail@boost@@@exception_detail@boost@@QEAAXPEAUerror_info_container@23@@Z
	?allocate@?$allocator@D@std@@QEAAPEAD_K@Z
	?allocate@?$allocator@H@std@@QEAAPEAH_K@Z
	?allocate@?$allocator@PEAUNode@carrot_planner@@@std@@QEAAPEAPEAUNode@carrot_planner@@_K@Z
	?allocate@?$allocator@U?$Point_@V?$allocator@X@std@@@geometry_msgs@@@std@@QEAAPEAU?$Point_@V?$allocator@X@std@@@geometry_msgs@@_K@Z
	?allocate@?$allocator@U?$PoseStamped_@V?$allocator@X@std@@@geometry_msgs@@@std@@QEAAPEAU?$PoseStamped_@V?$allocator@X@std@@@geometry_msgs@@_K@Z
	?allocate@?$allocator@U?$_List_node@HPEAX@std@@@std@@QEAAPEAU?$_List_node@HPEAX@2@_K@Z
	?allocate@?$allocator@U?$_List_node@U?$pair@$$CBHPEAUNode@carrot_planner@@@std@@PEAX@std@@@std@@QEAAPEAU?$_List_node@U?$pair@$$CBHPEAUNode@carrot_planner@@@std@@PEAX@2@_K@Z
	?allocate@?$allocator@U?$_Tree_node@U?$pair@$$CBV?$basic_string@DU?$char_traits@D@std@@V?$allocator@D@2@@std@@PEAVAbstractMetaObjectBase@impl@class_loader@@@std@@PEAX@std@@@std@@QEAAPEAU?$_Tree_node@U?$pair@$$CBV?$basic_string@DU?$char_traits@D@std@@V?$allocator@D@2@@std@@PEAVAbstractMetaObjectBase@impl@class_loader@@@std@@PEAX@2@_K@Z
	?allocate@?$allocator@U?$_Tree_node@U?$pair@$$CBV?$basic_string@DU?$char_traits@D@std@@V?$allocator@D@2@@std@@V12@@std@@PEAX@std@@@std@@QEAAPEAU?$_Tree_node@U?$pair@$$CBV?$basic_string@DU?$char_traits@D@std@@V?$allocator@D@2@@std@@V12@@std@@PEAX@2@_K@Z
	?allocate@?$allocator@V?$_List_unchecked_const_iterator@V?$_List_val@U?$_List_simple_types@H@std@@@std@@U_Iterator_base0@2@@std@@@std@@QEAAPEAV?$_List_unchecked_const_iterator@V?$_List_val@U?$_List_simple_types@H@std@@@std@@U_Iterator_base0@2@@2@_K@Z
	?allocate@?$allocator@V?$_List_unchecked_iterator@V?$_List_val@U?$_List_simple_types@U?$pair@$$CBHPEAUNode@carrot_planner@@@std@@@std@@@std@@@std@@@std@@QEAAPEAV?$_List_unchecked_iterator@V?$_List_val@U?$_List_simple_types@U?$pair@$$CBHPEAUNode@carrot_planner@@@std@@@std@@@std@@@2@_K@Z
	?append@?$basic_string@DU?$char_traits@D@std@@V?$allocator@D@2@@std@@QEAAAEAV12@AEBV12@@Z
	?append@?$basic_string@DU?$char_traits@D@std@@V?$allocator@D@2@@std@@QEAAAEAV12@QEBD@Z
	?append@?$basic_string@DU?$char_traits@D@std@@V?$allocator@D@2@@std@@QEAAAEAV12@QEBD_K@Z
	?assign@?$_Narrow_char_traits@DH@std@@SAXAEADAEBD@Z
	?assign@?$basic_string@DU?$char_traits@D@std@@V?$allocator@D@2@@std@@QEAAAEAV12@QEBD@Z
	?assign@?$basic_string@DU?$char_traits@D@std@@V?$allocator@D@2@@std@@QEAAAEAV12@QEBD_K@Z
	?atomic_decrement@detail@boost@@YAHPEAU?$atomic@H@std@@@Z
	?atomic_increment@detail@boost@@YAXPEAU?$atomic@H@std@@@Z
	?begin@?$vector@PEAUNode@carrot_planner@@V?$allocator@PEAUNode@carrot_planner@@@std@@@std@@QEAA?AV?$_Vector_iterator@V?$_Vector_val@U?$_Simple_types@PEAUNode@carrot_planner@@@std@@@std@@@2@XZ
	?begin@?$vector@U?$PoseStamped_@V?$allocator@X@std@@@geometry_msgs@@V?$allocator@U?$PoseStamped_@V?$allocator@X@std@@@geometry_msgs@@@std@@@std@@QEAA?AV?$_Vector_iterator@V?$_Vector_val@U?$_Simple_types@U?$PoseStamped_@V?$allocator@X@std@@@geometry_msgs@@@std@@@std@@@2@XZ
	?bucket@?$_Hash@V?$_Umap_traits@HPEAUNode@carrot_planner@@V?$_Uhash_compare@HU?$hash@H@std@@U?$equal_to@H@2@@std@@V?$allocator@U?$pair@$$CBHPEAUNode@carrot_planner@@@std@@@4@$0A@@std@@@std@@QEBA_KAEBH@Z
	?bucket@?$_Hash@V?$_Uset_traits@HV?$_Uhash_compare@HU?$hash@H@std@@U?$equal_to@H@2@@std@@V?$allocator@H@2@$0A@@std@@@std@@QEBA_KAEBH@Z
	?bucket_count@?$_Hash@V?$_Umap_traits@HPEAUNode@carrot_planner@@V?$_Uhash_compare@HU?$hash@H@std@@U?$equal_to@H@2@@std@@V?$allocator@U?$pair@$$CBHPEAUNode@carrot_planner@@@std@@@4@$0A@@std@@@std@@QEBA_KXZ
	?bucket_count@?$_Hash@V?$_Uset_traits@HV?$_Uhash_compare@HU?$hash@H@std@@U?$equal_to@H@2@@std@@V?$allocator@H@2@$0A@@std@@@std@@QEBA_KXZ
	?c_str@?$basic_string@DU?$char_traits@D@std@@V?$allocator@D@2@@std@@QEBAPEBDXZ
	?calculateHeuristic@CarrotPlanner@carrot_planner@@AEAANHH@Z
	?capacity@?$_Hash_vec@V?$allocator@V?$_List_unchecked_const_iterator@V?$_List_val@U?$_List_simple_types@H@std@@@std@@U_Iterator_base0@2@@std@@@std@@@std@@QEBA_KXZ
	?capacity@?$_Hash_vec@V?$allocator@V?$_List_unchecked_iterator@V?$_List_val@U?$_List_simple_types@U?$pair@$$CBHPEAUNode@carrot_planner@@@std@@@std@@@std@@@std@@@std@@@std@@QEBA_KXZ
	?capacity@?$vector@HV?$allocator@H@std@@@std@@QEBA_KXZ
	?capacity@?$vector@PEAUNode@carrot_planner@@V?$allocator@PEAUNode@carrot_planner@@@std@@@std@@QEBA_KXZ
	?capacity@?$vector@U?$Point_@V?$allocator@X@std@@@geometry_msgs@@V?$allocator@U?$Point_@V?$allocator@X@std@@@geometry_msgs@@@std@@@std@@QEBA_KXZ
	?capacity@?$vector@U?$PoseStamped_@V?$allocator@X@std@@@geometry_msgs@@V?$allocator@U?$PoseStamped_@V?$allocator@X@std@@@geometry_msgs@@@std@@@std@@QEBA_KXZ
	?clear@?$_Hash@V?$_Umap_traits@HPEAUNode@carrot_planner@@V?$_Uhash_compare@HU?$hash@H@std@@U?$equal_to@H@2@@std@@V?$allocator@U?$pair@$$CBHPEAUNode@carrot_planner@@@std@@@4@$0A@@std@@@std@@QEAAXXZ
	?clear@?$_Hash@V?$_Uset_traits@HV?$_Uhash_compare@HU?$hash@H@std@@U?$equal_to@H@2@@std@@V?$allocator@H@2@$0A@@std@@@std@@QEAAXXZ
	?clear@?$list@HV?$allocator@H@std@@@std@@QEAAXXZ
	?clear@?$list@U?$pair@$$CBHPEAUNode@carrot_planner@@@std@@V?$allocator@U?$pair@$$CBHPEAUNode@carrot_planner@@@std@@@2@@std@@QEAAXXZ
	?clear@?$vector@U?$PoseStamped_@V?$allocator@X@std@@@geometry_msgs@@V?$allocator@U?$PoseStamped_@V?$allocator@X@std@@@geometry_msgs@@@std@@@std@@QEAAXXZ
	?clear_waiting_and_try_lock@basic_timed_mutex@detail@boost@@QEAAXAEAJ@Z
	?clone@?$clone_impl@U?$error_info_injector@Vthread_resource_error@boost@@@exception_detail@boost@@@exception_detail@boost@@$0PPPPPPPM@A@EBAPEBVclone_base@23@XZ
	?clone@?$clone_impl@U?$error_info_injector@Vthread_resource_error@boost@@@exception_detail@boost@@@exception_detail@boost@@EEBAPEBVclone_base@23@XZ
	?clone@?$clone_impl@Ubad_alloc_@exception_detail@boost@@@exception_detail@boost@@$0PPPPPPPM@A@EBAPEBVclone_base@23@XZ
	?clone@?$clone_impl@Ubad_alloc_@exception_detail@boost@@@exception_detail@boost@@EEBAPEBVclone_base@23@XZ
	?clone@?$clone_impl@Ubad_exception_@exception_detail@boost@@@exception_detail@boost@@$0PPPPPPPM@A@EBAPEBVclone_base@23@XZ
	?clone@?$clone_impl@Ubad_exception_@exception_detail@boost@@@exception_detail@boost@@EEBAPEBVclone_base@23@XZ
	?compare@?$_Narrow_char_traits@DH@std@@SAHQEBD0_K@Z
	?compare@?$basic_string@DU?$char_traits@D@std@@V?$allocator@D@2@@std@@QEBAHAEBV12@@Z
	?copy@?$_Char_traits@DH@std@@SAPEADQEADQEBD_K@Z
	?copy_boost_exception@exception_detail@boost@@YAXPEAVexception@2@PEBV32@@Z
	?create@?$MetaObject@VCarrotPlanner@carrot_planner@@VBaseGlobalPlanner@nav_core@@@impl@class_loader@@UEBAPEAVBaseGlobalPlanner@nav_core@@XZ
	?create_anonymous_event@win32@detail@boost@@YAPEAXW4event_type@123@W4initial_event_state@123@@Z
	?create_event@win32@detail@boost@@YAPEAXPEBDW4event_type@123@W4initial_event_state@123@@Z
	?deallocate@?$_Default_allocator_traits@V?$allocator@U?$_List_node@HPEAX@std@@@std@@@std@@SAXAEAV?$allocator@U?$_List_node@HPEAX@std@@@2@QEAU?$_List_node@HPEAX@2@_K@Z
	?deallocate@?$_Default_allocator_traits@V?$allocator@U?$_List_node@U?$pair@$$CBHPEAUNode@carrot_planner@@@std@@PEAX@std@@@std@@@std@@SAXAEAV?$allocator@U?$_List_node@U?$pair@$$CBHPEAUNode@carrot_planner@@@std@@PEAX@std@@@2@QEAU?$_List_node@U?$pair@$$CBHPEAUNode@carrot_planner@@@std@@PEAX@2@_K@Z
	?deallocate@?$_Default_allocator_traits@V?$allocator@U?$_Tree_node@U?$pair@$$CBV?$basic_string@DU?$char_traits@D@std@@V?$allocator@D@2@@std@@V12@@std@@PEAX@std@@@std@@@std@@SAXAEAV?$allocator@U?$_Tree_node@U?$pair@$$CBV?$basic_string@DU?$char_traits@D@std@@V?$allocator@D@2@@std@@V12@@std@@PEAX@std@@@2@QEAU?$_Tree_node@U?$pair@$$CBV?$basic_string@DU?$char_traits@D@std@@V?$allocator@D@2@@std@@V12@@std@@PEAX@2@_K@Z
	?deallocate@?$allocator@D@std@@QEAAXQEAD_K@Z
	?deallocate@?$allocator@H@std@@QEAAXQEAH_K@Z
	?deallocate@?$allocator@PEAUNode@carrot_planner@@@std@@QEAAXQEAPEAUNode@carrot_planner@@_K@Z
	?deallocate@?$allocator@U?$Point_@V?$allocator@X@std@@@geometry_msgs@@@std@@QEAAXQEAU?$Point_@V?$allocator@X@std@@@geometry_msgs@@_K@Z
	?deallocate@?$allocator@U?$PoseStamped_@V?$allocator@X@std@@@geometry_msgs@@@std@@QEAAXQEAU?$PoseStamped_@V?$allocator@X@std@@@geometry_msgs@@_K@Z
	?deallocate@?$allocator@U?$_List_node@HPEAX@std@@@std@@QEAAXQEAU?$_List_node@HPEAX@2@_K@Z
	?deallocate@?$allocator@U?$_List_node@U?$pair@$$CBHPEAUNode@carrot_planner@@@std@@PEAX@std@@@std@@QEAAXQEAU?$_List_node@U?$pair@$$CBHPEAUNode@carrot_planner@@@std@@PEAX@2@_K@Z
	?deallocate@?$allocator@U?$_Tree_node@U?$pair@$$CBV?$basic_string@DU?$char_traits@D@std@@V?$allocator@D@2@@std@@PEAVAbstractMetaObjectBase@impl@class_loader@@@std@@PEAX@std@@@std@@QEAAXQEAU?$_Tree_node@U?$pair@$$CBV?$basic_string@DU?$char_traits@D@std@@V?$allocator@D@2@@std@@PEAVAbstractMetaObjectBase@impl@class_loader@@@std@@PEAX@2@_K@Z
	?deallocate@?$allocator@V?$_List_unchecked_const_iterator@V?$_List_val@U?$_List_simple_types@H@std@@@std@@U_Iterator_base0@2@@std@@@std@@QEAAXQEAV?$_List_unchecked_const_iterator@V?$_List_val@U?$_List_simple_types@H@std@@@std@@U_Iterator_base0@2@@2@_K@Z
	?deallocate@?$allocator@V?$_List_unchecked_iterator@V?$_List_val@U?$_List_simple_types@U?$pair@$$CBHPEAUNode@carrot_planner@@@std@@@std@@@std@@@std@@@std@@QEAAXQEAV?$_List_unchecked_iterator@V?$_List_val@U?$_List_simple_types@U?$pair@$$CBHPEAUNode@carrot_planner@@@std@@@std@@@std@@@2@_K@Z
	?destroy@sp_counted_base@detail@boost@@UEAAXXZ
	?dispose@?$sp_counted_impl_p@V?$clone_impl@Ubad_alloc_@exception_detail@boost@@@exception_detail@boost@@@detail@boost@@UEAAXXZ
	?dispose@?$sp_counted_impl_p@V?$clone_impl@Ubad_exception_@exception_detail@boost@@@exception_detail@boost@@@detail@boost@@UEAAXXZ
	?distanceBetween@CarrotPlanner@carrot_planner@@AEAANHH@Z
	?empty@?$basic_string@DU?$char_traits@D@std@@V?$allocator@D@2@@std@@QEBA_NXZ
	?empty@?$priority_queue@PEAUNode@carrot_planner@@V?$vector@PEAUNode@carrot_planner@@V?$allocator@PEAUNode@carrot_planner@@@std@@@std@@UNodeComparator@2@@std@@QEBA_NXZ
	?empty@?$vector@PEAUNode@carrot_planner@@V?$allocator@PEAUNode@carrot_planner@@@std@@@std@@QEBA_NXZ
	?end@?$_Hash@V?$_Umap_traits@HPEAUNode@carrot_planner@@V?$_Uhash_compare@HU?$hash@H@std@@U?$equal_to@H@2@@std@@V?$allocator@U?$pair@$$CBHPEAUNode@carrot_planner@@@std@@@4@$0A@@std@@@std@@QEAA?AV?$_List_iterator@V?$_List_val@U?$_List_simple_types@U?$pair@$$CBHPEAUNode@carrot_planner@@@std@@@std@@@std@@@2@XZ
	?end@?$_Hash@V?$_Uset_traits@HV?$_Uhash_compare@HU?$hash@H@std@@U?$equal_to@H@2@@std@@V?$allocator@H@2@$0A@@std@@@std@@QEAA?AV?$_List_const_iterator@V?$_List_val@U?$_List_simple_types@H@std@@@std@@@2@XZ
	?end@?$_Tree@V?$_Tmap_traits@V?$basic_string@DU?$char_traits@D@std@@V?$allocator@D@2@@std@@PEAVAbstractMetaObjectBase@impl@class_loader@@U?$less@V?$basic_string@DU?$char_traits@D@std@@V?$allocator@D@2@@std@@@2@V?$allocator@U?$pair@$$CBV?$basic_string@DU?$char_traits@D@std@@V?$allocator@D@2@@std@@PEAVAbstractMetaObjectBase@impl@class_loader@@@std@@@2@$0A@@std@@@std@@QEAA?AV?$_Tree_iterator@V?$_Tree_val@U?$_Tree_simple_types@U?$pair@$$CBV?$basic_string@DU?$char_traits@D@std@@V?$allocator@D@2@@std@@PEAVAbstractMetaObjectBase@impl@class_loader@@@std@@@std@@@std@@@2@XZ
	?end@?$list@HV?$allocator@H@std@@@std@@QEAA?AV?$_List_iterator@V?$_List_val@U?$_List_simple_types@H@std@@@std@@@2@XZ
	?end@?$list@U?$pair@$$CBHPEAUNode@carrot_planner@@@std@@V?$allocator@U?$pair@$$CBHPEAUNode@carrot_planner@@@std@@@2@@std@@QEAA?AV?$_List_iterator@V?$_List_val@U?$_List_simple_types@U?$pair@$$CBHPEAUNode@carrot_planner@@@std@@@std@@@std@@@2@XZ
	?end@?$vector@PEAUNode@carrot_planner@@V?$allocator@PEAUNode@carrot_planner@@@std@@@std@@QEAA?AV?$_Vector_iterator@V?$_Vector_val@U?$_Simple_types@PEAUNode@carrot_planner@@@std@@@std@@@2@XZ
	?end@?$vector@U?$PoseStamped_@V?$allocator@X@std@@@geometry_msgs@@V?$allocator@U?$PoseStamped_@V?$allocator@X@std@@@geometry_msgs@@@std@@@std@@QEAA?AV?$_Vector_iterator@V?$_Vector_val@U?$_Simple_types@U?$PoseStamped_@V?$allocator@X@std@@@geometry_msgs@@@std@@@std@@@2@XZ
	?fetch_add@?$_Atomic_integral@H$03@std@@QEAAHHW4memory_order@2@@Z
	?fetch_sub@?$_Atomic_integral_facade@H@std@@QEAAHHW4memory_order@2@@Z
	?find@?$_Tree@V?$_Tmap_traits@V?$basic_string@DU?$char_traits@D@std@@V?$allocator@D@2@@std@@PEAVAbstractMetaObjectBase@impl@class_loader@@U?$less@V?$basic_string@DU?$char_traits@D@std@@V?$allocator@D@2@@std@@@2@V?$allocator@U?$pair@$$CBV?$basic_string@DU?$char_traits@D@std@@V?$allocator@D@2@@std@@PEAVAbstractMetaObjectBase@impl@class_loader@@@std@@@2@$0A@@std@@@std@@QEAA?AV?$_Tree_iterator@V?$_Tree_val@U?$_Tree_simple_types@U?$pair@$$CBV?$basic_string@DU?$char_traits@D@std@@V?$allocator@D@2@@std@@PEAVAbstractMetaObjectBase@impl@class_loader@@@std@@@std@@@std@@@2@AEBV?$basic_string@DU?$char_traits@D@std@@V?$allocator@D@2@@2@@Z
	?footprintCost@CarrotPlanner@carrot_planner@@QEAANNNN@Z
	?footprintCost@WorldModel@base_local_planner@@QEAANNNNAEBV?$vector@U?$Point_@V?$allocator@X@std@@@geometry_msgs@@V?$allocator@U?$Point_@V?$allocator@X@std@@@geometry_msgs@@@std@@@std@@NN@Z
	?front@?$vector@PEAUNode@carrot_planner@@V?$allocator@PEAUNode@carrot_planner@@@std@@@std@@QEBAAEBQEAUNode@carrot_planner@@XZ
	?get@?$refcount_ptr@Uerror_info_container@exception_detail@boost@@@exception_detail@boost@@QEBAPEAUerror_info_container@23@XZ
	?getCostmap@Costmap2DROS@costmap_2d@@QEAAPEAVCostmap2D@2@XZ
	?getCostmap@LayeredCostmap@costmap_2d@@QEAAPEAVCostmap2D@2@XZ
	?getGlobalFrameID@Costmap2DROS@costmap_2d@@QEAA?AV?$basic_string@DU?$char_traits@D@std@@V?$allocator@D@2@@std@@XZ
	?getNeighbors@CarrotPlanner@carrot_planner@@AEAA?AV?$vector@HV?$allocator@H@std@@@std@@H@Z
	?getRobotFootprint@Costmap2DROS@costmap_2d@@QEAA?AV?$vector@U?$Point_@V?$allocator@X@std@@@geometry_msgs@@V?$allocator@U?$Point_@V?$allocator@X@std@@@geometry_msgs@@@std@@@std@@XZ
	?get_deleter@?$sp_counted_impl_p@V?$clone_impl@Ubad_alloc_@exception_detail@boost@@@exception_detail@boost@@@detail@boost@@UEAAPEAXAEBVtype_info@@@Z
	?get_deleter@?$sp_counted_impl_p@V?$clone_impl@Ubad_exception_@exception_detail@boost@@@exception_detail@boost@@@detail@boost@@UEAAPEAXAEBVtype_info@@@Z
	?get_event@basic_timed_mutex@detail@boost@@AEAAPEAXXZ
	?get_local_deleter@?$sp_counted_impl_p@V?$clone_impl@Ubad_alloc_@exception_detail@boost@@@exception_detail@boost@@@detail@boost@@UEAAPEAXAEBVtype_info@@@Z
	?get_local_deleter@?$sp_counted_impl_p@V?$clone_impl@Ubad_exception_@exception_detail@boost@@@exception_detail@boost@@@detail@boost@@UEAAPEAXAEBVtype_info@@@Z
	?get_untyped_deleter@?$sp_counted_impl_p@V?$clone_impl@Ubad_alloc_@exception_detail@boost@@@exception_detail@boost@@@detail@boost@@UEAAPEAXXZ
	?get_untyped_deleter@?$sp_counted_impl_p@V?$clone_impl@Ubad_exception_@exception_detail@boost@@@exception_detail@boost@@@detail@boost@@UEAAPEAXXZ
	?indexToCells@CarrotPlanner@carrot_planner@@AEBAXHAEAN0@Z
	?initialize@CarrotPlanner@carrot_planner@@UEAAXV?$basic_string@DU?$char_traits@D@std@@V?$allocator@D@2@@std@@PEAVCostmap2DROS@costmap_2d@@@Z
	?insert@?$_Hash@V?$_Uset_traits@HV?$_Uhash_compare@HU?$hash@H@std@@U?$equal_to@H@2@@std@@V?$allocator@H@2@$0A@@std@@@std@@QEAA?AU?$pair@V?$_List_const_iterator@V?$_List_val@U?$_List_simple_types@H@std@@@std@@@std@@_N@2@AEBH@Z
	?interlocked_bit_test_and_set@win32@detail@boost@@YA_NPEAJJ@Z
	?interlocked_read_acquire@detail@boost@@YAJPECJ@Z
	?interlocked_read_acquire@detail@boost@@YAPEAXPECREAX@Z
	?isValidIndex@CarrotPlanner@carrot_planner@@AEBA_NH@Z
	?length@?$_Narrow_char_traits@DH@std@@SA_KQEBD@Z
	?lock@?$basic_recursive_mutex_impl@Ubasic_timed_mutex@detail@boost@@@detail@boost@@QEAAXXZ
	?lock@basic_timed_mutex@detail@boost@@QEAAXXZ
	?makePlan@BaseGlobalPlanner@nav_core@@UEAA_NAEBU?$PoseStamped_@V?$allocator@X@std@@@geometry_msgs@@0AEAV?$vector@U?$PoseStamped_@V?$allocator@X@std@@@geometry_msgs@@V?$allocator@U?$PoseStamped_@V?$allocator@X@std@@@geometry_msgs@@@std@@@std@@AEAN@Z
	?makePlan@CarrotPlanner@carrot_planner@@UEAA_NAEBU?$PoseStamped_@V?$allocator@X@std@@@geometry_msgs@@0AEAV?$vector@U?$PoseStamped_@V?$allocator@X@std@@@geometry_msgs@@V?$allocator@U?$PoseStamped_@V?$allocator@X@std@@@geometry_msgs@@@std@@@std@@@Z
	?mark_waiting_and_try_lock@basic_timed_mutex@detail@boost@@QEAAXAEAJ@Z
	?max@?$numeric_limits@_J@std@@SA_JXZ
	?max_load_factor@?$_Hash@V?$_Umap_traits@HPEAUNode@carrot_planner@@V?$_Uhash_compare@HU?$hash@H@std@@U?$equal_to@H@2@@std@@V?$allocator@U?$pair@$$CBHPEAUNode@carrot_planner@@@std@@@4@$0A@@std@@@std@@QEBAMXZ
	?max_load_factor@?$_Hash@V?$_Uset_traits@HV?$_Uhash_compare@HU?$hash@H@std@@U?$equal_to@H@2@@std@@V?$allocator@H@2@$0A@@std@@@std@@QEBAMXZ
	?max_size@?$_Default_allocator_traits@V?$allocator@D@std@@@std@@SA_KAEBV?$allocator@D@2@@Z
	?max_size@?$_Default_allocator_traits@V?$allocator@H@std@@@std@@SA_KAEBV?$allocator@H@2@@Z
	?max_size@?$_Default_allocator_traits@V?$allocator@PEAUNode@carrot_planner@@@std@@@std@@SA_KAEBV?$allocator@PEAUNode@carrot_planner@@@2@@Z
	?max_size@?$_Default_allocator_traits@V?$allocator@U?$Point_@V?$allocator@X@std@@@geometry_msgs@@@std@@@std@@SA_KAEBV?$allocator@U?$Point_@V?$allocator@X@std@@@geometry_msgs@@@2@@Z
	?max_size@?$_Default_allocator_traits@V?$allocator@U?$PoseStamped_@V?$allocator@X@std@@@geometry_msgs@@@std@@@std@@SA_KAEBV?$allocator@U?$PoseStamped_@V?$allocator@X@std@@@geometry_msgs@@@2@@Z
	?max_size@?$_Default_allocator_traits@V?$allocator@U?$_List_node@HPEAX@std@@@std@@@std@@SA_KAEBV?$allocator@U?$_List_node@HPEAX@std@@@2@@Z
	?max_size@?$_Default_allocator_traits@V?$allocator@U?$_List_node@U?$pair@$$CBHPEAUNode@carrot_planner@@@std@@PEAX@std@@@std@@@std@@SA_KAEBV?$allocator@U?$_List_node@U?$pair@$$CBHPEAUNode@carrot_planner@@@std@@PEAX@std@@@2@@Z
	?max_size@?$_Default_allocator_traits@V?$allocator@U?$_Tree_node@U?$pair@$$CBV?$basic_string@DU?$char_traits@D@std@@V?$allocator@D@2@@std@@PEAVAbstractMetaObjectBase@impl@class_loader@@@std@@PEAX@std@@@std@@@std@@SA_KAEBV?$allocator@U?$_Tree_node@U?$pair@$$CBV?$basic_string@DU?$char_traits@D@std@@V?$allocator@D@2@@std@@PEAVAbstractMetaObjectBase@impl@class_loader@@@std@@PEAX@std@@@2@@Z
	?max_size@?$_Default_allocator_traits@V?$allocator@V?$_List_unchecked_const_iterator@V?$_List_val@U?$_List_simple_types@H@std@@@std@@U_Iterator_base0@2@@std@@@std@@@std@@SA_KAEBV?$allocator@V?$_List_unchecked_const_iterator@V?$_List_val@U?$_List_simple_types@H@std@@@std@@U_Iterator_base0@2@@std@@@2@@Z
	?max_size@?$_Default_allocator_traits@V?$allocator@V?$_List_unchecked_iterator@V?$_List_val@U?$_List_simple_types@U?$pair@$$CBHPEAUNode@carrot_planner@@@std@@@std@@@std@@@std@@@std@@@std@@SA_KAEBV?$allocator@V?$_List_unchecked_iterator@V?$_List_val@U?$_List_simple_types@U?$pair@$$CBHPEAUNode@carrot_planner@@@std@@@std@@@std@@@std@@@2@@Z
	?max_size@?$_Hash_vec@V?$allocator@V?$_List_unchecked_const_iterator@V?$_List_val@U?$_List_simple_types@H@std@@@std@@U_Iterator_base0@2@@std@@@std@@@std@@QEBA_KXZ
	?max_size@?$_Hash_vec@V?$allocator@V?$_List_unchecked_iterator@V?$_List_val@U?$_List_simple_types@U?$pair@$$CBHPEAUNode@carrot_planner@@@std@@@std@@@std@@@std@@@std@@@std@@QEBA_KXZ
	?max_size@?$_Tree@V?$_Tmap_traits@V?$basic_string@DU?$char_traits@D@std@@V?$allocator@D@2@@std@@PEAVAbstractMetaObjectBase@impl@class_loader@@U?$less@V?$basic_string@DU?$char_traits@D@std@@V?$allocator@D@2@@std@@@2@V?$allocator@U?$pair@$$CBV?$basic_string@DU?$char_traits@D@std@@V?$allocator@D@2@@std@@PEAVAbstractMetaObjectBase@impl@class_loader@@@std@@@2@$0A@@std@@@std@@QEBA_KXZ
	?max_size@?$basic_string@DU?$char_traits@D@std@@V?$allocator@D@2@@std@@QEBA_KXZ
	?max_size@?$list@HV?$allocator@H@std@@@std@@QEBA_KXZ
	?max_size@?$list@U?$pair@$$CBHPEAUNode@carrot_planner@@@std@@V?$allocator@U?$pair@$$CBHPEAUNode@carrot_planner@@@std@@@2@@std@@QEBA_KXZ
	?max_size@?$vector@HV?$allocator@H@std@@@std@@QEBA_KXZ
	?max_size@?$vector@PEAUNode@carrot_planner@@V?$allocator@PEAUNode@carrot_planner@@@std@@@std@@QEBA_KXZ
	?max_size@?$vector@U?$Point_@V?$allocator@X@std@@@geometry_msgs@@V?$allocator@U?$Point_@V?$allocator@X@std@@@geometry_msgs@@@std@@@std@@QEBA_KXZ
	?max_size@?$vector@U?$PoseStamped_@V?$allocator@X@std@@@geometry_msgs@@V?$allocator@U?$PoseStamped_@V?$allocator@X@std@@@geometry_msgs@@@std@@@std@@QEBA_KXZ
	?message@error_code@system@boost@@QEBA?AV?$basic_string@DU?$char_traits@D@std@@V?$allocator@D@2@@std@@XZ
	?move@?$_Char_traits@DH@std@@SAPEADQEADQEBD_K@Z
	?name@type_info@@QEBAPEBDXZ
	?owns_lock@?$unique_lock@Vmutex@boost@@@boost@@QEBA_NXZ
	?pop@?$priority_queue@PEAUNode@carrot_planner@@V?$vector@PEAUNode@carrot_planner@@V?$allocator@PEAUNode@carrot_planner@@@std@@@std@@UNodeComparator@2@@std@@QEAAXXZ
	?pop_back@?$vector@PEAUNode@carrot_planner@@V?$allocator@PEAUNode@carrot_planner@@@std@@@std@@QEAAXXZ
	?push@?$priority_queue@PEAUNode@carrot_planner@@V?$vector@PEAUNode@carrot_planner@@V?$allocator@PEAUNode@carrot_planner@@@std@@@std@@UNodeComparator@2@@std@@QEAAXAEBQEAUNode@carrot_planner@@@Z
	?push_back@?$vector@HV?$allocator@H@std@@@std@@QEAAXAEBH@Z
	?push_back@?$vector@PEAUNode@carrot_planner@@V?$allocator@PEAUNode@carrot_planner@@@std@@@std@@QEAAXAEBQEAUNode@carrot_planner@@@Z
	?push_back@?$vector@U?$Point_@V?$allocator@X@std@@@geometry_msgs@@V?$allocator@U?$Point_@V?$allocator@X@std@@@geometry_msgs@@@std@@@std@@QEAAXAEBU?$Point_@V?$allocator@X@std@@@geometry_msgs@@@Z
	?push_back@?$vector@U?$PoseStamped_@V?$allocator@X@std@@@geometry_msgs@@V?$allocator@U?$PoseStamped_@V?$allocator@X@std@@@geometry_msgs@@@std@@@std@@QEAAXAEBU?$PoseStamped_@V?$allocator@X@std@@@geometry_msgs@@@Z
	?release@?$refcount_ptr@Uerror_info_container@exception_detail@boost@@@exception_detail@boost@@AEAAXXZ
	?release@sp_counted_base@detail@boost@@QEAAXXZ
	?rethrow@?$clone_impl@U?$error_info_injector@Vthread_resource_error@boost@@@exception_detail@boost@@@exception_detail@boost@@$0PPPPPPPM@A@EBAXXZ
	?rethrow@?$clone_impl@U?$error_info_injector@Vthread_resource_error@boost@@@exception_detail@boost@@@exception_detail@boost@@EEBAXXZ
	?rethrow@?$clone_impl@Ubad_alloc_@exception_detail@boost@@@exception_detail@boost@@$0PPPPPPPM@A@EBAXXZ
	?rethrow@?$clone_impl@Ubad_alloc_@exception_detail@boost@@@exception_detail@boost@@EEBAXXZ
	?rethrow@?$clone_impl@Ubad_exception_@exception_detail@boost@@@exception_detail@boost@@$0PPPPPPPM@A@EBAXXZ
	?rethrow@?$clone_impl@Ubad_exception_@exception_detail@boost@@@exception_detail@boost@@EEBAXXZ
	?select_on_container_copy_construction@?$_Default_allocator_traits@V?$allocator@D@std@@@std@@SA?AV?$allocator@D@2@AEBV32@@Z
	?select_on_container_copy_construction@?$_Default_allocator_traits@V?$allocator@U?$Point_@V?$allocator@X@std@@@geometry_msgs@@@std@@@std@@SA?AV?$allocator@U?$Point_@V?$allocator@X@std@@@geometry_msgs@@@2@AEBV32@@Z
	?size@?$_Hash_vec@V?$allocator@V?$_List_unchecked_const_iterator@V?$_List_val@U?$_List_simple_types@H@std@@@std@@U_Iterator_base0@2@@std@@@std@@@std@@QEBA_KXZ
	?size@?$_Hash_vec@V?$allocator@V?$_List_unchecked_iterator@V?$_List_val@U?$_List_simple_types@U?$pair@$$CBHPEAUNode@carrot_planner@@@std@@@std@@@std@@@std@@@std@@@std@@QEBA_KXZ
	?size@?$basic_string@DU?$char_traits@D@std@@V?$allocator@D@2@@std@@QEBA_KXZ
	?size@?$vector@U?$Point_@V?$allocator@X@std@@@geometry_msgs@@V?$allocator@U?$Point_@V?$allocator@X@std@@@geometry_msgs@@@std@@@std@@QEBA_KXZ
	?sp_enable_shared_from_this@detail@boost@@YAXZZ
	?swap@shared_count@detail@boost@@QEAAXAEAV123@@Z
	?throw_exception_assert_compatibility@boost@@YAXAEBVexception@std@@@Z
	?toIndex@CarrotPlanner@carrot_planner@@AEBAHNN@Z
	?top@?$priority_queue@PEAUNode@carrot_planner@@V?$vector@PEAUNode@carrot_planner@@V?$allocator@PEAUNode@carrot_planner@@@std@@@std@@UNodeComparator@2@@std@@QEBAAEBQEAUNode@carrot_planner@@XZ
	?try_lock@basic_timed_mutex@detail@boost@@QEAA_NXZ
	?try_recursive_lock@?$basic_recursive_mutex_impl@Ubasic_timed_mutex@detail@boost@@@detail@boost@@AEAA_NJ@Z
	?unlock@?$basic_recursive_mutex_impl@Ubasic_timed_mutex@detail@boost@@@detail@boost@@QEAAXXZ
	?unlock@basic_timed_mutex@detail@boost@@QEAAXXZ
	?value@error_code@system@boost@@QEBAHXZ
	?weak_release@sp_counted_base@detail@boost@@QEAAXXZ
	?what@exception@std@@UEBAPEBDXZ
	?what@system_error@system@boost@@UEBAPEBDXZ
	_Check_memory_order
	wmemcpy
