EXPORTS 
	?$TSS0@?1???$get_static_exception_object@Ubad_alloc_@exception_detail@boost@@@exception_detail@boost@@YA?AVexception_ptr@2@XZ@4HA 	 DATA
	?$TSS0@?1???$get_static_exception_object@Ubad_exception_@exception_detail@boost@@@exception_detail@boost@@YA?AVexception_ptr@2@XZ@4HA 	 DATA
	??_R0?AU?$error_info_injector@Vthread_resource_error@boost@@@exception_detail@boost@@@8 	 DATA
	??_R0?AUbad_alloc_@exception_detail@boost@@@8 	 DATA
	??_R0?AUbad_exception_@exception_detail@boost@@@8 	 DATA
	??_R0?AV?$AbstractMetaObject@VBaseGlobalPlanner@nav_core@@@impl@class_loader@@@8 	 DATA
	??_R0?AV?$MetaObject@VGlobalPlanner@global_planner@@VBaseGlobalPlanner@nav_core@@@impl@class_loader@@@8 	 DATA
	??_R0?AV?$clone_impl@U?$error_info_injector@Vthread_resource_error@boost@@@exception_detail@boost@@@exception_detail@boost@@@8 	 DATA
	??_R0?AV?$clone_impl@Ubad_alloc_@exception_detail@boost@@@exception_detail@boost@@@8 	 DATA
	??_R0?AV?$clone_impl@Ubad_exception_@exception_detail@boost@@@exception_detail@boost@@@8 	 DATA
	??_R0?AV?$sp_counted_impl_p@V?$clone_impl@Ubad_alloc_@exception_detail@boost@@@exception_detail@boost@@@detail@boost@@@8 	 DATA
	??_R0?AV?$sp_counted_impl_p@V?$clone_impl@Ubad_exception_@exception_detail@boost@@@exception_detail@boost@@@detail@boost@@@8 	 DATA
	??_R0?AVAbstractMetaObjectBase@impl@class_loader@@@8 	 DATA
	??_R0?AVBaseGlobalPlanner@nav_core@@@8 	 DATA
	??_R0?AVGlobalPlanner@global_planner@@@8 	 DATA
	??_R0?AVbad_alloc@std@@@8 	 DATA
	??_R0?AVbad_array_new_length@std@@@8 	 DATA
	??_R0?AVbad_exception@std@@@8 	 DATA
	??_R0?AVclone_base@exception_detail@boost@@@8 	 DATA
	??_R0?AVexception@boost@@@8 	 DATA
	??_R0?AVexception@std@@@8 	 DATA
	??_R0?AVruntime_error@std@@@8 	 DATA
	??_R0?AVsp_counted_base@detail@boost@@@8 	 DATA
	??_R0?AVsystem_error@system@boost@@@8 	 DATA
	??_R0?AVthread_exception@boost@@@8 	 DATA
	??_R0?AVthread_resource_error@boost@@@8 	 DATA
	?e@?$exception_ptr_static_exception_object@Ubad_alloc_@exception_detail@boost@@@exception_detail@boost@@2Vexception_ptr@3@B 	 DATA
	?e@?$exception_ptr_static_exception_object@Ubad_exception_@exception_detail@boost@@@exception_detail@boost@@2Vexception_ptr@3@B 	 DATA
	?ep@?1???$get_static_exception_object@Ubad_alloc_@exception_detail@boost@@@exception_detail@boost@@YA?AVexception_ptr@2@XZ@4V32@A 	 DATA
	?ep@?1???$get_static_exception_object@Ubad_exception_@exception_detail@boost@@@exception_detail@boost@@YA?AVexception_ptr@2@XZ@4V32@A 	 DATA
	??$?0$$V@?$_Compressed_pair@V?$allocator@D@std@@V?$_String_val@U?$_Simple_types@D@std@@@2@$00@std@@QEAA@U_Zero_then_variadic_args_t@1@@Z
	??$?0AEBQEAU?$_Tree_node@U?$pair@$$CBV?$basic_string@DU?$char_traits@D@std@@V?$allocator@D@2@@std@@PEAVAbstractMetaObjectBase@impl@class_loader@@@std@@PEAX@std@@_N$0A@@?$pair@PEAU?$_Tree_node@U?$pair@$$CBV?$basic_string@DU?$char_traits@D@std@@V?$allocator@D@2@@std@@PEAVAbstractMetaObjectBase@impl@class_loader@@@std@@PEAX@std@@_N@std@@QEAA@AEBQEAU?$_Tree_node@U?$pair@$$CBV?$basic_string@DU?$char_traits@D@std@@V?$allocator@D@2@@std@@PEAVAbstractMetaObjectBase@impl@class_loader@@@std@@PEAX@1@$$QEA_N@Z
	??$?0AEBUpiecewise_construct_t@std@@V?$tuple@AEBV?$basic_string@DU?$char_traits@D@std@@V?$allocator@D@2@@std@@@1@V?$tuple@$$V@1@@?$_Tree_temp_node@V?$allocator@U?$_Tree_node@U?$pair@$$CBV?$basic_string@DU?$char_traits@D@std@@V?$allocator@D@2@@std@@PEAVAbstractMetaObjectBase@impl@class_loader@@@std@@PEAX@std@@@std@@@std@@QEAA@AEAV?$allocator@U?$_Tree_node@U?$pair@$$CBV?$basic_string@DU?$char_traits@D@std@@V?$allocator@D@2@@std@@PEAVAbstractMetaObjectBase@impl@class_loader@@@std@@PEAX@std@@@1@PEAU?$_Tree_node@U?$pair@$$CBV?$basic_string@DU?$char_traits@D@std@@V?$allocator@D@2@@std@@PEAVAbstractMetaObjectBase@impl@class_loader@@@std@@PEAX@1@AEBUpiecewise_construct_t@1@$$QEAV?$tuple@AEBV?$basic_string@DU?$char_traits@D@std@@V?$allocator@D@2@@std@@@1@$$QEAV?$tuple@$$V@1@@Z
	??$?0AEBV?$basic_string@DU?$char_traits@D@std@@V?$allocator@D@2@@std@@$$Z$$V@?$pair@$$CBV?$basic_string@DU?$char_traits@D@std@@V?$allocator@D@2@@std@@PEAVAbstractMetaObjectBase@impl@class_loader@@@std@@QEAA@Upiecewise_construct_t@1@V?$tuple@AEBV?$basic_string@DU?$char_traits@D@std@@V?$allocator@D@2@@std@@@1@V?$tuple@$$V@1@@Z
	??$?0AEBV?$basic_string@DU?$char_traits@D@std@@V?$allocator@D@2@@std@@$0A@@?$tuple@AEBV?$basic_string@DU?$char_traits@D@std@@V?$allocator@D@2@@std@@@std@@QEAA@AEBV?$basic_string@DU?$char_traits@D@std@@V?$allocator@D@2@@1@@Z
	??$?0AEBV?$basic_string@DU?$char_traits@D@std@@V?$allocator@D@2@@std@@@?$_Tuple_val@AEBV?$basic_string@DU?$char_traits@D@std@@V?$allocator@D@2@@std@@@std@@QEAA@AEBV?$basic_string@DU?$char_traits@D@std@@V?$allocator@D@2@@1@@Z
	??$?0PEAU?$_Tree_node@U?$pair@$$CBV?$basic_string@DU?$char_traits@D@std@@V?$allocator@D@2@@std@@PEAVAbstractMetaObjectBase@impl@class_loader@@@std@@PEAX@std@@_N$0A@@?$pair@PEAU?$_Tree_node@U?$pair@$$CBV?$basic_string@DU?$char_traits@D@std@@V?$allocator@D@2@@std@@PEAVAbstractMetaObjectBase@impl@class_loader@@@std@@PEAX@std@@_N@std@@QEAA@$$QEAPEAU?$_Tree_node@U?$pair@$$CBV?$basic_string@DU?$char_traits@D@std@@V?$allocator@D@2@@std@@PEAVAbstractMetaObjectBase@impl@class_loader@@@std@@PEAX@1@$$QEA_N@Z
	??$?0U_Exact_args_t@std@@$0A@@?$tuple@$$V@std@@QEAA@U_Exact_args_t@1@@Z
	??$?0U_Exact_args_t@std@@AEBV?$basic_string@DU?$char_traits@D@std@@V?$allocator@D@2@@1@$$V$0A@@?$tuple@AEBV?$basic_string@DU?$char_traits@D@std@@V?$allocator@D@2@@std@@@std@@QEAA@U_Exact_args_t@1@AEBV?$basic_string@DU?$char_traits@D@std@@V?$allocator@D@2@@1@@Z
	??$?0V?$allocator@D@std@@$$V@?$_Compressed_pair@V?$allocator@D@std@@V?$_String_val@U?$_Simple_types@D@std@@@2@$00@std@@QEAA@U_One_then_variadic_args_t@1@$$QEAV?$allocator@D@1@@Z
	??$?0V?$clone_impl@Ubad_alloc_@exception_detail@boost@@@exception_detail@boost@@@?$shared_ptr@$$CBVclone_base@exception_detail@boost@@@boost@@QEAA@PEAV?$clone_impl@Ubad_alloc_@exception_detail@boost@@@exception_detail@1@@Z
	??$?0V?$clone_impl@Ubad_alloc_@exception_detail@boost@@@exception_detail@boost@@@shared_count@detail@boost@@QEAA@PEAV?$clone_impl@Ubad_alloc_@exception_detail@boost@@@exception_detail@2@@Z
	??$?0V?$clone_impl@Ubad_exception_@exception_detail@boost@@@exception_detail@boost@@@?$shared_ptr@$$CBVclone_base@exception_detail@boost@@@boost@@QEAA@PEAV?$clone_impl@Ubad_exception_@exception_detail@boost@@@exception_detail@1@@Z
	??$?0V?$clone_impl@Ubad_exception_@exception_detail@boost@@@exception_detail@boost@@@shared_count@detail@boost@@QEAA@PEAV?$clone_impl@Ubad_exception_@exception_detail@boost@@@exception_detail@2@@Z
	??$?0V?$tuple@AEBV?$basic_string@DU?$char_traits@D@std@@V?$allocator@D@2@@std@@@std@@V?$tuple@$$V@1@$0A@$$Z$S@?$pair@$$CBV?$basic_string@DU?$char_traits@D@std@@V?$allocator@D@2@@std@@PEAVAbstractMetaObjectBase@impl@class_loader@@@std@@QEAA@AEAV?$tuple@AEBV?$basic_string@DU?$char_traits@D@std@@V?$allocator@D@2@@std@@@1@AEAV?$tuple@$$V@1@U?$integer_sequence@_K$0A@@1@U?$integer_sequence@_K$S@1@@Z
	??$?6V?$clone_impl@Ubad_alloc_@exception_detail@boost@@@exception_detail@boost@@Uthrow_file_@2@PEBD@boost@@YAAEBV?$clone_impl@Ubad_alloc_@exception_detail@boost@@@exception_detail@0@AEBV120@$$QEAV?$error_info@Uthrow_file_@boost@@PEBD@0@@Z
	??$?6V?$clone_impl@Ubad_alloc_@exception_detail@boost@@@exception_detail@boost@@Uthrow_function_@2@PEBD@boost@@YAAEBV?$clone_impl@Ubad_alloc_@exception_detail@boost@@@exception_detail@0@AEBV120@$$QEAV?$error_info@Uthrow_function_@boost@@PEBD@0@@Z
	??$?6V?$clone_impl@Ubad_alloc_@exception_detail@boost@@@exception_detail@boost@@Uthrow_line_@2@H@boost@@YAAEBV?$clone_impl@Ubad_alloc_@exception_detail@boost@@@exception_detail@0@AEBV120@$$QEAV?$error_info@Uthrow_line_@boost@@H@0@@Z
	??$?6V?$clone_impl@Ubad_exception_@exception_detail@boost@@@exception_detail@boost@@Uthrow_file_@2@PEBD@boost@@YAAEBV?$clone_impl@Ubad_exception_@exception_detail@boost@@@exception_detail@0@AEBV120@$$QEAV?$error_info@Uthrow_file_@boost@@PEBD@0@@Z
	??$?6V?$clone_impl@Ubad_exception_@exception_detail@boost@@@exception_detail@boost@@Uthrow_function_@2@PEBD@boost@@YAAEBV?$clone_impl@Ubad_exception_@exception_detail@boost@@@exception_detail@0@AEBV120@$$QEAV?$error_info@Uthrow_function_@boost@@PEBD@0@@Z
	??$?6V?$clone_impl@Ubad_exception_@exception_detail@boost@@@exception_detail@boost@@Uthrow_line_@2@H@boost@@YAAEBV?$clone_impl@Ubad_exception_@exception_detail@boost@@@exception_detail@0@AEBV120@$$QEAV?$error_info@Uthrow_line_@boost@@H@0@@Z
	??$?MDU?$char_traits@D@std@@V?$allocator@D@1@@std@@YA_NAEBV?$basic_string@DU?$char_traits@D@std@@V?$allocator@D@2@@0@0@Z
	??$_Allocate@$0BA@U_Default_allocate_traits@std@@$0A@@std@@YAPEAX_K@Z
	??$_Allocate_at_least_helper@V?$allocator@D@std@@@std@@YAPEADAEAV?$allocator@D@0@AEA_K@Z
	??$_Allocate_at_least_helper@V?$allocator@U?$PoseStamped_@V?$allocator@X@std@@@geometry_msgs@@@std@@@std@@YAPEAU?$PoseStamped_@V?$allocator@X@std@@@geometry_msgs@@AEAV?$allocator@U?$PoseStamped_@V?$allocator@X@std@@@geometry_msgs@@@0@AEA_K@Z
	??$_Allocate_for_capacity@$0A@@?$basic_string@DU?$char_traits@D@std@@V?$allocator@D@2@@std@@CAPEADAEAV?$allocator@D@1@AEA_K@Z
	??$_Allocate_manually_vector_aligned@U_Default_allocate_traits@std@@@std@@YAPEAX_K@Z
	??$_Atomic_address_as@JU?$_Atomic_padded@H@std@@@std@@YAPECJAEAU?$_Atomic_padded@H@0@@Z
	??$_Construct@$00PEBD@?$basic_string@DU?$char_traits@D@std@@V?$allocator@D@2@@std@@AEAAXQEBD_K@Z
	??$_Construct@$01PEBD@?$basic_string@DU?$char_traits@D@std@@V?$allocator@D@2@@std@@AEAAXQEBD_K@Z
	??$_Construct_in_place@PEADAEAPEAD@std@@YAXAEAPEAD0@Z
	??$_Construct_in_place@PEADAEBQEAD@std@@YAXAEAPEADAEBQEAD@Z
	??$_Construct_in_place@PEAU?$_Tree_node@U?$pair@$$CBV?$basic_string@DU?$char_traits@D@std@@V?$allocator@D@2@@std@@PEAVAbstractMetaObjectBase@impl@class_loader@@@std@@PEAX@std@@AEAPEAU12@@std@@YAXAEAPEAU?$_Tree_node@U?$pair@$$CBV?$basic_string@DU?$char_traits@D@std@@V?$allocator@D@2@@std@@PEAVAbstractMetaObjectBase@impl@class_loader@@@std@@PEAX@0@0@Z
	??$_Convert_size@_K_K@std@@YA_K_K@Z
	??$_Deallocate@$0BA@$0A@@std@@YAXPEAX_K@Z
	??$_Destroy_in_place@PEAD@std@@YAXAEAPEAD@Z
	??$_Destroy_in_place@PEAU?$_Tree_node@U?$pair@$$CBV?$basic_string@DU?$char_traits@D@std@@V?$allocator@D@2@@std@@PEAVAbstractMetaObjectBase@impl@class_loader@@@std@@PEAX@std@@@std@@YAXAEAPEAU?$_Tree_node@U?$pair@$$CBV?$basic_string@DU?$char_traits@D@std@@V?$allocator@D@2@@std@@PEAVAbstractMetaObjectBase@impl@class_loader@@@std@@PEAX@0@@Z
	??$_Destroy_range@V?$allocator@U?$PoseStamped_@V?$allocator@X@std@@@geometry_msgs@@@std@@@std@@YAXPEAU?$PoseStamped_@V?$allocator@X@std@@@geometry_msgs@@QEAU12@AEAV?$allocator@U?$PoseStamped_@V?$allocator@X@std@@@geometry_msgs@@@0@@Z
	??$_Emplace_back@U?$PoseStamped_@V?$allocator@X@std@@@geometry_msgs@@@?$_Uninitialized_backout_al@V?$allocator@U?$PoseStamped_@V?$allocator@X@std@@@geometry_msgs@@@std@@@std@@QEAAX$$QEAU?$PoseStamped_@V?$allocator@X@std@@@geometry_msgs@@@Z
	??$_Emplace_back_with_unused_capacity@AEBU?$PoseStamped_@V?$allocator@X@std@@@geometry_msgs@@@?$vector@U?$PoseStamped_@V?$allocator@X@std@@@geometry_msgs@@V?$allocator@U?$PoseStamped_@V?$allocator@X@std@@@geometry_msgs@@@std@@@std@@AEAAAEAU?$PoseStamped_@V?$allocator@X@std@@@geometry_msgs@@AEBU23@@Z
	??$_Emplace_one_at_back@AEBU?$PoseStamped_@V?$allocator@X@std@@@geometry_msgs@@@?$vector@U?$PoseStamped_@V?$allocator@X@std@@@geometry_msgs@@V?$allocator@U?$PoseStamped_@V?$allocator@X@std@@@geometry_msgs@@@std@@@std@@AEAAAEAU?$PoseStamped_@V?$allocator@X@std@@@geometry_msgs@@AEBU23@@Z
	??$_Emplace_reallocate@AEBU?$PoseStamped_@V?$allocator@X@std@@@geometry_msgs@@@?$vector@U?$PoseStamped_@V?$allocator@X@std@@@geometry_msgs@@V?$allocator@U?$PoseStamped_@V?$allocator@X@std@@@geometry_msgs@@@std@@@std@@AEAAPEAU?$PoseStamped_@V?$allocator@X@std@@@geometry_msgs@@QEAU23@AEBU23@@Z
	??$_Find@V?$basic_string@DU?$char_traits@D@std@@V?$allocator@D@2@@std@@@?$_Tree@V?$_Tmap_traits@V?$basic_string@DU?$char_traits@D@std@@V?$allocator@D@2@@std@@PEAVAbstractMetaObjectBase@impl@class_loader@@U?$less@V?$basic_string@DU?$char_traits@D@std@@V?$allocator@D@2@@std@@@2@V?$allocator@U?$pair@$$CBV?$basic_string@DU?$char_traits@D@std@@V?$allocator@D@2@@std@@PEAVAbstractMetaObjectBase@impl@class_loader@@@std@@@2@$0A@@std@@@std@@AEBAPEAU?$_Tree_node@U?$pair@$$CBV?$basic_string@DU?$char_traits@D@std@@V?$allocator@D@2@@std@@PEAVAbstractMetaObjectBase@impl@class_loader@@@std@@PEAX@1@AEBV?$basic_string@DU?$char_traits@D@std@@V?$allocator@D@2@@1@@Z
	??$_Find_lower_bound@V?$basic_string@DU?$char_traits@D@std@@V?$allocator@D@2@@std@@@?$_Tree@V?$_Tmap_traits@V?$basic_string@DU?$char_traits@D@std@@V?$allocator@D@2@@std@@PEAVAbstractMetaObjectBase@impl@class_loader@@U?$less@V?$basic_string@DU?$char_traits@D@std@@V?$allocator@D@2@@std@@@2@V?$allocator@U?$pair@$$CBV?$basic_string@DU?$char_traits@D@std@@V?$allocator@D@2@@std@@PEAVAbstractMetaObjectBase@impl@class_loader@@@std@@@2@$0A@@std@@@std@@IEBA?AU?$_Tree_find_result@PEAU?$_Tree_node@U?$pair@$$CBV?$basic_string@DU?$char_traits@D@std@@V?$allocator@D@2@@std@@PEAVAbstractMetaObjectBase@impl@class_loader@@@std@@PEAX@std@@@1@AEBV?$basic_string@DU?$char_traits@D@std@@V?$allocator@D@2@@1@@Z
	??$_Get_size_of_n@$00@std@@YA_K_K@Z
	??$_Get_size_of_n@$0EI@@std@@YA_K_K@Z
	??$_Get_size_of_n@$0GI@@std@@YA_K_K@Z
	??$_Get_unwrapped@AEBQEAU?$PoseStamped_@V?$allocator@X@std@@@geometry_msgs@@@std@@YA?A_TAEBQEAU?$PoseStamped_@V?$allocator@X@std@@@geometry_msgs@@@Z
	??$_Getvals@_W@?$time_get@DV?$istreambuf_iterator@DU?$char_traits@D@std@@@std@@@std@@IEAAX_WAEBV_Locinfo@1@@Z
	??$_Getvals@_W@?$time_get@_WV?$istreambuf_iterator@_WU?$char_traits@_W@std@@@std@@@std@@IEAAX_WAEBV_Locinfo@1@@Z
	??$_Kfn@$$CBV?$basic_string@DU?$char_traits@D@std@@V?$allocator@D@2@@std@@PEAVAbstractMetaObjectBase@impl@class_loader@@@?$_Tmap_traits@V?$basic_string@DU?$char_traits@D@std@@V?$allocator@D@2@@std@@PEAVAbstractMetaObjectBase@impl@class_loader@@U?$less@V?$basic_string@DU?$char_traits@D@std@@V?$allocator@D@2@@std@@@2@V?$allocator@U?$pair@$$CBV?$basic_string@DU?$char_traits@D@std@@V?$allocator@D@2@@std@@PEAVAbstractMetaObjectBase@impl@class_loader@@@std@@@2@$0A@@std@@SAAEBV?$basic_string@DU?$char_traits@D@std@@V?$allocator@D@2@@1@AEBU?$pair@$$CBV?$basic_string@DU?$char_traits@D@std@@V?$allocator@D@2@@std@@PEAVAbstractMetaObjectBase@impl@class_loader@@@1@@Z
	??$_Lower_bound_duplicate@V?$basic_string@DU?$char_traits@D@std@@V?$allocator@D@2@@std@@@?$_Tree@V?$_Tmap_traits@V?$basic_string@DU?$char_traits@D@std@@V?$allocator@D@2@@std@@PEAVAbstractMetaObjectBase@impl@class_loader@@U?$less@V?$basic_string@DU?$char_traits@D@std@@V?$allocator@D@2@@std@@@2@V?$allocator@U?$pair@$$CBV?$basic_string@DU?$char_traits@D@std@@V?$allocator@D@2@@std@@PEAVAbstractMetaObjectBase@impl@class_loader@@@std@@@2@$0A@@std@@@std@@IEBA_NQEAU?$_Tree_node@U?$pair@$$CBV?$basic_string@DU?$char_traits@D@std@@V?$allocator@D@2@@std@@PEAVAbstractMetaObjectBase@impl@class_loader@@@std@@PEAX@1@AEBV?$basic_string@DU?$char_traits@D@std@@V?$allocator@D@2@@1@@Z
	??$_Maklocstr@D@std@@YAPEADPEBDPEADAEBU_Cvtvec@@@Z
	??$_Maklocstr@_W@std@@YAPEA_WPEBDPEA_WAEBU_Cvtvec@@@Z
	??$_Pocma@V?$allocator@D@std@@@std@@YAXAEAV?$allocator@D@0@0@Z
	??$_Reallocate_for@V<lambda_66f57f934f28d61049862f64df852ff0>@@PEBD@?$basic_string@DU?$char_traits@D@std@@V?$allocator@D@2@@std@@AEAAAEAV01@_KV<lambda_66f57f934f28d61049862f64df852ff0>@@PEBD@Z
	??$_Reallocate_grow_by@V<lambda_65e615be2a453ca0576c979606f46740>@@PEBD_K@?$basic_string@DU?$char_traits@D@std@@V?$allocator@D@2@@std@@AEAAAEAV01@_KV<lambda_65e615be2a453ca0576c979606f46740>@@PEBD_K@Z
	??$_Traits_compare@U?$char_traits@D@std@@@std@@YAHQEBD_K01@Z
	??$_Try_emplace@AEBV?$basic_string@DU?$char_traits@D@std@@V?$allocator@D@2@@std@@$$V@?$map@V?$basic_string@DU?$char_traits@D@std@@V?$allocator@D@2@@std@@PEAVAbstractMetaObjectBase@impl@class_loader@@U?$less@V?$basic_string@DU?$char_traits@D@std@@V?$allocator@D@2@@std@@@2@V?$allocator@U?$pair@$$CBV?$basic_string@DU?$char_traits@D@std@@V?$allocator@D@2@@std@@PEAVAbstractMetaObjectBase@impl@class_loader@@@std@@@2@@std@@AEAA?AU?$pair@PEAU?$_Tree_node@U?$pair@$$CBV?$basic_string@DU?$char_traits@D@std@@V?$allocator@D@2@@std@@PEAVAbstractMetaObjectBase@impl@class_loader@@@std@@PEAX@std@@_N@1@AEBV?$basic_string@DU?$char_traits@D@std@@V?$allocator@D@2@@1@@Z
	??$_Tuple_get@$0A@AEBV?$basic_string@DU?$char_traits@D@std@@V?$allocator@D@2@@std@@@std@@YA$$QEA_P$$QEAV?$tuple@AEBV?$basic_string@DU?$char_traits@D@std@@V?$allocator@D@2@@std@@@0@@Z
	??$_Unfancy@D@std@@YAPEADPEAD@Z
	??$_Unfancy@U?$PoseStamped_@V?$allocator@X@std@@@geometry_msgs@@@std@@YAPEAU?$PoseStamped_@V?$allocator@X@std@@@geometry_msgs@@PEAU12@@Z
	??$_Uninitialized_move@PEAU?$PoseStamped_@V?$allocator@X@std@@@geometry_msgs@@V?$allocator@U?$PoseStamped_@V?$allocator@X@std@@@geometry_msgs@@@std@@@std@@YAPEAU?$PoseStamped_@V?$allocator@X@std@@@geometry_msgs@@QEAU12@0PEAU12@AEAV?$allocator@U?$PoseStamped_@V?$allocator@X@std@@@geometry_msgs@@@0@@Z
	??$addressof@$$CBV?$_String_val@U?$_Simple_types@D@std@@@std@@@std@@YAPEBV?$_String_val@U?$_Simple_types@D@std@@@0@AEBV10@@Z
	??$addressof@$$CBV?$_Tree_val@U?$_Tree_simple_types@U?$pair@$$CBV?$basic_string@DU?$char_traits@D@std@@V?$allocator@D@2@@std@@PEAVAbstractMetaObjectBase@impl@class_loader@@@std@@@std@@@std@@@std@@YAPEBV?$_Tree_val@U?$_Tree_simple_types@U?$pair@$$CBV?$basic_string@DU?$char_traits@D@std@@V?$allocator@D@2@@std@@PEAVAbstractMetaObjectBase@impl@class_loader@@@std@@@std@@@0@AEBV10@@Z
	??$addressof@PEAD@std@@YAPEAPEADAEAPEAD@Z
	??$addressof@PEAU?$_Tree_node@U?$pair@$$CBV?$basic_string@DU?$char_traits@D@std@@V?$allocator@D@2@@std@@PEAVAbstractMetaObjectBase@impl@class_loader@@@std@@PEAX@std@@@std@@YAPEAPEAU?$_Tree_node@U?$pair@$$CBV?$basic_string@DU?$char_traits@D@std@@V?$allocator@D@2@@std@@PEAVAbstractMetaObjectBase@impl@class_loader@@@std@@PEAX@0@AEAPEAU10@@Z
	??$addressof@U?$pair@$$CBV?$basic_string@DU?$char_traits@D@std@@V?$allocator@D@2@@std@@PEAVAbstractMetaObjectBase@impl@class_loader@@@std@@@std@@YAPEAU?$pair@$$CBV?$basic_string@DU?$char_traits@D@std@@V?$allocator@D@2@@std@@PEAVAbstractMetaObjectBase@impl@class_loader@@@0@AEAU10@@Z
	??$addressof@V?$_String_val@U?$_Simple_types@D@std@@@std@@@std@@YAPEAV?$_String_val@U?$_Simple_types@D@std@@@0@AEAV10@@Z
	??$addressof@V?$_Tree_val@U?$_Tree_simple_types@U?$pair@$$CBV?$basic_string@DU?$char_traits@D@std@@V?$allocator@D@2@@std@@PEAVAbstractMetaObjectBase@impl@class_loader@@@std@@@std@@@std@@@std@@YAPEAV?$_Tree_val@U?$_Tree_simple_types@U?$pair@$$CBV?$basic_string@DU?$char_traits@D@std@@V?$allocator@D@2@@std@@PEAVAbstractMetaObjectBase@impl@class_loader@@@std@@@std@@@0@AEAV10@@Z
	??$addressof@V?$basic_string@DU?$char_traits@D@std@@V?$allocator@D@2@@std@@@std@@YAPEAV?$basic_string@DU?$char_traits@D@std@@V?$allocator@D@2@@0@AEAV10@@Z
	??$checked_delete@V?$clone_impl@Ubad_alloc_@exception_detail@boost@@@exception_detail@boost@@@boost@@YAXPEAV?$clone_impl@Ubad_alloc_@exception_detail@boost@@@exception_detail@0@@Z
	??$checked_delete@V?$clone_impl@Ubad_exception_@exception_detail@boost@@@exception_detail@boost@@@boost@@YAXPEAV?$clone_impl@Ubad_exception_@exception_detail@boost@@@exception_detail@0@@Z
	??$construct@U?$PoseStamped_@V?$allocator@X@std@@@geometry_msgs@@AEBU12@@?$_Default_allocator_traits@V?$allocator@U?$PoseStamped_@V?$allocator@X@std@@@geometry_msgs@@@std@@@std@@SAXAEAV?$allocator@U?$PoseStamped_@V?$allocator@X@std@@@geometry_msgs@@@1@QEAU?$PoseStamped_@V?$allocator@X@std@@@geometry_msgs@@AEBU34@@Z
	??$construct@U?$PoseStamped_@V?$allocator@X@std@@@geometry_msgs@@U12@@?$_Default_allocator_traits@V?$allocator@U?$PoseStamped_@V?$allocator@X@std@@@geometry_msgs@@@std@@@std@@SAXAEAV?$allocator@U?$PoseStamped_@V?$allocator@X@std@@@geometry_msgs@@@1@QEAU?$PoseStamped_@V?$allocator@X@std@@@geometry_msgs@@$$QEAU34@@Z
	??$construct@U?$pair@$$CBV?$basic_string@DU?$char_traits@D@std@@V?$allocator@D@2@@std@@PEAVAbstractMetaObjectBase@impl@class_loader@@@std@@AEBUpiecewise_construct_t@2@V?$tuple@AEBV?$basic_string@DU?$char_traits@D@std@@V?$allocator@D@2@@std@@@2@V?$tuple@$$V@2@@?$_Default_allocator_traits@V?$allocator@U?$_Tree_node@U?$pair@$$CBV?$basic_string@DU?$char_traits@D@std@@V?$allocator@D@2@@std@@PEAVAbstractMetaObjectBase@impl@class_loader@@@std@@PEAX@std@@@std@@@std@@SAXAEAV?$allocator@U?$_Tree_node@U?$pair@$$CBV?$basic_string@DU?$char_traits@D@std@@V?$allocator@D@2@@std@@PEAVAbstractMetaObjectBase@impl@class_loader@@@std@@PEAX@std@@@1@QEAU?$pair@$$CBV?$basic_string@DU?$char_traits@D@std@@V?$allocator@D@2@@std@@PEAVAbstractMetaObjectBase@impl@class_loader@@@1@AEBUpiecewise_construct_t@1@$$QEAV?$tuple@AEBV?$basic_string@DU?$char_traits@D@std@@V?$allocator@D@2@@std@@@1@$$QEAV?$tuple@$$V@1@@Z
	??$destroy@U?$PoseStamped_@V?$allocator@X@std@@@geometry_msgs@@@?$_Default_allocator_traits@V?$allocator@U?$PoseStamped_@V?$allocator@X@std@@@geometry_msgs@@@std@@@std@@SAXAEAV?$allocator@U?$PoseStamped_@V?$allocator@X@std@@@geometry_msgs@@@1@QEAU?$PoseStamped_@V?$allocator@X@std@@@geometry_msgs@@@Z
	??$destroy@U?$pair@$$CBV?$basic_string@DU?$char_traits@D@std@@V?$allocator@D@2@@std@@PEAVAbstractMetaObjectBase@impl@class_loader@@@std@@@?$_Default_allocator_traits@V?$allocator@U?$_Tree_node@U?$pair@$$CBV?$basic_string@DU?$char_traits@D@std@@V?$allocator@D@2@@std@@PEAVAbstractMetaObjectBase@impl@class_loader@@@std@@PEAX@std@@@std@@@std@@SAXAEAV?$allocator@U?$_Tree_node@U?$pair@$$CBV?$basic_string@DU?$char_traits@D@std@@V?$allocator@D@2@@std@@PEAVAbstractMetaObjectBase@impl@class_loader@@@std@@PEAX@std@@@1@QEAU?$pair@$$CBV?$basic_string@DU?$char_traits@D@std@@V?$allocator@D@2@@std@@PEAVAbstractMetaObjectBase@impl@class_loader@@@1@@Z
	??$enable_current_exception@U?$error_info_injector@Vthread_resource_error@boost@@@exception_detail@boost@@@boost@@YA?AV?$clone_impl@U?$error_info_injector@Vthread_resource_error@boost@@@exception_detail@boost@@@exception_detail@0@AEBU?$error_info_injector@Vthread_resource_error@boost@@@20@@Z
	??$enable_error_info@Vthread_resource_error@boost@@@boost@@YA?AU?$error_info_injector@Vthread_resource_error@boost@@@exception_detail@0@AEBVthread_resource_error@0@@Z
	??$exchange@PEAU?$_Tree_node@U?$pair@$$CBV?$basic_string@DU?$char_traits@D@std@@V?$allocator@D@2@@std@@PEAVAbstractMetaObjectBase@impl@class_loader@@@std@@PEAX@std@@$$T@std@@YAPEAU?$_Tree_node@U?$pair@$$CBV?$basic_string@DU?$char_traits@D@std@@V?$allocator@D@2@@std@@PEAVAbstractMetaObjectBase@impl@class_loader@@@std@@PEAX@0@AEAPEAU10@$$QEA$$T@Z
	??$forward@AEAPEAD@std@@YAAEAPEADAEAPEAD@Z
	??$forward@AEAPEAU?$_Tree_node@U?$pair@$$CBV?$basic_string@DU?$char_traits@D@std@@V?$allocator@D@2@@std@@PEAVAbstractMetaObjectBase@impl@class_loader@@@std@@PEAX@std@@@std@@YAAEAPEAU?$_Tree_node@U?$pair@$$CBV?$basic_string@DU?$char_traits@D@std@@V?$allocator@D@2@@std@@PEAVAbstractMetaObjectBase@impl@class_loader@@@std@@PEAX@0@AEAPEAU10@@Z
	??$forward@AEBQEAD@std@@YAAEBQEADAEBQEAD@Z
	??$forward@AEBQEAU?$_Tree_node@U?$pair@$$CBV?$basic_string@DU?$char_traits@D@std@@V?$allocator@D@2@@std@@PEAVAbstractMetaObjectBase@impl@class_loader@@@std@@PEAX@std@@@std@@YAAEBQEAU?$_Tree_node@U?$pair@$$CBV?$basic_string@DU?$char_traits@D@std@@V?$allocator@D@2@@std@@PEAVAbstractMetaObjectBase@impl@class_loader@@@std@@PEAX@0@AEBQEAU10@@Z
	??$forward@AEBU?$PoseStamped_@V?$allocator@X@std@@@geometry_msgs@@@std@@YAAEBU?$PoseStamped_@V?$allocator@X@std@@@geometry_msgs@@AEBU12@@Z
	??$forward@AEBUpiecewise_construct_t@std@@@std@@YAAEBUpiecewise_construct_t@0@AEBU10@@Z
	??$forward@AEBV?$basic_string@DU?$char_traits@D@std@@V?$allocator@D@2@@std@@@std@@YAAEBV?$basic_string@DU?$char_traits@D@std@@V?$allocator@D@2@@0@AEBV10@@Z
	??$forward@PEAU?$_Tree_node@U?$pair@$$CBV?$basic_string@DU?$char_traits@D@std@@V?$allocator@D@2@@std@@PEAVAbstractMetaObjectBase@impl@class_loader@@@std@@PEAX@std@@@std@@YA$$QEAPEAU?$_Tree_node@U?$pair@$$CBV?$basic_string@DU?$char_traits@D@std@@V?$allocator@D@2@@std@@PEAVAbstractMetaObjectBase@impl@class_loader@@@std@@PEAX@0@AEAPEAU10@@Z
	??$forward@U?$PoseStamped_@V?$allocator@X@std@@@geometry_msgs@@@std@@YA$$QEAU?$PoseStamped_@V?$allocator@X@std@@@geometry_msgs@@AEAU12@@Z
	??$forward@V?$allocator@D@std@@@std@@YA$$QEAV?$allocator@D@0@AEAV10@@Z
	??$forward@V?$tuple@$$V@std@@@std@@YA$$QEAV?$tuple@$$V@0@AEAV10@@Z
	??$forward@V?$tuple@AEBV?$basic_string@DU?$char_traits@D@std@@V?$allocator@D@2@@std@@@std@@@std@@YA$$QEAV?$tuple@AEBV?$basic_string@DU?$char_traits@D@std@@V?$allocator@D@2@@std@@@0@AEAV10@@Z
	??$forward@_N@std@@YA$$QEA_NAEA_N@Z
	??$forward_as_tuple@$$V@std@@YA?AV?$tuple@$$V@0@XZ
	??$forward_as_tuple@AEBV?$basic_string@DU?$char_traits@D@std@@V?$allocator@D@2@@std@@@std@@YA?AV?$tuple@AEBV?$basic_string@DU?$char_traits@D@std@@V?$allocator@D@2@@std@@@0@AEBV?$basic_string@DU?$char_traits@D@std@@V?$allocator@D@2@@0@@Z
	??$getFactoryMapForBaseClass@VBaseGlobalPlanner@nav_core@@@impl@class_loader@@YAAEAV?$map@V?$basic_string@DU?$char_traits@D@std@@V?$allocator@D@2@@std@@PEAVAbstractMetaObjectBase@impl@class_loader@@U?$less@V?$basic_string@DU?$char_traits@D@std@@V?$allocator@D@2@@std@@@2@V?$allocator@U?$pair@$$CBV?$basic_string@DU?$char_traits@D@std@@V?$allocator@D@2@@std@@PEAVAbstractMetaObjectBase@impl@class_loader@@@std@@@2@@std@@XZ
	??$get_static_exception_object@Ubad_alloc_@exception_detail@boost@@@exception_detail@boost@@YA?AVexception_ptr@1@XZ
	??$get_static_exception_object@Ubad_exception_@exception_detail@boost@@@exception_detail@boost@@YA?AVexception_ptr@1@XZ
	??$max@_K@std@@YAAEB_KAEB_K0@Z
	??$min@_K@std@@YAAEB_KAEB_K0@Z
	??$move@AEAU?$PoseStamped_@V?$allocator@X@std@@@geometry_msgs@@@std@@YA$$QEAU?$PoseStamped_@V?$allocator@X@std@@@geometry_msgs@@AEAU12@@Z
	??$move@AEAV?$allocator@D@std@@@std@@YA$$QEAV?$allocator@D@0@AEAV10@@Z
	??$move@AEAV?$error_info@Uthrow_file_@boost@@PEBD@boost@@@std@@YA$$QEAV?$error_info@Uthrow_file_@boost@@PEBD@boost@@AEAV12@@Z
	??$move@AEAV?$error_info@Uthrow_function_@boost@@PEBD@boost@@@std@@YA$$QEAV?$error_info@Uthrow_function_@boost@@PEBD@boost@@AEAV12@@Z
	??$move@AEAV?$error_info@Uthrow_line_@boost@@H@boost@@@std@@YA$$QEAV?$error_info@Uthrow_line_@boost@@H@boost@@AEAV12@@Z
	??$move@AEAV?$tuple@AEBV?$basic_string@DU?$char_traits@D@std@@V?$allocator@D@2@@std@@@std@@@std@@YA$$QEAV?$tuple@AEBV?$basic_string@DU?$char_traits@D@std@@V?$allocator@D@2@@std@@@0@AEAV10@@Z
	??$registerPlugin@VGlobalPlanner@global_planner@@VBaseGlobalPlanner@nav_core@@@impl@class_loader@@YAXAEBV?$basic_string@DU?$char_traits@D@std@@V?$allocator@D@2@@std@@0@Z
	??$set@V?$clone_impl@Ubad_alloc_@exception_detail@boost@@@exception_detail@boost@@@?$set_info_rv@V?$error_info@Uthrow_file_@boost@@PEBD@boost@@@exception_detail@boost@@SAAEBV?$clone_impl@Ubad_alloc_@exception_detail@boost@@@12@AEBV312@$$QEAV?$error_info@Uthrow_file_@boost@@PEBD@2@@Z
	??$set@V?$clone_impl@Ubad_alloc_@exception_detail@boost@@@exception_detail@boost@@@?$set_info_rv@V?$error_info@Uthrow_function_@boost@@PEBD@boost@@@exception_detail@boost@@SAAEBV?$clone_impl@Ubad_alloc_@exception_detail@boost@@@12@AEBV312@$$QEAV?$error_info@Uthrow_function_@boost@@PEBD@2@@Z
	??$set@V?$clone_impl@Ubad_alloc_@exception_detail@boost@@@exception_detail@boost@@@?$set_info_rv@V?$error_info@Uthrow_line_@boost@@H@boost@@@exception_detail@boost@@SAAEBV?$clone_impl@Ubad_alloc_@exception_detail@boost@@@12@AEBV312@$$QEAV?$error_info@Uthrow_line_@boost@@H@2@@Z
	??$set@V?$clone_impl@Ubad_exception_@exception_detail@boost@@@exception_detail@boost@@@?$set_info_rv@V?$error_info@Uthrow_file_@boost@@PEBD@boost@@@exception_detail@boost@@SAAEBV?$clone_impl@Ubad_exception_@exception_detail@boost@@@12@AEBV312@$$QEAV?$error_info@Uthrow_file_@boost@@PEBD@2@@Z
	??$set@V?$clone_impl@Ubad_exception_@exception_detail@boost@@@exception_detail@boost@@@?$set_info_rv@V?$error_info@Uthrow_function_@boost@@PEBD@boost@@@exception_detail@boost@@SAAEBV?$clone_impl@Ubad_exception_@exception_detail@boost@@@12@AEBV312@$$QEAV?$error_info@Uthrow_function_@boost@@PEBD@2@@Z
	??$set@V?$clone_impl@Ubad_exception_@exception_detail@boost@@@exception_detail@boost@@@?$set_info_rv@V?$error_info@Uthrow_line_@boost@@H@boost@@@exception_detail@boost@@SAAEBV?$clone_impl@Ubad_exception_@exception_detail@boost@@@12@AEBV312@$$QEAV?$error_info@Uthrow_line_@boost@@H@2@@Z
	??$set_info@V?$clone_impl@Ubad_alloc_@exception_detail@boost@@@exception_detail@boost@@Uthrow_file_@3@PEBD@exception_detail@boost@@YAAEBV?$clone_impl@Ubad_alloc_@exception_detail@boost@@@01@AEBV201@$$QEAV?$error_info@Uthrow_file_@boost@@PEBD@1@@Z
	??$set_info@V?$clone_impl@Ubad_alloc_@exception_detail@boost@@@exception_detail@boost@@Uthrow_function_@3@PEBD@exception_detail@boost@@YAAEBV?$clone_impl@Ubad_alloc_@exception_detail@boost@@@01@AEBV201@$$QEAV?$error_info@Uthrow_function_@boost@@PEBD@1@@Z
	??$set_info@V?$clone_impl@Ubad_alloc_@exception_detail@boost@@@exception_detail@boost@@Uthrow_line_@3@H@exception_detail@boost@@YAAEBV?$clone_impl@Ubad_alloc_@exception_detail@boost@@@01@AEBV201@$$QEAV?$error_info@Uthrow_line_@boost@@H@1@@Z
	??$set_info@V?$clone_impl@Ubad_exception_@exception_detail@boost@@@exception_detail@boost@@Uthrow_file_@3@PEBD@exception_detail@boost@@YAAEBV?$clone_impl@Ubad_exception_@exception_detail@boost@@@01@AEBV201@$$QEAV?$error_info@Uthrow_file_@boost@@PEBD@1@@Z
	??$set_info@V?$clone_impl@Ubad_exception_@exception_detail@boost@@@exception_detail@boost@@Uthrow_function_@3@PEBD@exception_detail@boost@@YAAEBV?$clone_impl@Ubad_exception_@exception_detail@boost@@@01@AEBV201@$$QEAV?$error_info@Uthrow_function_@boost@@PEBD@1@@Z
	??$set_info@V?$clone_impl@Ubad_exception_@exception_detail@boost@@@exception_detail@boost@@Uthrow_line_@3@H@exception_detail@boost@@YAAEBV?$clone_impl@Ubad_exception_@exception_detail@boost@@@01@AEBV201@$$QEAV?$error_info@Uthrow_line_@boost@@H@1@@Z
	??$sp_pointer_construct@$$CBVclone_base@exception_detail@boost@@V?$clone_impl@Ubad_alloc_@exception_detail@boost@@@23@@detail@boost@@YAXPEAV?$shared_ptr@$$CBVclone_base@exception_detail@boost@@@1@PEAV?$clone_impl@Ubad_alloc_@exception_detail@boost@@@exception_detail@1@AEAVshared_count@01@@Z
	??$sp_pointer_construct@$$CBVclone_base@exception_detail@boost@@V?$clone_impl@Ubad_exception_@exception_detail@boost@@@23@@detail@boost@@YAXPEAV?$shared_ptr@$$CBVclone_base@exception_detail@boost@@@1@PEAV?$clone_impl@Ubad_exception_@exception_detail@boost@@@exception_detail@1@AEAVshared_count@01@@Z
	??$throw_exception@Vthread_resource_error@boost@@@boost@@YAXAEBVthread_resource_error@0@@Z
	??0?$AbstractMetaObject@VBaseGlobalPlanner@nav_core@@@impl@class_loader@@QEAA@AEBV?$basic_string@DU?$char_traits@D@std@@V?$allocator@D@2@@std@@0@Z
	??0?$Header_@V?$allocator@X@std@@@std_msgs@@QEAA@$$QEAU01@@Z
	??0?$Header_@V?$allocator@X@std@@@std_msgs@@QEAA@AEBU01@@Z
	??0?$MetaObject@VGlobalPlanner@global_planner@@VBaseGlobalPlanner@nav_core@@@impl@class_loader@@QEAA@AEBV?$basic_string@DU?$char_traits@D@std@@V?$allocator@D@2@@std@@0@Z
	??0?$PoseStamped_@V?$allocator@X@std@@@geometry_msgs@@QEAA@$$QEAU01@@Z
	??0?$PoseStamped_@V?$allocator@X@std@@@geometry_msgs@@QEAA@AEBU01@@Z
	??0?$_Alloc_construct_ptr@V?$allocator@U?$_Tree_node@U?$pair@$$CBV?$basic_string@DU?$char_traits@D@std@@V?$allocator@D@2@@std@@PEAVAbstractMetaObjectBase@impl@class_loader@@@std@@PEAX@std@@@std@@@std@@QEAA@AEAV?$allocator@U?$_Tree_node@U?$pair@$$CBV?$basic_string@DU?$char_traits@D@std@@V?$allocator@D@2@@std@@PEAVAbstractMetaObjectBase@impl@class_loader@@@std@@PEAX@std@@@1@@Z
	??0?$_Atomic_integral@H$03@std@@QEAA@H@Z
	??0?$_Atomic_integral_facade@H@std@@QEAA@H@Z
	??0?$_Atomic_storage@H$03@std@@QEAA@H@Z
	??0?$_String_val@U?$_Simple_types@D@std@@@std@@QEAA@XZ
	??0?$_Tree_const_iterator@V?$_Tree_val@U?$_Tree_simple_types@U?$pair@$$CBV?$basic_string@DU?$char_traits@D@std@@V?$allocator@D@2@@std@@PEAVAbstractMetaObjectBase@impl@class_loader@@@std@@@std@@@std@@@std@@QEAA@PEAU?$_Tree_node@U?$pair@$$CBV?$basic_string@DU?$char_traits@D@std@@V?$allocator@D@2@@std@@PEAVAbstractMetaObjectBase@impl@class_loader@@@std@@PEAX@1@PEBV?$_Tree_val@U?$_Tree_simple_types@U?$pair@$$CBV?$basic_string@DU?$char_traits@D@std@@V?$allocator@D@2@@std@@PEAVAbstractMetaObjectBase@impl@class_loader@@@std@@@std@@@1@@Z
	??0?$_Tree_iterator@V?$_Tree_val@U?$_Tree_simple_types@U?$pair@$$CBV?$basic_string@DU?$char_traits@D@std@@V?$allocator@D@2@@std@@PEAVAbstractMetaObjectBase@impl@class_loader@@@std@@@std@@@std@@@std@@QEAA@PEAU?$_Tree_node@U?$pair@$$CBV?$basic_string@DU?$char_traits@D@std@@V?$allocator@D@2@@std@@PEAVAbstractMetaObjectBase@impl@class_loader@@@std@@PEAX@1@PEBV?$_Tree_val@U?$_Tree_simple_types@U?$pair@$$CBV?$basic_string@DU?$char_traits@D@std@@V?$allocator@D@2@@std@@PEAVAbstractMetaObjectBase@impl@class_loader@@@std@@@std@@@1@@Z
	??0?$_Tree_temp_node_alloc@V?$allocator@U?$_Tree_node@U?$pair@$$CBV?$basic_string@DU?$char_traits@D@std@@V?$allocator@D@2@@std@@PEAVAbstractMetaObjectBase@impl@class_loader@@@std@@PEAX@std@@@std@@@std@@QEAA@AEAV?$allocator@U?$_Tree_node@U?$pair@$$CBV?$basic_string@DU?$char_traits@D@std@@V?$allocator@D@2@@std@@PEAVAbstractMetaObjectBase@impl@class_loader@@@std@@PEAX@std@@@1@@Z
	??0?$_Tree_unchecked_const_iterator@V?$_Tree_val@U?$_Tree_simple_types@U?$pair@$$CBV?$basic_string@DU?$char_traits@D@std@@V?$allocator@D@2@@std@@PEAVAbstractMetaObjectBase@impl@class_loader@@@std@@@std@@@std@@U_Iterator_base0@2@@std@@QEAA@PEAU?$_Tree_node@U?$pair@$$CBV?$basic_string@DU?$char_traits@D@std@@V?$allocator@D@2@@std@@PEAVAbstractMetaObjectBase@impl@class_loader@@@std@@PEAX@1@PEBV?$_Tree_val@U?$_Tree_simple_types@U?$pair@$$CBV?$basic_string@DU?$char_traits@D@std@@V?$allocator@D@2@@std@@PEAVAbstractMetaObjectBase@impl@class_loader@@@std@@@std@@@1@@Z
	??0?$_Uninitialized_backout_al@V?$allocator@U?$PoseStamped_@V?$allocator@X@std@@@geometry_msgs@@@std@@@std@@QEAA@PEAU?$PoseStamped_@V?$allocator@X@std@@@geometry_msgs@@AEAV?$allocator@U?$PoseStamped_@V?$allocator@X@std@@@geometry_msgs@@@1@@Z
	??0?$allocator@D@std@@QEAA@XZ
	??0?$atomic@H@std@@QEAA@H@Z
	??0?$basic_string@DU?$char_traits@D@std@@V?$allocator@D@2@@std@@QEAA@$$QEAV01@@Z
	??0?$basic_string@DU?$char_traits@D@std@@V?$allocator@D@2@@std@@QEAA@AEBV01@@Z
	??0?$basic_string@DU?$char_traits@D@std@@V?$allocator@D@2@@std@@QEAA@QEBD@Z
	??0?$basic_string@DU?$char_traits@D@std@@V?$allocator@D@2@@std@@QEAA@XZ
	??0?$clone_impl@U?$error_info_injector@Vthread_resource_error@boost@@@exception_detail@boost@@@exception_detail@boost@@AEAA@AEBV012@Uclone_tag@012@@Z
	??0?$clone_impl@U?$error_info_injector@Vthread_resource_error@boost@@@exception_detail@boost@@@exception_detail@boost@@QEAA@AEBU?$error_info_injector@Vthread_resource_error@boost@@@12@@Z
	??0?$clone_impl@U?$error_info_injector@Vthread_resource_error@boost@@@exception_detail@boost@@@exception_detail@boost@@QEAA@AEBV012@@Z
	??0?$clone_impl@Ubad_alloc_@exception_detail@boost@@@exception_detail@boost@@AEAA@AEBV012@Uclone_tag@012@@Z
	??0?$clone_impl@Ubad_alloc_@exception_detail@boost@@@exception_detail@boost@@QEAA@AEBUbad_alloc_@12@@Z
	??0?$clone_impl@Ubad_alloc_@exception_detail@boost@@@exception_detail@boost@@QEAA@AEBV012@@Z
	??0?$clone_impl@Ubad_exception_@exception_detail@boost@@@exception_detail@boost@@AEAA@AEBV012@Uclone_tag@012@@Z
	??0?$clone_impl@Ubad_exception_@exception_detail@boost@@@exception_detail@boost@@QEAA@AEBUbad_exception_@12@@Z
	??0?$clone_impl@Ubad_exception_@exception_detail@boost@@@exception_detail@boost@@QEAA@AEBV012@@Z
	??0?$error_info@Uthrow_file_@boost@@PEBD@boost@@QEAA@PEBD@Z
	??0?$error_info@Uthrow_function_@boost@@PEBD@boost@@QEAA@PEBD@Z
	??0?$error_info@Uthrow_line_@boost@@H@boost@@QEAA@H@Z
	??0?$error_info_injector@Vthread_resource_error@boost@@@exception_detail@boost@@QEAA@AEBU012@@Z
	??0?$error_info_injector@Vthread_resource_error@boost@@@exception_detail@boost@@QEAA@AEBVthread_resource_error@2@@Z
	??0?$refcount_ptr@Uerror_info_container@exception_detail@boost@@@exception_detail@boost@@QEAA@AEBV012@@Z
	??0?$refcount_ptr@Uerror_info_container@exception_detail@boost@@@exception_detail@boost@@QEAA@XZ
	??0?$shared_ptr@$$CBVclone_base@exception_detail@boost@@@boost@@QEAA@AEBV01@@Z
	??0?$sp_counted_impl_p@V?$clone_impl@Ubad_alloc_@exception_detail@boost@@@exception_detail@boost@@@detail@boost@@QEAA@PEAV?$clone_impl@Ubad_alloc_@exception_detail@boost@@@exception_detail@2@@Z
	??0?$sp_counted_impl_p@V?$clone_impl@Ubad_exception_@exception_detail@boost@@@exception_detail@boost@@@detail@boost@@QEAA@PEAV?$clone_impl@Ubad_exception_@exception_detail@boost@@@exception_detail@2@@Z
	??0?$tuple@$$V@std@@QEAA@AEBV01@@Z
	??0?$tuple@AEBV?$basic_string@DU?$char_traits@D@std@@V?$allocator@D@2@@std@@@std@@QEAA@$$QEAV01@@Z
	??0BaseGlobalPlanner@nav_core@@IEAA@XZ
	??0GlobalPlanner@global_planner@@QEAA@V?$basic_string@DU?$char_traits@D@std@@V?$allocator@D@2@@std@@PEAVCostmap2DROS@costmap_2d@@@Z
	??0GlobalPlanner@global_planner@@QEAA@XZ
	??0_Bxty@?$_String_val@U?$_Simple_types@D@std@@@std@@QEAA@XZ
	??0_Fake_proxy_ptr_impl@std@@QEAA@AEBU_Fake_allocator@1@AEBU_Container_base0@1@@Z
	??0bad_alloc@std@@AEAA@QEBD@Z
	??0bad_alloc@std@@QEAA@AEBV01@@Z
	??0bad_alloc@std@@QEAA@XZ
	??0bad_alloc_@exception_detail@boost@@QEAA@AEBU012@@Z
	??0bad_alloc_@exception_detail@boost@@QEAA@XZ
	??0bad_array_new_length@std@@QEAA@AEBV01@@Z
	??0bad_array_new_length@std@@QEAA@XZ
	??0bad_exception@std@@QEAA@AEBV01@@Z
	??0bad_exception@std@@QEAA@XZ
	??0bad_exception_@exception_detail@boost@@QEAA@AEBU012@@Z
	??0bad_exception_@exception_detail@boost@@QEAA@XZ
	??0clone_base@exception_detail@boost@@QEAA@AEBV012@@Z
	??0clone_base@exception_detail@boost@@QEAA@XZ
	??0error_code@system@boost@@QEAA@HAEBVerror_category@12@@Z
	??0exception@boost@@IEAA@XZ
	??0exception@boost@@QEAA@AEBV01@@Z
	??0exception@std@@QEAA@AEBV01@@Z
	??0exception@std@@QEAA@QEBD@Z
	??0exception@std@@QEAA@QEBDH@Z
	??0exception_ptr@boost@@QEAA@AEBV01@@Z
	??0exception_ptr@boost@@QEAA@AEBV?$shared_ptr@$$CBVclone_base@exception_detail@boost@@@1@@Z
	??0in_place_init_if_t@optional_ns@boost@@QEAA@Uinit_tag@012@@Z
	??0in_place_init_t@optional_ns@boost@@QEAA@Uinit_tag@012@@Z
	??0none_t@boost@@QEAA@Uinit_tag@01@@Z
	??0runtime_error@std@@QEAA@AEBV01@@Z
	??0runtime_error@std@@QEAA@PEBD@Z
	??0shared_count@detail@boost@@QEAA@AEBV012@@Z
	??0shared_count@detail@boost@@QEAA@XZ
	??0sp_counted_base@detail@boost@@QEAA@XZ
	??0system_error@system@boost@@QEAA@AEBV012@@Z
	??0system_error@system@boost@@QEAA@Verror_code@12@PEBD@Z
	??0thread_exception@boost@@QEAA@AEBV01@@Z
	??0thread_exception@boost@@QEAA@HPEBD@Z
	??0thread_resource_error@boost@@QEAA@AEBV01@@Z
	??0thread_resource_error@boost@@QEAA@XZ
	??1?$AbstractMetaObject@VBaseGlobalPlanner@nav_core@@@impl@class_loader@@QEAA@XZ
	??1?$Header_@V?$allocator@X@std@@@std_msgs@@QEAA@XZ
	??1?$PoseStamped_@V?$allocator@X@std@@@geometry_msgs@@QEAA@XZ
	??1?$_Alloc_construct_ptr@V?$allocator@U?$_Tree_node@U?$pair@$$CBV?$basic_string@DU?$char_traits@D@std@@V?$allocator@D@2@@std@@PEAVAbstractMetaObjectBase@impl@class_loader@@@std@@PEAX@std@@@std@@@std@@QEAA@XZ
	??1?$_Compressed_pair@V?$allocator@D@std@@V?$_String_val@U?$_Simple_types@D@std@@@2@$00@std@@QEAA@XZ
	??1?$_String_val@U?$_Simple_types@D@std@@@std@@QEAA@XZ
	??1?$_Tree_temp_node@V?$allocator@U?$_Tree_node@U?$pair@$$CBV?$basic_string@DU?$char_traits@D@std@@V?$allocator@D@2@@std@@PEAVAbstractMetaObjectBase@impl@class_loader@@@std@@PEAX@std@@@std@@@std@@QEAA@XZ
	??1?$_Tree_temp_node_alloc@V?$allocator@U?$_Tree_node@U?$pair@$$CBV?$basic_string@DU?$char_traits@D@std@@V?$allocator@D@2@@std@@PEAVAbstractMetaObjectBase@impl@class_loader@@@std@@PEAX@std@@@std@@@std@@QEAA@XZ
	??1?$_Uninitialized_backout_al@V?$allocator@U?$PoseStamped_@V?$allocator@X@std@@@geometry_msgs@@@std@@@std@@QEAA@XZ
	??1?$basic_string@DU?$char_traits@D@std@@V?$allocator@D@2@@std@@QEAA@XZ
	??1?$clone_impl@U?$error_info_injector@Vthread_resource_error@boost@@@exception_detail@boost@@@exception_detail@boost@@UEAA@XZ
	??1?$clone_impl@Ubad_alloc_@exception_detail@boost@@@exception_detail@boost@@UEAA@XZ
	??1?$clone_impl@Ubad_exception_@exception_detail@boost@@@exception_detail@boost@@UEAA@XZ
	??1?$error_info_injector@Vthread_resource_error@boost@@@exception_detail@boost@@UEAA@XZ
	??1?$pair@$$CBV?$basic_string@DU?$char_traits@D@std@@V?$allocator@D@2@@std@@PEAVAbstractMetaObjectBase@impl@class_loader@@@std@@QEAA@XZ
	??1?$refcount_ptr@Uerror_info_container@exception_detail@boost@@@exception_detail@boost@@QEAA@XZ
	??1?$shared_ptr@$$CBVclone_base@exception_detail@boost@@@boost@@QEAA@XZ
	??1?$sp_counted_impl_p@V?$clone_impl@Ubad_alloc_@exception_detail@boost@@@exception_detail@boost@@@detail@boost@@UEAA@XZ
	??1?$sp_counted_impl_p@V?$clone_impl@Ubad_exception_@exception_detail@boost@@@exception_detail@boost@@@detail@boost@@UEAA@XZ
	??1?$unique_lock@Vmutex@boost@@@boost@@QEAA@XZ
	??1BaseGlobalPlanner@nav_core@@UEAA@XZ
	??1GlobalPlanner@global_planner@@UEAA@XZ
	??1_Bxty@?$_String_val@U?$_Simple_types@D@std@@@std@@QEAA@XZ
	??1bad_alloc@std@@UEAA@XZ
	??1bad_alloc_@exception_detail@boost@@UEAA@XZ
	??1bad_array_new_length@std@@UEAA@XZ
	??1bad_exception@std@@UEAA@XZ
	??1bad_exception_@exception_detail@boost@@UEAA@XZ
	??1clone_base@exception_detail@boost@@UEAA@XZ
	??1exception@boost@@MEAA@XZ
	??1exception@std@@UEAA@XZ
	??1exception_ptr@boost@@QEAA@XZ
	??1runtime_error@std@@UEAA@XZ
	??1shared_count@detail@boost@@QEAA@XZ
	??1sp_counted_base@detail@boost@@UEAA@XZ
	??1system_error@system@boost@@UEAA@XZ
	??1thread_exception@boost@@UEAA@XZ
	??1thread_resource_error@boost@@UEAA@XZ
	??2@YAPEAX_KPEAX@Z
	??4?$basic_string@DU?$char_traits@D@std@@V?$allocator@D@2@@std@@QEAAAEAV01@$$QEAV01@@Z
	??4?$basic_string@DU?$char_traits@D@std@@V?$allocator@D@2@@std@@QEAAAEAV01@QEBD@Z
	??4?$refcount_ptr@Uerror_info_container@exception_detail@boost@@@exception_detail@boost@@QEAAAEAV012@AEBV012@@Z
	??8?$_Tree_const_iterator@V?$_Tree_val@U?$_Tree_simple_types@U?$pair@$$CBV?$basic_string@DU?$char_traits@D@std@@V?$allocator@D@2@@std@@PEAVAbstractMetaObjectBase@impl@class_loader@@@std@@@std@@@std@@@std@@QEBA_NAEBV01@@Z
	??9?$_Tree_const_iterator@V?$_Tree_val@U?$_Tree_simple_types@U?$pair@$$CBV?$basic_string@DU?$char_traits@D@std@@V?$allocator@D@2@@std@@PEAVAbstractMetaObjectBase@impl@class_loader@@@std@@@std@@@std@@@std@@QEBA_NAEBV01@@Z
	??A?$map@V?$basic_string@DU?$char_traits@D@std@@V?$allocator@D@2@@std@@PEAVAbstractMetaObjectBase@impl@class_loader@@U?$less@V?$basic_string@DU?$char_traits@D@std@@V?$allocator@D@2@@std@@@2@V?$allocator@U?$pair@$$CBV?$basic_string@DU?$char_traits@D@std@@V?$allocator@D@2@@std@@PEAVAbstractMetaObjectBase@impl@class_loader@@@std@@@2@@std@@QEAAAEAPEAVAbstractMetaObjectBase@impl@class_loader@@AEBV?$basic_string@DU?$char_traits@D@std@@V?$allocator@D@2@@1@@Z
	??R<lambda_65e615be2a453ca0576c979606f46740>@@QEBA@QEADQEBD_K12@Z
	??R<lambda_66f57f934f28d61049862f64df852ff0>@@QEBA@QEAD_KQEBD@Z
	??R?$less@V?$basic_string@DU?$char_traits@D@std@@V?$allocator@D@2@@std@@@std@@QEBA_NAEBV?$basic_string@DU?$char_traits@D@std@@V?$allocator@D@2@@1@0@Z
	??Y?$basic_string@DU?$char_traits@D@std@@V?$allocator@D@2@@std@@QEAAAEAV01@AEBV01@@Z
	??Y?$basic_string@DU?$char_traits@D@std@@V?$allocator@D@2@@std@@QEAAAEAV01@QEBD@Z
	??_D?$clone_impl@U?$error_info_injector@Vthread_resource_error@boost@@@exception_detail@boost@@@exception_detail@boost@@QEAAXXZ
	??_D?$clone_impl@Ubad_alloc_@exception_detail@boost@@@exception_detail@boost@@QEAAXXZ
	??_D?$clone_impl@Ubad_exception_@exception_detail@boost@@@exception_detail@boost@@QEAAXXZ
	??_H@YAXPEAX_K1P6APEAX0@Z@Z
	?CreateEventA@winapi@boost@@YAPEAXPEAU_SECURITY_ATTRIBUTES@12@HHPEBD@Z
	?_Activate_SSO_buffer@?$_String_val@U?$_Simple_types@D@std@@@std@@QEAAXXZ
	?_Adjust_manually_vector_aligned@std@@YAXAEAPEAXAEA_K@Z
	?_Adopt@_Iterator_base0@std@@QEAAXPEBX@Z
	?_Alloc_proxy@_Container_base0@std@@QEAAXAEBU_Fake_allocator@2@@Z
	?_Allocate@?$_Alloc_construct_ptr@V?$allocator@U?$_Tree_node@U?$pair@$$CBV?$basic_string@DU?$char_traits@D@std@@V?$allocator@D@2@@std@@PEAVAbstractMetaObjectBase@impl@class_loader@@@std@@PEAX@std@@@std@@@std@@QEAAXXZ
	?_Allocate@_Default_allocate_traits@std@@SAPEAX_K@Z
	?_Calculate_growth@?$basic_string@DU?$char_traits@D@std@@V?$allocator@D@2@@std@@AEBA_K_K@Z
	?_Calculate_growth@?$basic_string@DU?$char_traits@D@std@@V?$allocator@D@2@@std@@CA_K_K00@Z
	?_Calculate_growth@?$vector@U?$PoseStamped_@V?$allocator@X@std@@@geometry_msgs@@V?$allocator@U?$PoseStamped_@V?$allocator@X@std@@@geometry_msgs@@@std@@@std@@AEBA_K_K@Z
	?_Change_array@?$vector@U?$PoseStamped_@V?$allocator@X@std@@@geometry_msgs@@V?$allocator@U?$PoseStamped_@V?$allocator@X@std@@@geometry_msgs@@@std@@@std@@AEAAXQEAU?$PoseStamped_@V?$allocator@X@std@@@geometry_msgs@@_K1@Z
	?_Check_grow_by_1@?$_Tree@V?$_Tmap_traits@V?$basic_string@DU?$char_traits@D@std@@V?$allocator@D@2@@std@@PEAVAbstractMetaObjectBase@impl@class_loader@@U?$less@V?$basic_string@DU?$char_traits@D@std@@V?$allocator@D@2@@std@@@2@V?$allocator@U?$pair@$$CBV?$basic_string@DU?$char_traits@D@std@@V?$allocator@D@2@@std@@PEAVAbstractMetaObjectBase@impl@class_loader@@@std@@@2@$0A@@std@@@std@@IEAAXXZ
	?_Deallocate_for_capacity@?$basic_string@DU?$char_traits@D@std@@V?$allocator@D@2@@std@@CAXAEAV?$allocator@D@2@QEAD_K@Z
	?_Get_first@?$_Compressed_pair@U?$less@V?$basic_string@DU?$char_traits@D@std@@V?$allocator@D@2@@std@@@std@@V?$_Compressed_pair@V?$allocator@U?$_Tree_node@U?$pair@$$CBV?$basic_string@DU?$char_traits@D@std@@V?$allocator@D@2@@std@@PEAVAbstractMetaObjectBase@impl@class_loader@@@std@@PEAX@std@@@std@@V?$_Tree_val@U?$_Tree_simple_types@U?$pair@$$CBV?$basic_string@DU?$char_traits@D@std@@V?$allocator@D@2@@std@@PEAVAbstractMetaObjectBase@impl@class_loader@@@std@@@std@@@2@$00@2@$00@std@@QEBAAEBU?$less@V?$basic_string@DU?$char_traits@D@std@@V?$allocator@D@2@@std@@@2@XZ
	?_Get_first@?$_Compressed_pair@V?$allocator@D@std@@V?$_String_val@U?$_Simple_types@D@std@@@2@$00@std@@QEAAAEAV?$allocator@D@2@XZ
	?_Get_first@?$_Compressed_pair@V?$allocator@D@std@@V?$_String_val@U?$_Simple_types@D@std@@@2@$00@std@@QEBAAEBV?$allocator@D@2@XZ
	?_Get_first@?$_Compressed_pair@V?$allocator@U?$PoseStamped_@V?$allocator@X@std@@@geometry_msgs@@@std@@V?$_Vector_val@U?$_Simple_types@U?$PoseStamped_@V?$allocator@X@std@@@geometry_msgs@@@std@@@2@$00@std@@QEAAAEAV?$allocator@U?$PoseStamped_@V?$allocator@X@std@@@geometry_msgs@@@2@XZ
	?_Get_first@?$_Compressed_pair@V?$allocator@U?$PoseStamped_@V?$allocator@X@std@@@geometry_msgs@@@std@@V?$_Vector_val@U?$_Simple_types@U?$PoseStamped_@V?$allocator@X@std@@@geometry_msgs@@@std@@@2@$00@std@@QEBAAEBV?$allocator@U?$PoseStamped_@V?$allocator@X@std@@@geometry_msgs@@@2@XZ
	?_Get_first@?$_Compressed_pair@V?$allocator@U?$_Tree_node@U?$pair@$$CBV?$basic_string@DU?$char_traits@D@std@@V?$allocator@D@2@@std@@PEAVAbstractMetaObjectBase@impl@class_loader@@@std@@PEAX@std@@@std@@V?$_Tree_val@U?$_Tree_simple_types@U?$pair@$$CBV?$basic_string@DU?$char_traits@D@std@@V?$allocator@D@2@@std@@PEAVAbstractMetaObjectBase@impl@class_loader@@@std@@@std@@@2@$00@std@@QEAAAEAV?$allocator@U?$_Tree_node@U?$pair@$$CBV?$basic_string@DU?$char_traits@D@std@@V?$allocator@D@2@@std@@PEAVAbstractMetaObjectBase@impl@class_loader@@@std@@PEAX@std@@@2@XZ
	?_Get_first@?$_Compressed_pair@V?$allocator@U?$_Tree_node@U?$pair@$$CBV?$basic_string@DU?$char_traits@D@std@@V?$allocator@D@2@@std@@PEAVAbstractMetaObjectBase@impl@class_loader@@@std@@PEAX@std@@@std@@V?$_Tree_val@U?$_Tree_simple_types@U?$pair@$$CBV?$basic_string@DU?$char_traits@D@std@@V?$allocator@D@2@@std@@PEAVAbstractMetaObjectBase@impl@class_loader@@@std@@@std@@@2@$00@std@@QEBAAEBV?$allocator@U?$_Tree_node@U?$pair@$$CBV?$basic_string@DU?$char_traits@D@std@@V?$allocator@D@2@@std@@PEAVAbstractMetaObjectBase@impl@class_loader@@@std@@PEAX@std@@@2@XZ
	?_Get_scary@?$_Tree@V?$_Tmap_traits@V?$basic_string@DU?$char_traits@D@std@@V?$allocator@D@2@@std@@PEAVAbstractMetaObjectBase@impl@class_loader@@U?$less@V?$basic_string@DU?$char_traits@D@std@@V?$allocator@D@2@@std@@@2@V?$allocator@U?$pair@$$CBV?$basic_string@DU?$char_traits@D@std@@V?$allocator@D@2@@std@@PEAVAbstractMetaObjectBase@impl@class_loader@@@std@@@2@$0A@@std@@@std@@IEAAPEAV?$_Tree_val@U?$_Tree_simple_types@U?$pair@$$CBV?$basic_string@DU?$char_traits@D@std@@V?$allocator@D@2@@std@@PEAVAbstractMetaObjectBase@impl@class_loader@@@std@@@std@@@2@XZ
	?_Get_scary@?$_Tree@V?$_Tmap_traits@V?$basic_string@DU?$char_traits@D@std@@V?$allocator@D@2@@std@@PEAVAbstractMetaObjectBase@impl@class_loader@@U?$less@V?$basic_string@DU?$char_traits@D@std@@V?$allocator@D@2@@std@@@2@V?$allocator@U?$pair@$$CBV?$basic_string@DU?$char_traits@D@std@@V?$allocator@D@2@@std@@PEAVAbstractMetaObjectBase@impl@class_loader@@@std@@@2@$0A@@std@@@std@@IEBAPEBV?$_Tree_val@U?$_Tree_simple_types@U?$pair@$$CBV?$basic_string@DU?$char_traits@D@std@@V?$allocator@D@2@@std@@PEAVAbstractMetaObjectBase@impl@class_loader@@@std@@@std@@@2@XZ
	?_Getal@?$_Tree@V?$_Tmap_traits@V?$basic_string@DU?$char_traits@D@std@@V?$allocator@D@2@@std@@PEAVAbstractMetaObjectBase@impl@class_loader@@U?$less@V?$basic_string@DU?$char_traits@D@std@@V?$allocator@D@2@@std@@@2@V?$allocator@U?$pair@$$CBV?$basic_string@DU?$char_traits@D@std@@V?$allocator@D@2@@std@@PEAVAbstractMetaObjectBase@impl@class_loader@@@std@@@2@$0A@@std@@@std@@IEAAAEAV?$allocator@U?$_Tree_node@U?$pair@$$CBV?$basic_string@DU?$char_traits@D@std@@V?$allocator@D@2@@std@@PEAVAbstractMetaObjectBase@impl@class_loader@@@std@@PEAX@std@@@2@XZ
	?_Getal@?$_Tree@V?$_Tmap_traits@V?$basic_string@DU?$char_traits@D@std@@V?$allocator@D@2@@std@@PEAVAbstractMetaObjectBase@impl@class_loader@@U?$less@V?$basic_string@DU?$char_traits@D@std@@V?$allocator@D@2@@std@@@2@V?$allocator@U?$pair@$$CBV?$basic_string@DU?$char_traits@D@std@@V?$allocator@D@2@@std@@PEAVAbstractMetaObjectBase@impl@class_loader@@@std@@@2@$0A@@std@@@std@@IEBAAEBV?$allocator@U?$_Tree_node@U?$pair@$$CBV?$basic_string@DU?$char_traits@D@std@@V?$allocator@D@2@@std@@PEAVAbstractMetaObjectBase@impl@class_loader@@@std@@PEAX@std@@@2@XZ
	?_Getal@?$basic_string@DU?$char_traits@D@std@@V?$allocator@D@2@@std@@AEAAAEAV?$allocator@D@2@XZ
	?_Getal@?$basic_string@DU?$char_traits@D@std@@V?$allocator@D@2@@std@@AEBAAEBV?$allocator@D@2@XZ
	?_Getal@?$vector@U?$PoseStamped_@V?$allocator@X@std@@@geometry_msgs@@V?$allocator@U?$PoseStamped_@V?$allocator@X@std@@@geometry_msgs@@@std@@@std@@AEAAAEAV?$allocator@U?$PoseStamped_@V?$allocator@X@std@@@geometry_msgs@@@2@XZ
	?_Getal@?$vector@U?$PoseStamped_@V?$allocator@X@std@@@geometry_msgs@@V?$allocator@U?$PoseStamped_@V?$allocator@X@std@@@geometry_msgs@@@std@@@std@@AEBAAEBV?$allocator@U?$PoseStamped_@V?$allocator@X@std@@@geometry_msgs@@@2@XZ
	?_Getcomp@?$_Tree@V?$_Tmap_traits@V?$basic_string@DU?$char_traits@D@std@@V?$allocator@D@2@@std@@PEAVAbstractMetaObjectBase@impl@class_loader@@U?$less@V?$basic_string@DU?$char_traits@D@std@@V?$allocator@D@2@@std@@@2@V?$allocator@U?$pair@$$CBV?$basic_string@DU?$char_traits@D@std@@V?$allocator@D@2@@std@@PEAVAbstractMetaObjectBase@impl@class_loader@@@std@@@2@$0A@@std@@@std@@IEBAAEBU?$less@V?$basic_string@DU?$char_traits@D@std@@V?$allocator@D@2@@std@@@2@XZ
	?_Insert_node@?$_Tree_val@U?$_Tree_simple_types@U?$pair@$$CBV?$basic_string@DU?$char_traits@D@std@@V?$allocator@D@2@@std@@PEAVAbstractMetaObjectBase@impl@class_loader@@@std@@@std@@@std@@QEAAPEAU?$_Tree_node@U?$pair@$$CBV?$basic_string@DU?$char_traits@D@std@@V?$allocator@D@2@@std@@PEAVAbstractMetaObjectBase@impl@class_loader@@@std@@PEAX@2@U?$_Tree_id@PEAU?$_Tree_node@U?$pair@$$CBV?$basic_string@DU?$char_traits@D@std@@V?$allocator@D@2@@std@@PEAVAbstractMetaObjectBase@impl@class_loader@@@std@@PEAX@std@@@2@QEAU32@@Z
	?_Large_mode_engaged@?$_String_val@U?$_Simple_types@D@std@@@std@@QEBA_NXZ
	?_Lrotate@?$_Tree_val@U?$_Tree_simple_types@U?$pair@$$CBV?$basic_string@DU?$char_traits@D@std@@V?$allocator@D@2@@std@@PEAVAbstractMetaObjectBase@impl@class_loader@@@std@@@std@@@std@@QEAAXPEAU?$_Tree_node@U?$pair@$$CBV?$basic_string@DU?$char_traits@D@std@@V?$allocator@D@2@@std@@PEAVAbstractMetaObjectBase@impl@class_loader@@@std@@PEAX@2@@Z
	?_Maklocwcs@std@@YAPEA_WPEB_W@Z
	?_Memcpy_val_from@?$basic_string@DU?$char_traits@D@std@@V?$allocator@D@2@@std@@AEAAXAEBV12@@Z
	?_Myptr@?$_String_val@U?$_Simple_types@D@std@@@std@@QEAAPEADXZ
	?_Myptr@?$_String_val@U?$_Simple_types@D@std@@@std@@QEBAPEBDXZ
	?_Negate@?$_Atomic_integral_facade@H@std@@SAHH@Z
	?_Orphan_all@_Container_base0@std@@QEAAXXZ
	?_Orphan_range@?$vector@U?$PoseStamped_@V?$allocator@X@std@@@geometry_msgs@@V?$allocator@U?$PoseStamped_@V?$allocator@X@std@@@geometry_msgs@@@std@@@std@@AEBAXPEAU?$PoseStamped_@V?$allocator@X@std@@@geometry_msgs@@0@Z
	?_Release@?$_Alloc_construct_ptr@V?$allocator@U?$_Tree_node@U?$pair@$$CBV?$basic_string@DU?$char_traits@D@std@@V?$allocator@D@2@@std@@PEAVAbstractMetaObjectBase@impl@class_loader@@@std@@PEAX@std@@@std@@@std@@QEAAPEAU?$_Tree_node@U?$pair@$$CBV?$basic_string@DU?$char_traits@D@std@@V?$allocator@D@2@@std@@PEAVAbstractMetaObjectBase@impl@class_loader@@@std@@PEAX@2@XZ
	?_Release@?$_Uninitialized_backout_al@V?$allocator@U?$PoseStamped_@V?$allocator@X@std@@@geometry_msgs@@@std@@@std@@QEAAPEAU?$PoseStamped_@V?$allocator@X@std@@@geometry_msgs@@XZ
	?_Release@_Fake_proxy_ptr_impl@std@@QEAAXXZ
	?_Rrotate@?$_Tree_val@U?$_Tree_simple_types@U?$pair@$$CBV?$basic_string@DU?$char_traits@D@std@@V?$allocator@D@2@@std@@PEAVAbstractMetaObjectBase@impl@class_loader@@@std@@@std@@@std@@QEAAXPEAU?$_Tree_node@U?$pair@$$CBV?$basic_string@DU?$char_traits@D@std@@V?$allocator@D@2@@std@@PEAVAbstractMetaObjectBase@impl@class_loader@@@std@@PEAX@2@@Z
	?_Swap_proxy_and_iterators@?$basic_string@DU?$char_traits@D@std@@V?$allocator@D@2@@std@@AEAAXAEAV12@@Z
	?_Swap_proxy_and_iterators@_Container_base0@std@@QEAAXAEAU12@@Z
	?_Take_contents@?$basic_string@DU?$char_traits@D@std@@V?$allocator@D@2@@std@@AEAAXAEAV12@@Z
	?_Throw_bad_array_new_length@std@@YAXXZ
	?_Throw_tree_length_error@std@@YAXXZ
	?_Tidy_deallocate@?$basic_string@DU?$char_traits@D@std@@V?$allocator@D@2@@std@@AEAAXXZ
	?_Tidy_init@?$basic_string@DU?$char_traits@D@std@@V?$allocator@D@2@@std@@AEAAXXZ
	?_Xlen_string@std@@YAXXZ
	?_Xlength@?$vector@U?$PoseStamped_@V?$allocator@X@std@@@geometry_msgs@@V?$allocator@U?$PoseStamped_@V?$allocator@X@std@@@geometry_msgs@@@std@@@std@@CAXXZ
	?add_ref@?$refcount_ptr@Uerror_info_container@exception_detail@boost@@@exception_detail@boost@@AEAAXXZ
	?add_ref_copy@sp_counted_base@detail@boost@@QEAAXXZ
	?adopt@?$refcount_ptr@Uerror_info_container@exception_detail@boost@@@exception_detail@boost@@QEAAXPEAUerror_info_container@23@@Z
	?allocate@?$allocator@D@std@@QEAAPEAD_K@Z
	?allocate@?$allocator@U?$PoseStamped_@V?$allocator@X@std@@@geometry_msgs@@@std@@QEAAPEAU?$PoseStamped_@V?$allocator@X@std@@@geometry_msgs@@_K@Z
	?allocate@?$allocator@U?$_Tree_node@U?$pair@$$CBV?$basic_string@DU?$char_traits@D@std@@V?$allocator@D@2@@std@@PEAVAbstractMetaObjectBase@impl@class_loader@@@std@@PEAX@std@@@std@@QEAAPEAU?$_Tree_node@U?$pair@$$CBV?$basic_string@DU?$char_traits@D@std@@V?$allocator@D@2@@std@@PEAVAbstractMetaObjectBase@impl@class_loader@@@std@@PEAX@2@_K@Z
	?append@?$basic_string@DU?$char_traits@D@std@@V?$allocator@D@2@@std@@QEAAAEAV12@AEBV12@@Z
	?append@?$basic_string@DU?$char_traits@D@std@@V?$allocator@D@2@@std@@QEAAAEAV12@QEBD@Z
	?append@?$basic_string@DU?$char_traits@D@std@@V?$allocator@D@2@@std@@QEAAAEAV12@QEBD_K@Z
	?assign@?$_Narrow_char_traits@DH@std@@SAXAEADAEBD@Z
	?assign@?$basic_string@DU?$char_traits@D@std@@V?$allocator@D@2@@std@@QEAAAEAV12@QEBD@Z
	?assign@?$basic_string@DU?$char_traits@D@std@@V?$allocator@D@2@@std@@QEAAAEAV12@QEBD_K@Z
	?atomic_decrement@detail@boost@@YAHPEAU?$atomic@H@std@@@Z
	?atomic_increment@detail@boost@@YAXPEAU?$atomic@H@std@@@Z
	?c_str@?$basic_string@DU?$char_traits@D@std@@V?$allocator@D@2@@std@@QEBAPEBDXZ
	?capacity@?$vector@U?$PoseStamped_@V?$allocator@X@std@@@geometry_msgs@@V?$allocator@U?$PoseStamped_@V?$allocator@X@std@@@geometry_msgs@@@std@@@std@@QEBA_KXZ
	?clear_waiting_and_try_lock@basic_timed_mutex@detail@boost@@QEAAXAEAJ@Z
	?clone@?$clone_impl@U?$error_info_injector@Vthread_resource_error@boost@@@exception_detail@boost@@@exception_detail@boost@@$0PPPPPPPM@A@EBAPEBVclone_base@23@XZ
	?clone@?$clone_impl@U?$error_info_injector@Vthread_resource_error@boost@@@exception_detail@boost@@@exception_detail@boost@@EEBAPEBVclone_base@23@XZ
	?clone@?$clone_impl@Ubad_alloc_@exception_detail@boost@@@exception_detail@boost@@$0PPPPPPPM@A@EBAPEBVclone_base@23@XZ
	?clone@?$clone_impl@Ubad_alloc_@exception_detail@boost@@@exception_detail@boost@@EEBAPEBVclone_base@23@XZ
	?clone@?$clone_impl@Ubad_exception_@exception_detail@boost@@@exception_detail@boost@@$0PPPPPPPM@A@EBAPEBVclone_base@23@XZ
	?clone@?$clone_impl@Ubad_exception_@exception_detail@boost@@@exception_detail@boost@@EEBAPEBVclone_base@23@XZ
	?compare@?$_Narrow_char_traits@DH@std@@SAHQEBD0_K@Z
	?compare@?$basic_string@DU?$char_traits@D@std@@V?$allocator@D@2@@std@@QEBAHAEBV12@@Z
	?copy@?$_Char_traits@DH@std@@SAPEADQEADQEBD_K@Z
	?copy_boost_exception@exception_detail@boost@@YAXPEAVexception@2@PEBV32@@Z
	?create@?$MetaObject@VGlobalPlanner@global_planner@@VBaseGlobalPlanner@nav_core@@@impl@class_loader@@UEBAPEAVBaseGlobalPlanner@nav_core@@XZ
	?create_anonymous_event@win32@detail@boost@@YAPEAXW4event_type@123@W4initial_event_state@123@@Z
	?create_event@win32@detail@boost@@YAPEAXPEBDW4event_type@123@W4initial_event_state@123@@Z
	?deallocate@?$allocator@D@std@@QEAAXQEAD_K@Z
	?deallocate@?$allocator@U?$PoseStamped_@V?$allocator@X@std@@@geometry_msgs@@@std@@QEAAXQEAU?$PoseStamped_@V?$allocator@X@std@@@geometry_msgs@@_K@Z
	?deallocate@?$allocator@U?$_Tree_node@U?$pair@$$CBV?$basic_string@DU?$char_traits@D@std@@V?$allocator@D@2@@std@@PEAVAbstractMetaObjectBase@impl@class_loader@@@std@@PEAX@std@@@std@@QEAAXQEAU?$_Tree_node@U?$pair@$$CBV?$basic_string@DU?$char_traits@D@std@@V?$allocator@D@2@@std@@PEAVAbstractMetaObjectBase@impl@class_loader@@@std@@PEAX@2@_K@Z
	?destroy@sp_counted_base@detail@boost@@UEAAXXZ
	?dispose@?$sp_counted_impl_p@V?$clone_impl@Ubad_alloc_@exception_detail@boost@@@exception_detail@boost@@@detail@boost@@UEAAXXZ
	?dispose@?$sp_counted_impl_p@V?$clone_impl@Ubad_exception_@exception_detail@boost@@@exception_detail@boost@@@detail@boost@@UEAAXXZ
	?empty@?$basic_string@DU?$char_traits@D@std@@V?$allocator@D@2@@std@@QEBA_NXZ
	?end@?$_Tree@V?$_Tmap_traits@V?$basic_string@DU?$char_traits@D@std@@V?$allocator@D@2@@std@@PEAVAbstractMetaObjectBase@impl@class_loader@@U?$less@V?$basic_string@DU?$char_traits@D@std@@V?$allocator@D@2@@std@@@2@V?$allocator@U?$pair@$$CBV?$basic_string@DU?$char_traits@D@std@@V?$allocator@D@2@@std@@PEAVAbstractMetaObjectBase@impl@class_loader@@@std@@@2@$0A@@std@@@std@@QEAA?AV?$_Tree_iterator@V?$_Tree_val@U?$_Tree_simple_types@U?$pair@$$CBV?$basic_string@DU?$char_traits@D@std@@V?$allocator@D@2@@std@@PEAVAbstractMetaObjectBase@impl@class_loader@@@std@@@std@@@std@@@2@XZ
	?fetch_add@?$_Atomic_integral@H$03@std@@QEAAHHW4memory_order@2@@Z
	?fetch_sub@?$_Atomic_integral_facade@H@std@@QEAAHHW4memory_order@2@@Z
	?find@?$_Tree@V?$_Tmap_traits@V?$basic_string@DU?$char_traits@D@std@@V?$allocator@D@2@@std@@PEAVAbstractMetaObjectBase@impl@class_loader@@U?$less@V?$basic_string@DU?$char_traits@D@std@@V?$allocator@D@2@@std@@@2@V?$allocator@U?$pair@$$CBV?$basic_string@DU?$char_traits@D@std@@V?$allocator@D@2@@std@@PEAVAbstractMetaObjectBase@impl@class_loader@@@std@@@2@$0A@@std@@@std@@QEAA?AV?$_Tree_iterator@V?$_Tree_val@U?$_Tree_simple_types@U?$pair@$$CBV?$basic_string@DU?$char_traits@D@std@@V?$allocator@D@2@@std@@PEAVAbstractMetaObjectBase@impl@class_loader@@@std@@@std@@@std@@@2@AEBV?$basic_string@DU?$char_traits@D@std@@V?$allocator@D@2@@2@@Z
	?get@?$refcount_ptr@Uerror_info_container@exception_detail@boost@@@exception_detail@boost@@QEBAPEAUerror_info_container@23@XZ
	?get_deleter@?$sp_counted_impl_p@V?$clone_impl@Ubad_alloc_@exception_detail@boost@@@exception_detail@boost@@@detail@boost@@UEAAPEAXAEBVtype_info@@@Z
	?get_deleter@?$sp_counted_impl_p@V?$clone_impl@Ubad_exception_@exception_detail@boost@@@exception_detail@boost@@@detail@boost@@UEAAPEAXAEBVtype_info@@@Z
	?get_event@basic_timed_mutex@detail@boost@@AEAAPEAXXZ
	?get_local_deleter@?$sp_counted_impl_p@V?$clone_impl@Ubad_alloc_@exception_detail@boost@@@exception_detail@boost@@@detail@boost@@UEAAPEAXAEBVtype_info@@@Z
	?get_local_deleter@?$sp_counted_impl_p@V?$clone_impl@Ubad_exception_@exception_detail@boost@@@exception_detail@boost@@@detail@boost@@UEAAPEAXAEBVtype_info@@@Z
	?get_untyped_deleter@?$sp_counted_impl_p@V?$clone_impl@Ubad_alloc_@exception_detail@boost@@@exception_detail@boost@@@detail@boost@@UEAAPEAXXZ
	?get_untyped_deleter@?$sp_counted_impl_p@V?$clone_impl@Ubad_exception_@exception_detail@boost@@@exception_detail@boost@@@detail@boost@@UEAAPEAXXZ
	?initialize@GlobalPlanner@global_planner@@UEAAXV?$basic_string@DU?$char_traits@D@std@@V?$allocator@D@2@@std@@PEAVCostmap2DROS@costmap_2d@@@Z
	?interlocked_bit_test_and_set@win32@detail@boost@@YA_NPEAJJ@Z
	?interlocked_read_acquire@detail@boost@@YAJPECJ@Z
	?interlocked_read_acquire@detail@boost@@YAPEAXPECREAX@Z
	?length@?$_Narrow_char_traits@DH@std@@SA_KQEBD@Z
	?lock@?$basic_recursive_mutex_impl@Ubasic_timed_mutex@detail@boost@@@detail@boost@@QEAAXXZ
	?lock@basic_timed_mutex@detail@boost@@QEAAXXZ
	?makePlan@BaseGlobalPlanner@nav_core@@UEAA_NAEBU?$PoseStamped_@V?$allocator@X@std@@@geometry_msgs@@0AEAV?$vector@U?$PoseStamped_@V?$allocator@X@std@@@geometry_msgs@@V?$allocator@U?$PoseStamped_@V?$allocator@X@std@@@geometry_msgs@@@std@@@std@@AEAN@Z
	?makePlan@GlobalPlanner@global_planner@@UEAA_NAEBU?$PoseStamped_@V?$allocator@X@std@@@geometry_msgs@@0AEAV?$vector@U?$PoseStamped_@V?$allocator@X@std@@@geometry_msgs@@V?$allocator@U?$PoseStamped_@V?$allocator@X@std@@@geometry_msgs@@@std@@@std@@@Z
	?mark_waiting_and_try_lock@basic_timed_mutex@detail@boost@@QEAAXAEAJ@Z
	?max@?$numeric_limits@_J@std@@SA_JXZ
	?max_size@?$_Default_allocator_traits@V?$allocator@D@std@@@std@@SA_KAEBV?$allocator@D@2@@Z
	?max_size@?$_Default_allocator_traits@V?$allocator@U?$PoseStamped_@V?$allocator@X@std@@@geometry_msgs@@@std@@@std@@SA_KAEBV?$allocator@U?$PoseStamped_@V?$allocator@X@std@@@geometry_msgs@@@2@@Z
	?max_size@?$_Default_allocator_traits@V?$allocator@U?$_Tree_node@U?$pair@$$CBV?$basic_string@DU?$char_traits@D@std@@V?$allocator@D@2@@std@@PEAVAbstractMetaObjectBase@impl@class_loader@@@std@@PEAX@std@@@std@@@std@@SA_KAEBV?$allocator@U?$_Tree_node@U?$pair@$$CBV?$basic_string@DU?$char_traits@D@std@@V?$allocator@D@2@@std@@PEAVAbstractMetaObjectBase@impl@class_loader@@@std@@PEAX@std@@@2@@Z
	?max_size@?$_Tree@V?$_Tmap_traits@V?$basic_string@DU?$char_traits@D@std@@V?$allocator@D@2@@std@@PEAVAbstractMetaObjectBase@impl@class_loader@@U?$less@V?$basic_string@DU?$char_traits@D@std@@V?$allocator@D@2@@std@@@2@V?$allocator@U?$pair@$$CBV?$basic_string@DU?$char_traits@D@std@@V?$allocator@D@2@@std@@PEAVAbstractMetaObjectBase@impl@class_loader@@@std@@@2@$0A@@std@@@std@@QEBA_KXZ
	?max_size@?$basic_string@DU?$char_traits@D@std@@V?$allocator@D@2@@std@@QEBA_KXZ
	?max_size@?$vector@U?$PoseStamped_@V?$allocator@X@std@@@geometry_msgs@@V?$allocator@U?$PoseStamped_@V?$allocator@X@std@@@geometry_msgs@@@std@@@std@@QEBA_KXZ
	?message@error_code@system@boost@@QEBA?AV?$basic_string@DU?$char_traits@D@std@@V?$allocator@D@2@@std@@XZ
	?move@?$_Char_traits@DH@std@@SAPEADQEADQEBD_K@Z
	?name@type_info@@QEBAPEBDXZ
	?owns_lock@?$unique_lock@Vmutex@boost@@@boost@@QEBA_NXZ
	?push_back@?$vector@U?$PoseStamped_@V?$allocator@X@std@@@geometry_msgs@@V?$allocator@U?$PoseStamped_@V?$allocator@X@std@@@geometry_msgs@@@std@@@std@@QEAAXAEBU?$PoseStamped_@V?$allocator@X@std@@@geometry_msgs@@@Z
	?release@?$refcount_ptr@Uerror_info_container@exception_detail@boost@@@exception_detail@boost@@AEAAXXZ
	?release@sp_counted_base@detail@boost@@QEAAXXZ
	?rethrow@?$clone_impl@U?$error_info_injector@Vthread_resource_error@boost@@@exception_detail@boost@@@exception_detail@boost@@$0PPPPPPPM@A@EBAXXZ
	?rethrow@?$clone_impl@U?$error_info_injector@Vthread_resource_error@boost@@@exception_detail@boost@@@exception_detail@boost@@EEBAXXZ
	?rethrow@?$clone_impl@Ubad_alloc_@exception_detail@boost@@@exception_detail@boost@@$0PPPPPPPM@A@EBAXXZ
	?rethrow@?$clone_impl@Ubad_alloc_@exception_detail@boost@@@exception_detail@boost@@EEBAXXZ
	?rethrow@?$clone_impl@Ubad_exception_@exception_detail@boost@@@exception_detail@boost@@$0PPPPPPPM@A@EBAXXZ
	?rethrow@?$clone_impl@Ubad_exception_@exception_detail@boost@@@exception_detail@boost@@EEBAXXZ
	?select_on_container_copy_construction@?$_Default_allocator_traits@V?$allocator@D@std@@@std@@SA?AV?$allocator@D@2@AEBV32@@Z
	?sp_enable_shared_from_this@detail@boost@@YAXZZ
	?swap@shared_count@detail@boost@@QEAAXAEAV123@@Z
	?throw_exception_assert_compatibility@boost@@YAXAEBVexception@std@@@Z
	?try_lock@basic_timed_mutex@detail@boost@@QEAA_NXZ
	?try_recursive_lock@?$basic_recursive_mutex_impl@Ubasic_timed_mutex@detail@boost@@@detail@boost@@AEAA_NJ@Z
	?unlock@?$basic_recursive_mutex_impl@Ubasic_timed_mutex@detail@boost@@@detail@boost@@QEAAXXZ
	?unlock@basic_timed_mutex@detail@boost@@QEAAXXZ
	?value@error_code@system@boost@@QEBAHXZ
	?weak_release@sp_counted_base@detail@boost@@QEAAXXZ
	?what@exception@std@@UEBAPEBDXZ
	?what@system_error@system@boost@@UEBAPEBDXZ
	_Check_memory_order
	wmemcpy
